	.section .text
.LNDBG_TX:
# mark_description "Intel(R) C Intel(R) 64 Compiler for applications running on Intel(R) 64, Version 16.0.0.109 Build 20150815";
# mark_description "-I.. -I../pngwriter/include -qoffload -S -g -O3 -opt-gather-scatter-unroll=8 -fopenmp -fimf-domain-exclusion";
# mark_description "=8 -mkl -mavx -qopt-report=5 -qopt-report-phase=vec -qopt-report-file=stdout -opt-report-routine=simd";
	.file "computebound_calu.cpp"
	.text
..TXTST0:
.L_2__routine_start_main_0:
# -- Begin  main, L_main_18__par_region0_2.0
	.text
# mark_begin;
       .align    16,0x90
	.globl main
# --- main(int, char **)
main:
# parameter 1(argc): %edi
# parameter 2(argv): %rsi
..B1.1:                         # Preds ..B1.0
	.cfi_startproc
	.cfi_personality 0x3,__gxx_personality_v0
	.cfi_lsda 0xb, main$$LSDA
..___tag_value_main.2:
..L3:
                                                          #309.1
..LN0:
	.file   1 "computebound_calu.cpp"
	.loc    1  309  is_stmt 1
        pushq     %rbp                                          #309.1
	.cfi_def_cfa_offset 16
..LN1:
        movq      %rsp, %rbp                                    #309.1
	.cfi_def_cfa 6, 16
	.cfi_offset 6, -16
..LN2:
        subq      $192, %rsp                                    #309.1
..LN3:
        movq      %r13, -152(%rbp)                              #309.1
	.cfi_offset 13, -168
..LN4:
        movq      %rsi, %r13                                    #309.1
..LN5:
        movq      %r12, -144(%rbp)                              #309.1
	.cfi_offset 12, -160
..LN6:
        movl      %edi, %r12d                                   #309.1
..LN7:
        xorl      %esi, %esi                                    #309.1
..LN8:
        movl      $3, %edi                                      #309.1
..LN9:
        movq      %rbx, -136(%rbp)                              #309.1
..LN10:
        movq      %r15, -168(%rbp)                              #309.1
..LN11:
        movq      %r14, -160(%rbp)                              #309.1
..LN12:
        call      __intel_new_feature_proc_init                 #309.1
	.cfi_offset 3, -152
	.cfi_offset 14, -176
	.cfi_offset 15, -184
..LN13:
                                # LOE r13 r12d
..B1.293:                       # Preds ..B1.1
..LN14:
        lea       -192(%rbp), %rax                              #309.1
..LN15:
        vstmxcsr  (%rax)                                        #309.1
..LN16:
        movl      $.2.47_2_kmpc_loc_struct_pack.211, %edi       #309.1
..LN17:
        xorl      %esi, %esi                                    #309.1
..LN18:
        orl       $32832, (%rax)                                #309.1
..LN19:
        xorl      %eax, %eax                                    #309.1
..LN20:
        vldmxcsr  -192(%rbp)                                    #309.1
..___tag_value_main.13:
..LN21:
        call      __kmpc_begin                                  #309.1
..___tag_value_main.14:
..LN22:
                                # LOE r13 r12d
..B1.2:                         # Preds ..B1.293
..LN23:
	.loc    1  310  prologue_end  is_stmt 1
        movl      $il0_peep_printf_format_0, %edi               #310.5
..LN24:
        call      puts                                          #310.5
..LN25:
                                # LOE r13 r12d
..B1.3:                         # Preds ..B1.2
..LN26:
	.file   2 "../cmdline.h"
	.loc    2  45  is_stmt 1
        movl      $il0_peep_printf_format_1, %edi               #45.5
..LN27:
        call      puts                                          #45.5
..LN28:
                                # LOE r13 r12d
..B1.4:                         # Preds ..B1.3
..LN29:
	.loc    2  46  is_stmt 1
        movl      $.L_2__STRING.1, %edi                         #46.2
..LN30:
        movl      $245760, %edx                                 #46.2
..LN31:
        movl      $200000, %ecx                                 #46.2
..LN32:
        xorl      %eax, %eax                                    #46.2
..LN33:
        movq      (%r13), %rsi                                  #46.2
..___tag_value_main.15:
..LN34:
#       printf(const char *, ...)
        call      printf                                        #46.2
..___tag_value_main.16:
..LN35:
                                # LOE r13 r12d
..B1.5:                         # Preds ..B1.4
..LN36:
	.loc    2  47  is_stmt 1
        movl      $il0_peep_printf_format_2, %edi               #47.5
..LN37:
        call      puts                                          #47.5
..LN38:
                                # LOE r13 r12d
..B1.6:                         # Preds ..B1.5
..LN39:
	.loc    2  50  is_stmt 1
        cmpl      $1, %r12d                                     #50.19
..LN40:
        jle       ..B1.13       # Prob 50%                      #50.19
..LN41:
                                # LOE r13 r12d
..B1.7:                         # Preds ..B1.6
..LN42:
	.file   3 "/usr/include/stdlib.h"
	.loc    3  291  is_stmt 1
        movq      8(%r13), %rcx                                 #291.10
..LN43:
        call      __intel_sse4_atol                             #291.10
..LN44:
                                # LOE rax r13 r12d
..B1.294:                       # Preds ..B1.7
..LN45:
        movq      %rax, %rbx                                    #291.10
..LN46:
                                # LOE rbx r13 r12d
..B1.8:                         # Preds ..B1.294
..LN47:
	.loc    2  51  is_stmt 1
        cmpl      $2, %r12d                                     #51.15
..LN48:
        jle       ..B1.14       # Prob 50%                      #51.15
..LN49:
                                # LOE rbx r13 r12d
..B1.9:                         # Preds ..B1.8
..LN50:
	.loc    3  291  is_stmt 1
        movq      16(%r13), %rcx                                #291.10
..LN51:
        call      __intel_sse4_atol                             #291.10
..LN52:
                                # LOE rax rbx r13 r12d
..B1.295:                       # Preds ..B1.9
..LN53:
        movq      %rax, %r14                                    #291.10
..LN54:
                                # LOE rbx r13 r14 r12d
..B1.10:                        # Preds ..B1.295
..LN55:
	.loc    2  52  is_stmt 1
        cmpl      $3, %r12d                                     #52.21
..LN56:
        jle       ..B1.15       # Prob 22%                      #52.21
..LN57:
                                # LOE rbx r13 r14
..B1.11:                        # Preds ..B1.10
..LN58:
	.loc    3  286  is_stmt 1
        movq      24(%r13), %rcx                                #286.16
..LN59:
        call      __intel_sse4_atol                             #286.16
..LN60:
                                # LOE rax rbx r14
..B1.12:                        # Preds ..B1.11
..LN61:
        movl      %eax, %r12d                                   #286.16
..LN62:
        jmp       ..B1.17       # Prob 100%                     #286.16
..LN63:
                                # LOE rbx r14 r12d
..B1.13:                        # Preds ..B1.6
..LN64:
	.loc    2  50  is_stmt 1
        movl      $245760, %ebx                                 #50.39
..LN65:
                                # LOE rbx
..B1.14:                        # Preds ..B1.13 ..B1.8
..LN66:
	.loc    2  51  is_stmt 1
        movl      $200000, %r14d                                #51.35
..LN67:
                                # LOE rbx r14
..B1.15:                        # Preds ..B1.14 ..B1.10
..LN68:
	.loc    2  52  is_stmt 1
#       omp_get_max_threads()
        call      omp_get_max_threads                           #52.41
..LN69:
                                # LOE rbx r14 eax
..B1.297:                       # Preds ..B1.15
..LN70:
        movl      %eax, %r12d                                   #52.41
..LN71:
                                # LOE rbx r14 r12d
..B1.17:                        # Preds ..B1.297 ..B1.12
..LN72:
	.loc    2  53  is_stmt 1
        movl      %r12d, %edi                                   #53.2
..___tag_value_main.17:
..LN73:
#       omp_set_num_threads(int)
        call      omp_set_num_threads                           #53.2
..___tag_value_main.18:
..LN74:
                                # LOE rbx r14 r12d
..B1.18:                        # Preds ..B1.17
..LN75:
	.loc    2  54  is_stmt 1
        movq      %rbx, %r13                                    #54.14
..LN76:
	.loc    2  57  is_stmt 1
        movl      $.L_2__STRING.3, %edi                         #57.5
..LN77:
	.loc    2  54  is_stmt 1
        shrq      $2, %r13                                      #54.14
..LN78:
	.loc    2  57  is_stmt 1
        xorl      %eax, %eax                                    #57.5
..LN79:
        movq      %r13, %rsi                                    #57.5
..___tag_value_main.19:
..LN80:
#       printf(const char *, ...)
        call      printf                                        #57.5
..___tag_value_main.20:
..LN81:
                                # LOE rbx r13 r14 r12d
..B1.19:                        # Preds ..B1.18
..LN82:
	.loc    2  58  is_stmt 1
        movl      $.L_2__STRING.4, %edi                         #58.5
..LN83:
        movq      %r14, %rsi                                    #58.5
..LN84:
        xorl      %eax, %eax                                    #58.5
..___tag_value_main.21:
..LN85:
#       printf(const char *, ...)
        call      printf                                        #58.5
..___tag_value_main.22:
..LN86:
                                # LOE rbx r13 r14 r12d
..B1.20:                        # Preds ..B1.19
..LN87:
	.loc    2  60  is_stmt 1
        vxorpd    %xmm0, %xmm0, %xmm0                           #60.21
..LN88:
	.loc    2  59  is_stmt 1
        vxorpd    %xmm2, %xmm2, %xmm2                           #59.5
..LN89:
	.loc    2  60  is_stmt 1
        vcvtsi2sdq %rbx, %xmm0, %xmm0                           #60.21
..LN90:
	.loc    2  59  is_stmt 1
        vcvtsi2sd %r12d, %xmm2, %xmm2                           #59.5
..LN91:
	.loc    2  60  is_stmt 1
        vmulsd    .L_2il0floatpacket.2(%rip), %xmm0, %xmm1      #60.25
..LN92:
	.loc    2  59  is_stmt 1
        vdivsd    %xmm2, %xmm1, %xmm0                           #59.5
..LN93:
        movl      $.L_2__STRING.5, %edi                         #59.5
..LN94:
        movl      %r12d, %esi                                   #59.5
..LN95:
        movl      $1, %eax                                      #59.5
..LN96:
	.loc    2  60  is_stmt 1
        vmovsd    %xmm1, -192(%rbp)                             #60.25
..___tag_value_main.23:
..LN97:
	.loc    2  59  is_stmt 1
#       printf(const char *, ...)
        call      printf                                        #59.5
..___tag_value_main.24:
..LN98:
                                # LOE rbx r13 r14 r12d
..B1.21:                        # Preds ..B1.20
..LN99:
	.loc    2  61  is_stmt 1
        vmovsd    -192(%rbp), %xmm0                             #61.5
..LN100:
        movl      $.L_2__STRING.6, %edi                         #61.5
..LN101:
        movl      $1, %eax                                      #61.5
..___tag_value_main.25:
..LN102:
#       printf(const char *, ...)
        call      printf                                        #61.5
..___tag_value_main.26:
..LN103:
                                # LOE rbx r13 r14 r12d
..B1.22:                        # Preds ..B1.21
..LN104:
	.loc    2  62  is_stmt 1
        movl      $il0_peep_printf_format_3, %edi               #62.5
..LN105:
        call      puts                                          #62.5
..LN106:
                                # LOE rbx r13 r14 r12d
..B1.23:                        # Preds ..B1.22
..LN107:
	.loc    2  65  is_stmt 1
        movq      %rbx, %rcx                                    #65.56
..LN108:
        shrq      $8, %rbx                                      #65.19
..LN109:
        movq      %rbx, %rax                                    #65.24
..LN110:
        movslq    %r12d, %r12                                   #65.40
..LN111:
        cqto                                                    #65.24
..LN112:
        idivq     %r12                                          #65.24
..LN113:
        shlq      $5, %r12                                      #65.35
..LN114:
        imulq     %rax, %r12                                    #65.40
..LN115:
        shrq      $3, %rcx                                      #65.56
..LN116:
        cmpq      %r12, %rcx                                    #65.56
..LN117:
        jne       ..B1.288      # Prob 11%                      #65.56
..LN118:
                                # LOE r13 r14
..B1.24:                        # Preds ..B1.23
..LN119:
	.loc    1  317  is_stmt 1
        movl      $30, %edi                                     #317.21
..LN120:
#       sysconf(int)
        call      sysconf                                       #317.21
..LN121:
                                # LOE rax r13 r14
..B1.25:                        # Preds ..B1.24
..LN122:
	.loc    1  319  is_stmt 1
        movq      %rax, %rsi                                    #319.25
..LN123:
	.loc    1  318  is_stmt 1
        lea       (,%r13,4), %r12                               #318.21
..LN124:
	.loc    1  319  is_stmt 1
        movq      %r12, %rdi                                    #319.25
..LN125:
#       _mm_malloc(size_t, size_t)
        call      _mm_malloc                                    #319.25
..LN126:
                                # LOE rax r12 r13 r14
..B1.299:                       # Preds ..B1.25
..LN127:
        movq      %rax, %rbx                                    #319.25
..LN128:
                                # LOE rbx r12 r13 r14
..B1.26:                        # Preds ..B1.299
..LN129:
	.loc    1  323  is_stmt 1
        movq      %r12, %rdi                                    #323.5
..LN130:
        lea       -128(%rbp), %rsi                              #323.5
..___tag_value_main.27:
..LN131:
#       mic::alloc(long, float **)
        call      _ZN3mic5allocElPPf                            #323.5
..___tag_value_main.28:
..LN132:
                                # LOE rbx r12 r13 r14
..B1.27:                        # Preds ..B1.26
..LN133:
	.file   4 "../timeit.h"
	.loc    4  68  is_stmt 1
        vmovsd    .L_2il0floatpacket.1(%rip), %xmm0             #68.25
..LN134:
	.loc    4  67  is_stmt 1
        xorl      %r15d, %r15d                                  #67.12
..LN135:
	.loc    4  68  is_stmt 1
        vmovsd    %xmm0, -120(%rbp)                             #68.25
..___tag_value_main.29:
..LN136:
	.loc    4  69  is_stmt 1
#       omp_get_wtime()
        call      omp_get_wtime                                 #69.22
..___tag_value_main.30:
..LN137:
                                # LOE rbx r12 r13 r14 r15 xmm0
..B1.28:                        # Preds ..B1.27
..LN138:
        vmovsd    %xmm0, -192(%rbp)                             #
..LN139:
        movq      %r12, -184(%rbp)                              #
..LN140:
        movb      $1, %r12b                                     #
..LN141:
                                # LOE rbx r13 r14 r15 r12b
..B1.29:                        # Preds ..B1.36 ..B1.28
..LN142:
	.loc    4  70  is_stmt 1
        movb      %r12b, %al                                    #70.31
..LN143:
        jmp       ..B1.30       # Prob 100%                     #70.31
..LN144:
                                # LOE rbx r13 r14 r15 al r12b
..B1.38:                        # Preds ..B1.36
..LN145:
        xorb      %al, %al                                      #70.31
..LN146:
                                # LOE rbx r13 r14 r15 al r12b
..B1.30:                        # Preds ..B1.29 ..B1.38
..LN147:
        incq      %r15                                          #70.24
..LN148:
        testb     %al, %al                                      #70.31
..LN149:
        je        ..B1.62       # Prob 20%                      #70.31
..LN150:
                                # LOE rbx r13 r14 r15 r12b
..B1.31:                        # Preds ..B1.30
..___tag_value_main.31:
..LN151:
	.loc    4  74  is_stmt 1
#       omp_get_wtime()
        call      omp_get_wtime                                 #74.14
..___tag_value_main.32:
..LN152:
                                # LOE rbx r13 r14 r15 r12b xmm0
..B1.301:                       # Preds ..B1.31
..LN153:
        vmovsd    %xmm0, -176(%rbp)                             #74.14
..LN154:
                                # LOE rbx r13 r14 r15 r12b
..B1.32:                        # Preds ..B1.301
..LN155:
	.loc    4  76  is_stmt 1
        movq      %rbx, %rdi                                    #76.9
..LN156:
        movq      %r13, %rsi                                    #76.9
..LN157:
        movq      %r14, %rdx                                    #76.9
..___tag_value_main.33:
..LN158:
#       init(float *, long, long)
        call      _Z4initPfll                                   #76.9
..___tag_value_main.34:
..LN159:
                                # LOE rbx r13 r14 r15 r12b
..B1.33:                        # Preds ..B1.32
..___tag_value_main.35:
..LN160:
	.loc    4  77  is_stmt 1
#       omp_get_wtime()
        call      omp_get_wtime                                 #77.14
..___tag_value_main.36:
..LN161:
                                # LOE rbx r13 r14 r15 r12b xmm0
..B1.34:                        # Preds ..B1.33
..LN162:
	.loc    4  80  is_stmt 1
        vsubsd    -176(%rbp), %xmm0, %xmm1                      #80.16
..LN163:
        vmovsd    -120(%rbp), %xmm0                             #80.16
..LN164:
        call      fmin                                          #80.16
..LN165:
                                # LOE rbx r13 r14 r15 r12b xmm0
..B1.304:                       # Preds ..B1.34
..LN166:
        vmovsd    %xmm0, -120(%rbp)                             #80.16
..___tag_value_main.37:
..LN167:
	.loc    4  71  is_stmt 1
#       omp_get_wtime()
        call      omp_get_wtime                                 #71.15
..___tag_value_main.38:
..LN168:
                                # LOE rbx r13 r14 r15 r12b xmm0
..B1.35:                        # Preds ..B1.304
..LN169:
        vsubsd    -192(%rbp), %xmm0, %xmm1                      #71.33
..LN170:
	.loc    4  70  is_stmt 1
        vmovsd    .L_2il0floatpacket.6(%rip), %xmm0             #70.15
..LN171:
        vcomisd   %xmm1, %xmm0                                  #70.15
..LN172:
        jbe       ..B1.62       # Prob 18%                      #70.15
..LN173:
                                # LOE rbx r13 r14 r15 r12b
..B1.36:                        # Preds ..B1.35
..L39:          # optimization report
                # %s was not vectorized: loop control variable %s was found, but loop iteration count cannot be computed before executing the loop
..LN174:
        testq     %r15, %r15                                    #70.31
..LN175:
        jle       ..B1.29       # Prob 50%                      #70.31
..LN176:
        jmp       ..B1.38       # Prob 100%                     #70.31
	.cfi_restore 3
	.cfi_restore 6
	.cfi_restore 12
	.cfi_restore 13
	.cfi_restore 14
	.cfi_restore 15
..LN177:
                                # LOE rbx r13 r14 r15 r12b
L_main_18__par_region0_2.0:
# parameter 1: %rdi
# parameter 2: %rsi
# parameter 3: %rdx
# parameter 4: %rcx
# parameter 5: %r8
# parameter 6: %r9
# parameter 7: 16 + %rbp
# parameter 8: 24 + %rbp
# parameter 9: 32 + %rbp
# parameter 10: 40 + %rbp
# parameter 11: 48 + %rbp
# parameter 12: 56 + %rbp
..B1.39:                        # Preds ..B1.0
..LN178:
	.loc    4  18  is_stmt 1
        pushq     %rbp                                          #18.5
	.cfi_def_cfa 7, 16
..LN179:
        movq      %rsp, %rbp                                    #18.5
	.cfi_def_cfa 6, 16
	.cfi_offset 6, -16
..LN180:
        subq      $192, %rsp                                    #18.5
..LN181:
        movq      %r13, -152(%rbp)                              #18.5
..LN182:
        movq      %rbx, -136(%rbp)                              #18.5
	.cfi_offset 3, -152
	.cfi_offset 13, -168
..LN183:
        movq      %r8, %rbx                                     #18.5
..LN184:
        movq      %r15, -168(%rbp)                              #18.5
	.cfi_offset 15, -184
..LN185:
        movq      %rcx, %r15                                    #18.5
..LN186:
        movq      %r14, -160(%rbp)                              #18.5
	.cfi_offset 14, -176
..LN187:
        movq      %r9, %r14                                     #18.5
..LN188:
        movq      %r12, -144(%rbp)                              #18.5
	.cfi_offset 12, -160
..LN189:
        movq      %rdx, %r12                                    #18.5
..LN190:
        movl      (%rdi), %r13d                                 #18.5
..LN191:
#       omp_get_thread_num()
        call      omp_get_thread_num                            #18.5
..LN192:
                                # LOE rbx r12 r14 r15 eax r13d
..B1.305:                       # Preds ..B1.39
..LN193:
        movl      %eax, -120(%rbp)                              #18.5
..LN194:
                                # LOE rbx r12 r14 r15 r13d
..B1.40:                        # Preds ..B1.305
..LN195:
	.loc    4  21  prologue_end  is_stmt 1
        movslq    -120(%rbp), %rax                              #21.25
..LN196:
	.loc    4  18  is_stmt 1
        movq      (%r15), %r15                                  #18.5
..LN197:
	.loc    4  21  is_stmt 1
        movq      %rax, -96(%rbp)                               #21.25
..LN198:
        imulq     %r15, %rax                                    #21.38
..LN199:
        cqto                                                    #21.42
..LN200:
	.loc    4  18  is_stmt 1
        movslq    (%rbx), %rbx                                  #18.5
..LN201:
	.loc    4  21  is_stmt 1
        idivq     %rbx                                          #21.42
..LN202:
	.loc    4  18  is_stmt 1
        movq      16(%rbp), %r9                                 #18.5
..LN203:
        movq      24(%rbp), %rdi                                #18.5
..LN204:
        movq      40(%rbp), %rcx                                #18.5
..LN205:
	.loc    4  21  is_stmt 1
        movq      (%r12), %r12                                  #21.20
..LN206:
	.loc    4  18  is_stmt 1
        movq      (%rdi), %r8                                   #18.5
..LN207:
        movq      (%rcx), %rsi                                  #18.5
..LN208:
        vmovsd    (%r9), %xmm0                                  #18.5
..LN209:
	.loc    4  21  is_stmt 1
        lea       (%r12,%rax,4), %r10                           #21.20
..LN210:
	.loc    4  23  is_stmt 1
        vmovsd    .L_2il0floatpacket.1(%rip), %xmm1             #23.21
..LN211:
	.loc    4  22  is_stmt 1
        xorl      %r12d, %r12d                                  #22.16
..LN212:
	.loc    4  18  is_stmt 1
        movq      %rsi, -112(%rbp)                              #18.5
..LN213:
        movq      %r8, -64(%rbp)                                #18.5
..LN214:
        vmovsd    %xmm0, -88(%rbp)                              #18.5
..LN215:
	.loc    4  21  is_stmt 1
        movq      %r10, -104(%rbp)                              #21.20
..LN216:
	.loc    4  23  is_stmt 1
        vmovsd    %xmm1, -176(%rbp)                             #23.21
..___tag_value_main.56:
..LN217:
	.loc    4  24  is_stmt 1
#       omp_get_wtime()
        call      omp_get_wtime                                 #24.26
..___tag_value_main.57:
..LN218:
                                # LOE rbx r12 r14 r15 r13d xmm0
..B1.306:                       # Preds ..B1.40
..LN219:
        vmovapd   %xmm0, %xmm1                                  #24.26
..LN220:
                                # LOE rbx r12 r14 r15 r13d xmm1
..B1.41:                        # Preds ..B1.306
..LN221:
	.loc    4  25  is_stmt 1
        vmovsd    -88(%rbp), %xmm0                              #25.19
..LN222:
        vcomisd   (%r14), %xmm0                                 #25.19
..LN223:
        jbe       ..B1.59       # Prob 10%                      #25.19
..LN224:
                                # LOE rbx r12 r14 r15 r13d xmm1
..B1.42:                        # Preds ..B1.41
..LN225:
	.loc    4  18  is_stmt 1
        movq      48(%rbp), %rax                                #18.5
..LN226:
	.loc    4  25  is_stmt 1
        vmovsd    %xmm1, -128(%rbp)                             #25.35
..LN227:
        movq      %r15, -80(%rbp)                               #25.35
..LN228:
        movq      %r12, %r15                                    #25.35
..LN229:
        movq      %rax, %r12                                    #25.35
..LN230:
                                # LOE rbx r12 r14 r15 r13d
..B1.43:                        # Preds ..B1.57 ..B1.42
..L58:          # optimization report
                # %s was not vectorized: loop control variable %s was found, but loop iteration count cannot be computed before executing the loop
..LN231:
        xorl      %ecx, %ecx                                    #25.35
..LN232:
        movl      $1, %edx                                      #25.35
..LN233:
        cmpq      -64(%rbp), %r15                               #25.35
..LN234:
        cmovl     %edx, %ecx                                    #25.35
..LN235:
        incq      %r15                                          #25.28
..LN236:
        testl     %ecx, %ecx                                    #25.35
..LN237:
        je        ..B1.59       # Prob 20%                      #25.35
..LN238:
                                # LOE rbx r12 r14 r15 r13d
..B1.44:                        # Preds ..B1.43
..LN239:
	.loc    4  29  is_stmt 1
        movl      $.2.47_2_kmpc_loc_struct_pack.238, %edi       #29.13
..LN240:
        movl      %r13d, %esi                                   #29.13
..LN241:
        xorl      %eax, %eax                                    #29.13
..___tag_value_main.59:
..LN242:
        call      __kmpc_barrier                                #29.13
..___tag_value_main.60:
..LN243:
                                # LOE rbx r12 r14 r15 r13d
..B1.45:                        # Preds ..B1.44
..___tag_value_main.61:
..LN244:
	.loc    4  30  is_stmt 1
#       omp_get_wtime()
        call      omp_get_wtime                                 #30.18
..___tag_value_main.62:
..LN245:
                                # LOE rbx r12 r14 r15 r13d xmm0
..B1.307:                       # Preds ..B1.45
..LN246:
        vmovsd    %xmm0, -72(%rbp)                              #30.18
..LN247:
                                # LOE rbx r12 r14 r15 r13d
..B1.46:                        # Preds ..B1.307
..LN248:
	.loc    4  32  is_stmt 1
        movq      -80(%rbp), %rax                               #32.13
..LN249:
        cqto                                                    #32.13
..LN250:
        idivq     %rbx                                          #32.13
..LN251:
        movq      -104(%rbp), %rdi                              #32.13
..LN252:
        movq      %rax, %rsi                                    #32.13
..LN253:
        movq      -112(%rbp), %rdx                              #32.13
..LN254:
        movq      32(%rbp), %rcx                                #32.13
..___tag_value_main.63:
..LN255:
        call      *(%rcx)                                       #32.13
..___tag_value_main.64:
..LN256:
                                # LOE rbx r12 r14 r15 r13d
..B1.47:                        # Preds ..B1.46
..___tag_value_main.65:
..LN257:
	.loc    4  33  is_stmt 1
#       omp_get_wtime()
        call      omp_get_wtime                                 #33.18
..___tag_value_main.66:
..LN258:
                                # LOE rbx r12 r14 r15 r13d xmm0
..B1.48:                        # Preds ..B1.47
..LN259:
	.loc    4  34  is_stmt 1
        movq      (%r12), %rdx                                  #34.13
..LN260:
	.loc    4  35  is_stmt 1
        movl      $.2.47_2_kmpc_loc_struct_pack.246, %edi       #35.13
..LN261:
	.loc    4  34  is_stmt 1
        movq      -96(%rbp), %rcx                               #34.13
..LN262:
	.loc    4  35  is_stmt 1
        movl      %r13d, %esi                                   #35.13
..LN263:
        xorl      %eax, %eax                                    #35.13
..LN264:
	.loc    4  34  is_stmt 1
        vsubsd    -72(%rbp), %xmm0, %xmm0                       #34.38
..LN265:
        vmovsd    %xmm0, (%rdx,%rcx,8)                          #34.13
..___tag_value_main.67:
..LN266:
	.loc    4  35  is_stmt 1
        call      __kmpc_barrier                                #35.13
..___tag_value_main.68:
..LN267:
                                # LOE rbx r12 r14 r15 r13d
..B1.49:                        # Preds ..B1.48
..LN268:
	.loc    4  38  is_stmt 1
        cmpl      $0, -120(%rbp)                                #38.31
..LN269:
        jne       ..B1.56       # Prob 50%                      #38.31
..LN270:
                                # LOE rbx r12 r14 r15 r13d
..B1.50:                        # Preds ..B1.49
..LN271:
	.loc    4  42  is_stmt 1
        xorl      %edx, %edx                                    #42.28
..LN272:
        testq     %rbx, %rbx                                    #42.37
..LN273:
	.loc    4  41  is_stmt 1
        vxorpd    %xmm1, %xmm1, %xmm1                           #41.29
..LN274:
	.loc    4  42  is_stmt 1
        jle       ..B1.54       # Prob 10%                      #42.37
..LN275:
                                # LOE rdx rbx r12 r14 r15 r13d xmm1
..B1.51:                        # Preds ..B1.50
..LN276:
        movq      (%r12), %rax                                  #42.69
..LN277:
        movl      %r13d, -184(%rbp)                             #42.69
..LN278:
        movq      %rax, %r13                                    #42.69
..LN279:
        movq      %r14, -192(%rbp)                              #42.69
..LN280:
        movq      %rdx, %r14                                    #42.69
..LN281:
                                # LOE rbx r12 r13 r14 r15 xmm1
..B1.52:                        # Preds ..B1.309 ..B1.51
..L69:          # optimization report
                # %s was not vectorized: vector dependence prevents vectorization%s
                # VECTOR TRIP COUNT IS ESTIMATED CONSTANT
..LN282:
        vmovapd   %xmm1, %xmm0                                  #42.58
..LN283:
        vmovsd    (%r13,%r14,8), %xmm2                          #42.58
..LN284:
        vmovapd   %xmm2, %xmm1                                  #42.58
..LN285:
        call      fmax                                          #42.58
..LN286:
                                # LOE rbx r12 r13 r14 r15 xmm0
..B1.309:                       # Preds ..B1.52
..LN287:
        incq      %r14                                          #42.48
..LN288:
        vmovapd   %xmm0, %xmm1                                  #42.58
..LN289:
        cmpq      %rbx, %r14                                    #42.37
..LN290:
        jl        ..B1.52       # Prob 82%                      #42.37
..LN291:
                                # LOE rbx r12 r13 r14 r15 xmm1
..B1.53:                        # Preds ..B1.309
..LN292:
        movl      -184(%rbp), %r13d                             #
..LN293:
        movq      -192(%rbp), %r14                              #
..LN294:
                                # LOE rbx r12 r14 r15 r13d xmm1
..B1.54:                        # Preds ..B1.53 ..B1.50
..LN295:
	.loc    4  45  is_stmt 1
        vmovsd    -176(%rbp), %xmm0                             #45.24
..LN296:
        call      fmin                                          #45.24
..LN297:
                                # LOE rbx r12 r14 r15 r13d xmm0
..B1.311:                       # Preds ..B1.54
..LN298:
        vmovsd    %xmm0, -176(%rbp)                             #45.24
..___tag_value_main.70:
..LN299:
	.loc    4  48  is_stmt 1
#       omp_get_wtime()
        call      omp_get_wtime                                 #48.22
..___tag_value_main.71:
..LN300:
                                # LOE rbx r12 r14 r15 r13d xmm0
..B1.55:                        # Preds ..B1.311
..LN301:
        vsubsd    -128(%rbp), %xmm0, %xmm0                      #48.40
..LN302:
        vmovsd    %xmm0, (%r14)                                 #48.17
..LN303:
                                # LOE rbx r12 r14 r15 r13d
..B1.56:                        # Preds ..B1.55 ..B1.49
..LN304:
	.loc    4  51  is_stmt 1
        movl      $.2.47_2_kmpc_loc_struct_pack.254, %edi       #51.13
..LN305:
        movl      %r13d, %esi                                   #51.13
..LN306:
        xorl      %eax, %eax                                    #51.13
..___tag_value_main.72:
..LN307:
        call      __kmpc_barrier                                #51.13
..___tag_value_main.73:
..LN308:
                                # LOE rbx r12 r14 r15 r13d
..B1.57:                        # Preds ..B1.56
..LN309:
	.loc    4  25  is_stmt 1
        vmovsd    -88(%rbp), %xmm0                              #25.19
..LN310:
        vcomisd   (%r14), %xmm0                                 #25.19
..LN311:
        ja        ..B1.43       # Prob 82%                      #25.19
..LN312:
                                # LOE rbx r12 r14 r15 r13d
..B1.59:                        # Preds ..B1.43 ..B1.57 ..B1.41
..LN313:
	.loc    4  55  is_stmt 1
        cmpl      $0, -120(%rbp)                                #55.37
..LN314:
        jne       ..B1.61       # Prob 50%                      #55.37
..LN315:
                                # LOE
..B1.60:                        # Preds ..B1.59
..LN316:
	.loc    4  18  is_stmt 1
        movq      56(%rbp), %rax                                #18.5
..LN317:
	.loc    4  55  is_stmt 1
        vmovsd    -176(%rbp), %xmm0                             #55.40
..LN318:
        vmovsd    %xmm0, (%rax)                                 #55.40
..LN319:
                                # LOE
..B1.61:                        # Preds ..B1.59 ..B1.60
..LN320:
	.loc    4  18  is_stmt 1
        xorl      %eax, %eax                                    #18.5
..LN321:
        movq      -168(%rbp), %r15                              #18.5
	.cfi_restore 15
..LN322:
        movq      -160(%rbp), %r14                              #18.5
	.cfi_restore 14
..LN323:
        movq      -152(%rbp), %r13                              #18.5
	.cfi_restore 13
..LN324:
        movq      -144(%rbp), %r12                              #18.5
	.cfi_restore 12
..LN325:
        movq      -136(%rbp), %rbx                              #18.5
	.cfi_restore 3
..LN326:
	.loc    4  18  epilogue_begin  is_stmt 1
        leave                                                   #18.5
	.cfi_restore 6
..LN327:
        ret                                                     #18.5
	.cfi_offset 3, -152
	.cfi_offset 6, -16
	.cfi_offset 12, -160
	.cfi_offset 13, -168
	.cfi_offset 14, -176
	.cfi_offset 15, -184
..LN328:
                                # LOE
..B1.62:                        # Preds ..B1.30 ..B1.35         # Infreq
..LN329:
        movq      -184(%rbp), %r12                              #
..LN330:
                                # LOE rbx r12 r13 r14 r12d r12b
..B1.63:                        # Preds ..B1.62                 # Infreq
..LN331:
	.loc    1  327  is_stmt 1
        vmovsd    .L_2il0floatpacket.3(%rip), %xmm0             #327.56
..LN332:
        movl      $.L_2__STRING.10, %edi                        #327.5
..LN333:
        vmulsd    -120(%rbp), %xmm0, %xmm0                      #327.5
..LN334:
        movl      $1, %eax                                      #327.5
..___tag_value_main.87:
..LN335:
#       printf(const char *, ...)
        call      printf                                        #327.5
..___tag_value_main.88:
..LN336:
                                # LOE rbx r12 r13 r14 r12d r12b
..B1.64:                        # Preds ..B1.63                 # Infreq
..LN337:
	.loc    1  328  is_stmt 1
        movl      $il0_peep_printf_format_4, %edi               #328.5
..LN338:
        call      puts                                          #328.5
..LN339:
                                # LOE rbx r12 r13 r14 r12d r12b
..B1.65:                        # Preds ..B1.64                 # Infreq
..LN340:
	.loc    4  67  is_stmt 1
        xorl      %r15d, %r15d                                  #67.12
..___tag_value_main.89:
..LN341:
	.loc    4  69  is_stmt 1
#       omp_get_wtime()
        call      omp_get_wtime                                 #69.22
..___tag_value_main.90:
..LN342:
                                # LOE rbx r12 r13 r14 r15 r12d r12b xmm0
..B1.312:                       # Preds ..B1.65                 # Infreq
..LN343:
        vmovsd    %xmm0, -192(%rbp)                             #69.22
..LN344:
        movq      %r12, -184(%rbp)                              #69.22
..LN345:
        movb      $1, %r12b                                     #69.22
..LN346:
                                # LOE rbx r13 r14 r15 r12b
..B1.66:                        # Preds ..B1.73 ..B1.312        # Infreq
..LN347:
	.loc    4  70  is_stmt 1
        movb      %r12b, %al                                    #70.31
..LN348:
        jmp       ..B1.67       # Prob 100%                     #70.31
..LN349:
                                # LOE rbx r13 r14 r15 al r12b
..B1.75:                        # Preds ..B1.73                 # Infreq
..LN350:
        xorb      %al, %al                                      #70.31
..LN351:
                                # LOE rbx r13 r14 r15 al r12b
..B1.67:                        # Preds ..B1.66 ..B1.75         # Infreq
..LN352:
        incq      %r15                                          #70.24
..LN353:
        testb     %al, %al                                      #70.31
..LN354:
        je        ..B1.76       # Prob 20%                      #70.31
..LN355:
                                # LOE rbx r13 r14 r15 r12b
..B1.68:                        # Preds ..B1.67                 # Infreq
..___tag_value_main.91:
..LN356:
	.loc    4  74  is_stmt 1
#       omp_get_wtime()
        call      omp_get_wtime                                 #74.14
..___tag_value_main.92:
..LN357:
                                # LOE rbx r13 r14 r15 r12b
..B1.69:                        # Preds ..B1.68                 # Infreq
..LN358:
	.loc    4  76  is_stmt 1
        movq      %rbx, %rdi                                    #76.9
..LN359:
        movq      %r13, %rsi                                    #76.9
..LN360:
        movq      %r14, %rdx                                    #76.9
..___tag_value_main.93:
..LN361:
#       init(float *, long, long)
        call      _Z4initPfll                                   #76.9
..___tag_value_main.94:
..LN362:
                                # LOE rbx r13 r14 r15 r12b
..B1.70:                        # Preds ..B1.69                 # Infreq
..___tag_value_main.95:
..LN363:
	.loc    4  77  is_stmt 1
#       omp_get_wtime()
        call      omp_get_wtime                                 #77.14
..___tag_value_main.96:
..LN364:
                                # LOE rbx r13 r14 r15 r12b
..B1.71:                        # Preds ..B1.70                 # Infreq
..___tag_value_main.97:
..LN365:
	.loc    4  71  is_stmt 1
#       omp_get_wtime()
        call      omp_get_wtime                                 #71.15
..___tag_value_main.98:
..LN366:
                                # LOE rbx r13 r14 r15 r12b xmm0
..B1.72:                        # Preds ..B1.71                 # Infreq
..LN367:
        vsubsd    -192(%rbp), %xmm0, %xmm1                      #71.33
..LN368:
	.loc    4  70  is_stmt 1
        vmovsd    .L_2il0floatpacket.6(%rip), %xmm0             #70.15
..LN369:
        vcomisd   %xmm1, %xmm0                                  #70.15
..LN370:
        jbe       ..B1.76       # Prob 18%                      #70.15
..LN371:
                                # LOE rbx r13 r14 r15 r12b
..B1.73:                        # Preds ..B1.72                 # Infreq
..L99:          # optimization report
                # %s was not vectorized: loop control variable %s was found, but loop iteration count cannot be computed before executing the loop
..LN372:
        testq     %r15, %r15                                    #70.31
..LN373:
        jle       ..B1.66       # Prob 50%                      #70.31
..LN374:
        jmp       ..B1.75       # Prob 100%                     #70.31
..LN375:
                                # LOE rbx r13 r14 r15 r12b
..B1.76:                        # Preds ..B1.67 ..B1.72         # Infreq
..LN376:
        movq      -184(%rbp), %r12                              #
..LN377:
                                # LOE rbx r12 r13 r14 r12d r12b
..B1.77:                        # Preds ..B1.76                 # Infreq
..LN378:
	.loc    1  332  is_stmt 1
        movq      -128(%rbp), %r15                              #332.21
..LN379:
	.loc    4  67  is_stmt 1
        movq      $0, -192(%rbp)                                #67.12
..___tag_value_main.100:
..LN380:
	.loc    4  69  is_stmt 1
#       omp_get_wtime()
        call      omp_get_wtime                                 #69.22
..___tag_value_main.101:
..LN381:
                                # LOE rbx r12 r13 r14 r15 r12d r12b xmm0
..B1.314:                       # Preds ..B1.77                 # Infreq
..LN382:
        movq      %r12, -184(%rbp)                              #69.22
..LN383:
        vmovsd    %xmm0, -120(%rbp)                             #69.22
..LN384:
        movq      %rbx, -176(%rbp)                              #69.22
..LN385:
        movb      $1, %bl                                       #69.22
..LN386:
        movq      -192(%rbp), %r12                              #69.22
..LN387:
                                # LOE r12 r13 r14 r15 bl
..B1.78:                        # Preds ..B1.85 ..B1.314        # Infreq
..LN388:
	.loc    4  70  is_stmt 1
        movb      %bl, %al                                      #70.31
..LN389:
        jmp       ..B1.79       # Prob 100%                     #70.31
..LN390:
                                # LOE r12 r13 r14 r15 al bl
..B1.87:                        # Preds ..B1.85                 # Infreq
..LN391:
        xorb      %al, %al                                      #70.31
..LN392:
                                # LOE r12 r13 r14 r15 al bl
..B1.79:                        # Preds ..B1.78 ..B1.87         # Infreq
..LN393:
        incq      %r12                                          #70.24
..LN394:
        testb     %al, %al                                      #70.31
..LN395:
        je        ..B1.88       # Prob 20%                      #70.31
..LN396:
                                # LOE r12 r13 r14 r15 bl
..B1.80:                        # Preds ..B1.79                 # Infreq
..___tag_value_main.102:
..LN397:
	.loc    4  74  is_stmt 1
#       omp_get_wtime()
        call      omp_get_wtime                                 #74.14
..___tag_value_main.103:
..LN398:
                                # LOE r12 r13 r14 r15 bl
..B1.81:                        # Preds ..B1.80                 # Infreq
..LN399:
	.loc    4  76  is_stmt 1
        movq      %r15, %rdi                                    #76.9
..LN400:
        movq      %r13, %rsi                                    #76.9
..LN401:
        movq      %r14, %rdx                                    #76.9
..___tag_value_main.104:
..LN402:
#       initMic(float *, long, long)
        call      _Z7initMicPfll                                #76.9
..___tag_value_main.105:
..LN403:
                                # LOE r12 r13 r14 r15 bl
..B1.82:                        # Preds ..B1.81                 # Infreq
..___tag_value_main.106:
..LN404:
	.loc    4  77  is_stmt 1
#       omp_get_wtime()
        call      omp_get_wtime                                 #77.14
..___tag_value_main.107:
..LN405:
                                # LOE r12 r13 r14 r15 bl
..B1.83:                        # Preds ..B1.82                 # Infreq
..___tag_value_main.108:
..LN406:
	.loc    4  71  is_stmt 1
#       omp_get_wtime()
        call      omp_get_wtime                                 #71.15
..___tag_value_main.109:
..LN407:
                                # LOE r12 r13 r14 r15 bl xmm0
..B1.84:                        # Preds ..B1.83                 # Infreq
..LN408:
        vsubsd    -120(%rbp), %xmm0, %xmm1                      #71.33
..LN409:
	.loc    4  70  is_stmt 1
        vmovsd    .L_2il0floatpacket.6(%rip), %xmm0             #70.15
..LN410:
        vcomisd   %xmm1, %xmm0                                  #70.15
..LN411:
        jbe       ..B1.88       # Prob 18%                      #70.15
..LN412:
                                # LOE r12 r13 r14 r15 bl
..B1.85:                        # Preds ..B1.84                 # Infreq
..L110:         # optimization report
                # %s was not vectorized: loop control variable %s was found, but loop iteration count cannot be computed before executing the loop
..LN413:
        testq     %r12, %r12                                    #70.31
..LN414:
        jle       ..B1.78       # Prob 50%                      #70.31
..LN415:
        jmp       ..B1.87       # Prob 100%                     #70.31
..LN416:
                                # LOE r12 r13 r14 r15 bl
..B1.88:                        # Preds ..B1.79 ..B1.84         # Infreq
..LN417:
        movq      -176(%rbp), %rbx                              #
..LN418:
        movq      -184(%rbp), %r12                              #
..LN419:
                                # LOE rbx r12 r13 r14 ebx r12d bl bh r12b
..B1.89:                        # Preds ..B1.88                 # Infreq
..LN420:
	.loc    1  333  is_stmt 1
        movq      -128(%rbp), %rcx                              #333.37
..LN421:
        movq      $0x4014000000000000, %rax                     #333.50
..LN422:
	.loc    4  15  is_stmt 1
        xorl      %r8d, %r8d                                    #15.14
..LN423:
	.loc    4  7  is_stmt 1
        movq      $_Z8overheadPfll, -120(%rbp)                  #7.15
..LN424:
        movq      %r13, -112(%rbp)                              #7.15
..LN425:
        movq      %r14, -104(%rbp)                              #7.15
..LN426:
        movq      %rax, -96(%rbp)                               #7.15
..LN427:
        movq      $100, -88(%rbp)                               #7.15
..LN428:
	.loc    4  14  is_stmt 1
        movq      %rcx, -80(%rbp)                               #14.15
..LN429:
	.loc    4  15  is_stmt 1
        movq      %r8, -72(%rbp)                                #15.14
..LN430:
        movq      %r8, -64(%rbp)                                #15.22
..LN431:
	.loc    4  16  is_stmt 1
#       omp_get_max_threads()
        call      omp_get_max_threads                           #16.19
..LN432:
                                # LOE rbx r12 r13 r14 eax ebx r12d bl bh r12b
..B1.90:                        # Preds ..B1.89                 # Infreq
..LN433:
	.loc    4  17  is_stmt 1
        movslq    %eax, %r15                                    #17.25
..LN434:
        shlq      $3, %r15                                      #17.12
..LN435:
	.loc    4  16  is_stmt 1
        movl      %eax, -16(%rbp)                               #16.17
..LN436:
	.loc    4  17  is_stmt 1
        movq      %r15, %rax                                    #17.12
..LN437:
        addq      $15, %rax                                     #17.12
..LN438:
        andq      $-16, %rax                                    #17.12
..LN439:
        subq      %rax, %rsp                                    #17.12
..LN440:
        movq      %rsp, %rax                                    #17.12
..LN441:
                                # LOE rax rbx r12 r13 r14 r15 ebx r12d bl bh r12b
..B1.91:                        # Preds ..B1.90                 # Infreq
..LN442:
	.loc    4  18  is_stmt 1
        movl      $.2.47_2_kmpc_loc_struct_pack.222, %edi       #18.5
..LN443:
	.loc    4  17  is_stmt 1
        movq      %rax, -56(%rbp)                               #17.12
..LN444:
	.loc    4  18  is_stmt 1
        call      __kmpc_global_thread_num                      #18.5
..LN445:
                                # LOE rbx r12 r13 r14 r15 eax ebx r12d bl bh r12b
..B1.319:                       # Preds ..B1.91                 # Infreq
..LN446:
        movl      %eax, -12(%rbp)                               #18.5
..LN447:
        movl      $.2.47_2_kmpc_loc_struct_pack.262, %edi       #18.5
..LN448:
        xorl      %eax, %eax                                    #18.5
..___tag_value_main.111:
..LN449:
        call      __kmpc_ok_to_fork                             #18.5
..___tag_value_main.112:
..LN450:
                                # LOE rbx r12 r13 r14 r15 eax ebx r12d bl bh r12b
..B1.92:                        # Preds ..B1.319                # Infreq
..LN451:
        testl     %eax, %eax                                    #18.5
..LN452:
        je        ..B1.94       # Prob 50%                      #18.5
..LN453:
                                # LOE rbx r12 r13 r14 r15 ebx r12d bl bh r12b
..B1.93:                        # Preds ..B1.92                 # Infreq
..LN454:
        addq      $-64, %rsp                                    #18.5
	.cfi_escape 0x2e, 0xffffffc0, 0x00
..LN455:
        lea       -64(%rbp), %r10                               #18.5
..LN456:
        movl      $L_main_18__par_region0_2.0, %edx             #18.5
..LN457:
        lea       -96(%rbp), %r11                               #18.5
..LN458:
        movl      $.2.47_2_kmpc_loc_struct_pack.262, %edi       #18.5
..LN459:
        lea       -80(%rbp), %rcx                               #18.5
..LN460:
        movl      $10, %esi                                     #18.5
..LN461:
        lea       -112(%rbp), %r8                               #18.5
..LN462:
        movq      %r10, (%rsp)                                  #18.5
..LN463:
        lea       -16(%rbp), %r9                                #18.5
..LN464:
        movq      %r11, 8(%rsp)                                 #18.5
..LN465:
        lea       -88(%rbp), %r10                               #18.5
..LN466:
        xorl      %eax, %eax                                    #18.5
..LN467:
        lea       -120(%rbp), %r11                              #18.5
..LN468:
        movq      %r10, 16(%rsp)                                #18.5
..LN469:
        lea       -104(%rbp), %r10                              #18.5
..LN470:
        movq      %r11, 24(%rsp)                                #18.5
..LN471:
        movq      %r10, 32(%rsp)                                #18.5
..LN472:
        lea       -56(%rbp), %r10                               #18.5
..LN473:
        movq      %r10, 40(%rsp)                                #18.5
..LN474:
        lea       -72(%rbp), %r10                               #18.5
..LN475:
        movq      %r10, 48(%rsp)                                #18.5
..___tag_value_main.114:
..LN476:
        call      __kmpc_fork_call                              #18.5
..___tag_value_main.115:
..LN477:
                                # LOE rbx r12 r13 r14 r15 ebx r12d bl bh r12b
..B1.320:                       # Preds ..B1.93                 # Infreq
..LN478:
        addq      $64, %rsp                                     #18.5
	.cfi_escape 0x2e, 0x00
..LN479:
        jmp       ..B1.97       # Prob 100%                     #18.5
..LN480:
                                # LOE rbx r12 r13 r14 r15 ebx r12d bl bh r12b
..B1.94:                        # Preds ..B1.92                 # Infreq
..LN481:
        movl      $.2.47_2_kmpc_loc_struct_pack.262, %edi       #18.5
..LN482:
        xorl      %eax, %eax                                    #18.5
..LN483:
        movl      -12(%rbp), %esi                               #18.5
..___tag_value_main.117:
..LN484:
        call      __kmpc_serialized_parallel                    #18.5
..___tag_value_main.118:
..LN485:
                                # LOE rbx r12 r13 r14 r15 ebx r12d bl bh r12b
..B1.95:                        # Preds ..B1.94                 # Infreq
..LN486:
        movl      $___kmpv_zeromain_0, %esi                     #18.5
..LN487:
        lea       -72(%rbp), %r10                               #18.5
..LN488:
        pushq     %r10                                          #18.5
	.cfi_escape 0x2e, 0x08
..LN489:
        lea       -56(%rbp), %r11                               #18.5
..LN490:
        pushq     %r11                                          #18.5
	.cfi_escape 0x2e, 0x10
..LN491:
        lea       -104(%rbp), %r8                               #18.5
..LN492:
        pushq     %r8                                           #18.5
	.cfi_escape 0x2e, 0x18
..LN493:
        lea       -120(%rbp), %r8                               #18.5
..LN494:
        pushq     %r8                                           #18.5
	.cfi_escape 0x2e, 0x20
..LN495:
        lea       -88(%rbp), %r8                                #18.5
..LN496:
        pushq     %r8                                           #18.5
	.cfi_escape 0x2e, 0x28
..LN497:
        lea       -96(%rbp), %r8                                #18.5
..LN498:
        pushq     %r8                                           #18.5
	.cfi_escape 0x2e, 0x30
..LN499:
        lea       -12(%rbp), %rdi                               #18.5
..LN500:
        lea       -80(%rbp), %rdx                               #18.5
..LN501:
        lea       -112(%rbp), %rcx                              #18.5
..LN502:
        lea       -16(%rbp), %r8                                #18.5
..LN503:
        lea       -64(%rbp), %r9                                #18.5
..___tag_value_main.125:
..LN504:
        call      L_main_18__par_region0_2.0                    #18.5
..___tag_value_main.126:
..LN505:
                                # LOE rbx r12 r13 r14 r15 ebx r12d bl bh r12b
..B1.321:                       # Preds ..B1.95                 # Infreq
..LN506:
        addq      $48, %rsp                                     #18.5
	.cfi_escape 0x2e, 0x00
..LN507:
                                # LOE rbx r12 r13 r14 r15 ebx r12d bl bh r12b
..B1.96:                        # Preds ..B1.321                # Infreq
..LN508:
        movl      $.2.47_2_kmpc_loc_struct_pack.262, %edi       #18.5
..LN509:
        xorl      %eax, %eax                                    #18.5
..LN510:
        movl      -12(%rbp), %esi                               #18.5
..___tag_value_main.128:
..LN511:
        call      __kmpc_end_serialized_parallel                #18.5
..___tag_value_main.129:
..LN512:
                                # LOE rbx r12 r13 r14 r15 ebx r12d bl bh r12b
..B1.97:                        # Preds ..B1.320 ..B1.96        # Infreq
..LN513:
	.loc    4  57  is_stmt 1
        movq      %r15, %rax                                    #57.12
..LN514:
        movq      -56(%rbp), %rdx                               #57.12
..LN515:
        vmovsd    -72(%rbp), %xmm0                              #57.12
..LN516:
        addq      $15, %rax                                     #57.12
..LN517:
        andq      $-16, %rax                                    #57.12
..LN518:
        addq      %rax, %rsp                                    #57.12
..LN519:
                                # LOE rbx r12 r13 r14 ebx r12d bl bh r12b xmm0
..B1.98:                        # Preds ..B1.97                 # Infreq
..LN520:
	.loc    1  334  is_stmt 1
        vmulsd    .L_2il0floatpacket.3(%rip), %xmm0, %xmm0      #334.5
..LN521:
        movl      $.L_2__STRING.11, %edi                        #334.5
..LN522:
        movl      $1, %eax                                      #334.5
..___tag_value_main.130:
..LN523:
#       printf(const char *, ...)
        call      printf                                        #334.5
..___tag_value_main.131:
..LN524:
                                # LOE rbx r12 r13 r14 ebx r12d bl bh r12b
..B1.99:                        # Preds ..B1.98                 # Infreq
..LN525:
	.loc    1  336  is_stmt 1
        movq      %r12, %rdi                                    #336.5
..LN526:
        lea       -128(%rbp), %rsi                              #336.5
..___tag_value_main.132:
..LN527:
#       mic::clear(long, float **)
        call      _ZN3mic5clearElPPf                            #336.5
..___tag_value_main.133:
..LN528:
                                # LOE rbx r12 r13 r14 ebx r12d bl bh r12b
..B1.100:                       # Preds ..B1.99                 # Infreq
..LN529:
	.loc    1  337  is_stmt 1
        movq      -128(%rbp), %rax                              #337.21
..LN530:
	.loc    4  67  is_stmt 1
        xorl      %r15d, %r15d                                  #67.12
..LN531:
	.loc    1  337  is_stmt 1
        movq      %rax, -192(%rbp)                              #337.21
..___tag_value_main.134:
..LN532:
	.loc    4  69  is_stmt 1
#       omp_get_wtime()
        call      omp_get_wtime                                 #69.22
..___tag_value_main.135:
..LN533:
                                # LOE rbx r12 r13 r14 r15 ebx r12d bl bh r12b xmm0
..B1.322:                       # Preds ..B1.100                # Infreq
..LN534:
        movq      %rbx, -176(%rbp)                              #69.22
..LN535:
        vmovsd    %xmm0, -48(%rbp)                              #69.22
..LN536:
        movq      %r12, -184(%rbp)                              #69.22
..LN537:
        movb      $1, %r12b                                     #69.22
..LN538:
        movq      -192(%rbp), %rbx                              #69.22
..LN539:
                                # LOE rbx r13 r14 r15 r12b
..B1.101:                       # Preds ..B1.108 ..B1.322       # Infreq
..LN540:
	.loc    4  70  is_stmt 1
        movb      %r12b, %al                                    #70.31
..LN541:
        jmp       ..B1.102      # Prob 100%                     #70.31
..LN542:
                                # LOE rbx r13 r14 r15 al r12b
..B1.110:                       # Preds ..B1.108                # Infreq
..LN543:
        xorb      %al, %al                                      #70.31
..LN544:
                                # LOE rbx r13 r14 r15 al r12b
..B1.102:                       # Preds ..B1.101 ..B1.110       # Infreq
..LN545:
        incq      %r15                                          #70.24
..LN546:
        testb     %al, %al                                      #70.31
..LN547:
        je        ..B1.111      # Prob 20%                      #70.31
..LN548:
                                # LOE rbx r13 r14 r15 r12b
..B1.103:                       # Preds ..B1.102                # Infreq
..___tag_value_main.136:
..LN549:
	.loc    4  74  is_stmt 1
#       omp_get_wtime()
        call      omp_get_wtime                                 #74.14
..___tag_value_main.137:
..LN550:
                                # LOE rbx r13 r14 r15 r12b
..B1.104:                       # Preds ..B1.103                # Infreq
..LN551:
	.loc    4  76  is_stmt 1
        movq      %rbx, %rdi                                    #76.9
..LN552:
        movq      %r13, %rsi                                    #76.9
..LN553:
        movq      %r14, %rdx                                    #76.9
..___tag_value_main.138:
..LN554:
#       initMic(float *, long, long)
        call      _Z7initMicPfll                                #76.9
..___tag_value_main.139:
..LN555:
                                # LOE rbx r13 r14 r15 r12b
..B1.105:                       # Preds ..B1.104                # Infreq
..___tag_value_main.140:
..LN556:
	.loc    4  77  is_stmt 1
#       omp_get_wtime()
        call      omp_get_wtime                                 #77.14
..___tag_value_main.141:
..LN557:
                                # LOE rbx r13 r14 r15 r12b
..B1.106:                       # Preds ..B1.105                # Infreq
..___tag_value_main.142:
..LN558:
	.loc    4  71  is_stmt 1
#       omp_get_wtime()
        call      omp_get_wtime                                 #71.15
..___tag_value_main.143:
..LN559:
                                # LOE rbx r13 r14 r15 r12b xmm0
..B1.107:                       # Preds ..B1.106                # Infreq
..LN560:
        vsubsd    -48(%rbp), %xmm0, %xmm1                       #71.33
..LN561:
	.loc    4  70  is_stmt 1
        vmovsd    .L_2il0floatpacket.6(%rip), %xmm0             #70.15
..LN562:
        vcomisd   %xmm1, %xmm0                                  #70.15
..LN563:
        jbe       ..B1.111      # Prob 18%                      #70.15
..LN564:
                                # LOE rbx r13 r14 r15 r12b
..B1.108:                       # Preds ..B1.107                # Infreq
..L144:         # optimization report
                # %s was not vectorized: loop control variable %s was found, but loop iteration count cannot be computed before executing the loop
..LN565:
        testq     %r15, %r15                                    #70.31
..LN566:
        jle       ..B1.101      # Prob 50%                      #70.31
..LN567:
        jmp       ..B1.110      # Prob 100%                     #70.31
..LN568:
                                # LOE rbx r13 r14 r15 r12b
..B1.111:                       # Preds ..B1.102 ..B1.107       # Infreq
..LN569:
        movq      -176(%rbp), %rbx                              #
..LN570:
        movq      -184(%rbp), %r12                              #
..LN571:
                                # LOE rbx r12 r13 r14 ebx r12d bl bh r12b
..B1.112:                       # Preds ..B1.111                # Infreq
..LN572:
	.loc    1  339  is_stmt 1
        movq      %r13, %rsi                                    #339.17
..LN573:
        movq      %r14, %rdx                                    #339.17
..LN574:
        movq      -128(%rbp), %rdi                              #339.17
..___tag_value_main.145:
..LN575:
#       callSc(float *, long, long)
        call      _Z6callScPfll                                 #339.17
..___tag_value_main.146:
..LN576:
                                # LOE rbx r12 r13 r14 ebx r12d bl bh r12b xmm0
..B1.324:                       # Preds ..B1.112                # Infreq
..LN577:
        vmovsd    %xmm0, -48(%rbp)                              #339.17
..LN578:
                                # LOE rbx r12 r13 r14 ebx r12d bl bh r12b
..B1.113:                       # Preds ..B1.324                # Infreq
..LN579:
	.loc    1  341  is_stmt 1
        vmovsd    .L_2il0floatpacket.3(%rip), %xmm0             #341.5
..LN580:
        movl      $.L_2__STRING.12, %edi                        #341.5
..LN581:
        vmulsd    -48(%rbp), %xmm0, %xmm0                       #341.5
..LN582:
        movl      $1, %eax                                      #341.5
..___tag_value_main.147:
..LN583:
#       printf(const char *, ...)
        call      printf                                        #341.5
..___tag_value_main.148:
..LN584:
                                # LOE rbx r12 r13 r14 ebx r12d bl bh r12b
..B1.114:                       # Preds ..B1.113                # Infreq
..LN585:
	.loc    1  342  is_stmt 1
        movq      -128(%rbp), %r15                              #342.30
..LN586:
	.loc    4  67  is_stmt 1
        movq      $0, -192(%rbp)                                #67.12
..___tag_value_main.149:
..LN587:
	.loc    4  69  is_stmt 1
#       omp_get_wtime()
        call      omp_get_wtime                                 #69.22
..___tag_value_main.150:
..LN588:
                                # LOE rbx r12 r13 r14 r15 ebx r12d bl bh r12b xmm0
..B1.325:                       # Preds ..B1.114                # Infreq
..LN589:
        movq      %r12, -184(%rbp)                              #69.22
..LN590:
        vmovsd    %xmm0, -40(%rbp)                              #69.22
..LN591:
        movq      %rbx, -176(%rbp)                              #69.22
..LN592:
        movb      $1, %bl                                       #69.22
..LN593:
        movq      -192(%rbp), %r12                              #69.22
..LN594:
                                # LOE r12 r13 r14 r15 bl
..B1.115:                       # Preds ..B1.122 ..B1.325       # Infreq
..LN595:
	.loc    4  70  is_stmt 1
        movb      %bl, %al                                      #70.31
..LN596:
        jmp       ..B1.116      # Prob 100%                     #70.31
..LN597:
                                # LOE r12 r13 r14 r15 al bl
..B1.124:                       # Preds ..B1.122                # Infreq
..LN598:
        xorb      %al, %al                                      #70.31
..LN599:
                                # LOE r12 r13 r14 r15 al bl
..B1.116:                       # Preds ..B1.115 ..B1.124       # Infreq
..LN600:
        incq      %r12                                          #70.24
..LN601:
        testb     %al, %al                                      #70.31
..LN602:
        je        ..B1.125      # Prob 20%                      #70.31
..LN603:
                                # LOE r12 r13 r14 r15 bl
..B1.117:                       # Preds ..B1.116                # Infreq
..___tag_value_main.151:
..LN604:
	.loc    4  74  is_stmt 1
#       omp_get_wtime()
        call      omp_get_wtime                                 #74.14
..___tag_value_main.152:
..LN605:
                                # LOE r12 r13 r14 r15 bl
..B1.118:                       # Preds ..B1.117                # Infreq
..LN606:
	.loc    4  76  is_stmt 1
        movq      %r15, %rdi                                    #76.9
..LN607:
        movq      %r13, %rsi                                    #76.9
..LN608:
        movq      %r14, %rdx                                    #76.9
..___tag_value_main.153:
..LN609:
#       debug(float *, long, long)
        call      _Z5debugPfll                                  #76.9
..___tag_value_main.154:
..LN610:
                                # LOE r12 r13 r14 r15 bl
..B1.119:                       # Preds ..B1.118                # Infreq
..___tag_value_main.155:
..LN611:
	.loc    4  77  is_stmt 1
#       omp_get_wtime()
        call      omp_get_wtime                                 #77.14
..___tag_value_main.156:
..LN612:
                                # LOE r12 r13 r14 r15 bl
..B1.120:                       # Preds ..B1.119                # Infreq
..___tag_value_main.157:
..LN613:
	.loc    4  71  is_stmt 1
#       omp_get_wtime()
        call      omp_get_wtime                                 #71.15
..___tag_value_main.158:
..LN614:
                                # LOE r12 r13 r14 r15 bl xmm0
..B1.121:                       # Preds ..B1.120                # Infreq
..LN615:
        vsubsd    -40(%rbp), %xmm0, %xmm1                       #71.33
..LN616:
	.loc    4  70  is_stmt 1
        vmovsd    .L_2il0floatpacket.6(%rip), %xmm0             #70.15
..LN617:
        vcomisd   %xmm1, %xmm0                                  #70.15
..LN618:
        jbe       ..B1.125      # Prob 18%                      #70.15
..LN619:
                                # LOE r12 r13 r14 r15 bl
..B1.122:                       # Preds ..B1.121                # Infreq
..L159:         # optimization report
                # %s was not vectorized: loop control variable %s was found, but loop iteration count cannot be computed before executing the loop
..LN620:
        testq     %r12, %r12                                    #70.31
..LN621:
        jle       ..B1.115      # Prob 50%                      #70.31
..LN622:
        jmp       ..B1.124      # Prob 100%                     #70.31
..LN623:
                                # LOE r12 r13 r14 r15 bl
..B1.125:                       # Preds ..B1.116 ..B1.121       # Infreq
..LN624:
        movq      -176(%rbp), %rbx                              #
..LN625:
        movq      -184(%rbp), %r12                              #
..LN626:
                                # LOE rbx r12 r13 r14 ebx r12d bl bh r12b
..B1.126:                       # Preds ..B1.125                # Infreq
..LN627:
	.loc    1  344  is_stmt 1
        movq      %r12, %rdi                                    #344.5
..LN628:
        lea       -128(%rbp), %rsi                              #344.5
..___tag_value_main.160:
..LN629:
#       mic::clear(long, float **)
        call      _ZN3mic5clearElPPf                            #344.5
..___tag_value_main.161:
..LN630:
                                # LOE rbx r12 r13 r14 ebx r12d bl bh r12b
..B1.127:                       # Preds ..B1.126                # Infreq
..LN631:
	.loc    1  345  is_stmt 1
        movq      -128(%rbp), %r15                              #345.21
..LN632:
	.loc    4  67  is_stmt 1
        movq      $0, -192(%rbp)                                #67.12
..___tag_value_main.162:
..LN633:
	.loc    4  69  is_stmt 1
#       omp_get_wtime()
        call      omp_get_wtime                                 #69.22
..___tag_value_main.163:
..LN634:
                                # LOE rbx r12 r13 r14 r15 ebx r12d bl bh r12b xmm0
..B1.327:                       # Preds ..B1.127                # Infreq
..LN635:
        movq      %r12, -184(%rbp)                              #69.22
..LN636:
        vmovsd    %xmm0, -40(%rbp)                              #69.22
..LN637:
        movq      %rbx, -176(%rbp)                              #69.22
..LN638:
        movb      $1, %bl                                       #69.22
..LN639:
        movq      -192(%rbp), %r12                              #69.22
..LN640:
                                # LOE r12 r13 r14 r15 bl
..B1.128:                       # Preds ..B1.135 ..B1.327       # Infreq
..LN641:
	.loc    4  70  is_stmt 1
        movb      %bl, %al                                      #70.31
..LN642:
        jmp       ..B1.129      # Prob 100%                     #70.31
..LN643:
                                # LOE r12 r13 r14 r15 al bl
..B1.137:                       # Preds ..B1.135                # Infreq
..LN644:
        xorb      %al, %al                                      #70.31
..LN645:
                                # LOE r12 r13 r14 r15 al bl
..B1.129:                       # Preds ..B1.128 ..B1.137       # Infreq
..LN646:
        incq      %r12                                          #70.24
..LN647:
        testb     %al, %al                                      #70.31
..LN648:
        je        ..B1.138      # Prob 20%                      #70.31
..LN649:
                                # LOE r12 r13 r14 r15 bl
..B1.130:                       # Preds ..B1.129                # Infreq
..___tag_value_main.164:
..LN650:
	.loc    4  74  is_stmt 1
#       omp_get_wtime()
        call      omp_get_wtime                                 #74.14
..___tag_value_main.165:
..LN651:
                                # LOE r12 r13 r14 r15 bl
..B1.131:                       # Preds ..B1.130                # Infreq
..LN652:
	.loc    4  76  is_stmt 1
        movq      %r15, %rdi                                    #76.9
..LN653:
        movq      %r13, %rsi                                    #76.9
..LN654:
        movq      %r14, %rdx                                    #76.9
..___tag_value_main.166:
..LN655:
#       initMic(float *, long, long)
        call      _Z7initMicPfll                                #76.9
..___tag_value_main.167:
..LN656:
                                # LOE r12 r13 r14 r15 bl
..B1.132:                       # Preds ..B1.131                # Infreq
..___tag_value_main.168:
..LN657:
	.loc    4  77  is_stmt 1
#       omp_get_wtime()
        call      omp_get_wtime                                 #77.14
..___tag_value_main.169:
..LN658:
                                # LOE r12 r13 r14 r15 bl
..B1.133:                       # Preds ..B1.132                # Infreq
..___tag_value_main.170:
..LN659:
	.loc    4  71  is_stmt 1
#       omp_get_wtime()
        call      omp_get_wtime                                 #71.15
..___tag_value_main.171:
..LN660:
                                # LOE r12 r13 r14 r15 bl xmm0
..B1.134:                       # Preds ..B1.133                # Infreq
..LN661:
        vsubsd    -40(%rbp), %xmm0, %xmm1                       #71.33
..LN662:
	.loc    4  70  is_stmt 1
        vmovsd    .L_2il0floatpacket.6(%rip), %xmm0             #70.15
..LN663:
        vcomisd   %xmm1, %xmm0                                  #70.15
..LN664:
        jbe       ..B1.138      # Prob 18%                      #70.15
..LN665:
                                # LOE r12 r13 r14 r15 bl
..B1.135:                       # Preds ..B1.134                # Infreq
..L172:         # optimization report
                # %s was not vectorized: loop control variable %s was found, but loop iteration count cannot be computed before executing the loop
..LN666:
        testq     %r12, %r12                                    #70.31
..LN667:
        jle       ..B1.128      # Prob 50%                      #70.31
..LN668:
        jmp       ..B1.137      # Prob 100%                     #70.31
..LN669:
                                # LOE r12 r13 r14 r15 bl
..B1.138:                       # Preds ..B1.129 ..B1.134       # Infreq
..LN670:
        movq      -176(%rbp), %rbx                              #
..LN671:
        movq      -184(%rbp), %r12                              #
..LN672:
                                # LOE rbx r12 r13 r14 ebx r12d bl bh r12b
..B1.139:                       # Preds ..B1.138                # Infreq
..LN673:
	.loc    1  346  is_stmt 1
        movq      %r13, %rsi                                    #346.17
..LN674:
        movq      %r14, %rdx                                    #346.17
..LN675:
        movq      -128(%rbp), %rdi                              #346.17
..___tag_value_main.173:
..LN676:
#       callEs(float *, long, long)
        call      _Z6callEsPfll                                 #346.17
..___tag_value_main.174:
..LN677:
                                # LOE rbx r12 r13 r14 ebx r12d bl bh r12b xmm0
..B1.329:                       # Preds ..B1.139                # Infreq
..LN678:
        vmovsd    %xmm0, -40(%rbp)                              #346.17
..LN679:
                                # LOE rbx r12 r13 r14 ebx r12d bl bh r12b
..B1.140:                       # Preds ..B1.329                # Infreq
..LN680:
	.loc    1  348  is_stmt 1
        vmovsd    .L_2il0floatpacket.3(%rip), %xmm0             #348.5
..LN681:
        movl      $.L_2__STRING.13, %edi                        #348.5
..LN682:
        vmulsd    -40(%rbp), %xmm0, %xmm0                       #348.5
..LN683:
        movl      $1, %eax                                      #348.5
..___tag_value_main.175:
..LN684:
#       printf(const char *, ...)
        call      printf                                        #348.5
..___tag_value_main.176:
..LN685:
                                # LOE rbx r12 r13 r14 ebx r12d bl bh r12b
..B1.141:                       # Preds ..B1.140                # Infreq
..LN686:
	.loc    1  349  is_stmt 1
        movq      -128(%rbp), %r15                              #349.30
..LN687:
	.loc    4  67  is_stmt 1
        movq      $0, -192(%rbp)                                #67.12
..___tag_value_main.177:
..LN688:
	.loc    4  69  is_stmt 1
#       omp_get_wtime()
        call      omp_get_wtime                                 #69.22
..___tag_value_main.178:
..LN689:
                                # LOE rbx r12 r13 r14 r15 ebx r12d bl bh r12b xmm0
..B1.330:                       # Preds ..B1.141                # Infreq
..LN690:
        movq      %r12, -184(%rbp)                              #69.22
..LN691:
        vmovsd    %xmm0, -32(%rbp)                              #69.22
..LN692:
        movq      %rbx, -176(%rbp)                              #69.22
..LN693:
        movb      $1, %bl                                       #69.22
..LN694:
        movq      -192(%rbp), %r12                              #69.22
..LN695:
                                # LOE r12 r13 r14 r15 bl
..B1.142:                       # Preds ..B1.149 ..B1.330       # Infreq
..LN696:
	.loc    4  70  is_stmt 1
        movb      %bl, %al                                      #70.31
..LN697:
        jmp       ..B1.143      # Prob 100%                     #70.31
..LN698:
                                # LOE r12 r13 r14 r15 al bl
..B1.151:                       # Preds ..B1.149                # Infreq
..LN699:
        xorb      %al, %al                                      #70.31
..LN700:
                                # LOE r12 r13 r14 r15 al bl
..B1.143:                       # Preds ..B1.142 ..B1.151       # Infreq
..LN701:
        incq      %r12                                          #70.24
..LN702:
        testb     %al, %al                                      #70.31
..LN703:
        je        ..B1.152      # Prob 20%                      #70.31
..LN704:
                                # LOE r12 r13 r14 r15 bl
..B1.144:                       # Preds ..B1.143                # Infreq
..___tag_value_main.179:
..LN705:
	.loc    4  74  is_stmt 1
#       omp_get_wtime()
        call      omp_get_wtime                                 #74.14
..___tag_value_main.180:
..LN706:
                                # LOE r12 r13 r14 r15 bl
..B1.145:                       # Preds ..B1.144                # Infreq
..LN707:
	.loc    4  76  is_stmt 1
        movq      %r15, %rdi                                    #76.9
..LN708:
        movq      %r13, %rsi                                    #76.9
..LN709:
        movq      %r14, %rdx                                    #76.9
..___tag_value_main.181:
..LN710:
#       debug(float *, long, long)
        call      _Z5debugPfll                                  #76.9
..___tag_value_main.182:
..LN711:
                                # LOE r12 r13 r14 r15 bl
..B1.146:                       # Preds ..B1.145                # Infreq
..___tag_value_main.183:
..LN712:
	.loc    4  77  is_stmt 1
#       omp_get_wtime()
        call      omp_get_wtime                                 #77.14
..___tag_value_main.184:
..LN713:
                                # LOE r12 r13 r14 r15 bl
..B1.147:                       # Preds ..B1.146                # Infreq
..___tag_value_main.185:
..LN714:
	.loc    4  71  is_stmt 1
#       omp_get_wtime()
        call      omp_get_wtime                                 #71.15
..___tag_value_main.186:
..LN715:
                                # LOE r12 r13 r14 r15 bl xmm0
..B1.148:                       # Preds ..B1.147                # Infreq
..LN716:
        vsubsd    -32(%rbp), %xmm0, %xmm1                       #71.33
..LN717:
	.loc    4  70  is_stmt 1
        vmovsd    .L_2il0floatpacket.6(%rip), %xmm0             #70.15
..LN718:
        vcomisd   %xmm1, %xmm0                                  #70.15
..LN719:
        jbe       ..B1.152      # Prob 18%                      #70.15
..LN720:
                                # LOE r12 r13 r14 r15 bl
..B1.149:                       # Preds ..B1.148                # Infreq
..L187:         # optimization report
                # %s was not vectorized: loop control variable %s was found, but loop iteration count cannot be computed before executing the loop
..LN721:
        testq     %r12, %r12                                    #70.31
..LN722:
        jle       ..B1.142      # Prob 50%                      #70.31
..LN723:
        jmp       ..B1.151      # Prob 100%                     #70.31
..LN724:
                                # LOE r12 r13 r14 r15 bl
..B1.152:                       # Preds ..B1.143 ..B1.148       # Infreq
..LN725:
        movq      -176(%rbp), %rbx                              #
..LN726:
        movq      -184(%rbp), %r12                              #
..LN727:
                                # LOE rbx r12 r13 r14 ebx r12d bl bh r12b
..B1.153:                       # Preds ..B1.152                # Infreq
..LN728:
	.loc    4  67  is_stmt 1
        xorl      %r15d, %r15d                                  #67.12
..___tag_value_main.188:
..LN729:
	.loc    4  69  is_stmt 1
#       omp_get_wtime()
        call      omp_get_wtime                                 #69.22
..___tag_value_main.189:
..LN730:
                                # LOE rbx r12 r13 r14 r15 ebx r12d bl bh r12b xmm0
..B1.332:                       # Preds ..B1.153                # Infreq
..LN731:
        vmovsd    %xmm0, -192(%rbp)                             #69.22
..LN732:
        movq      %r12, -184(%rbp)                              #69.22
..LN733:
        movb      $1, %r12b                                     #69.22
..LN734:
                                # LOE rbx r13 r14 r15 r12b
..B1.154:                       # Preds ..B1.161 ..B1.332       # Infreq
..LN735:
	.loc    4  70  is_stmt 1
        movb      %r12b, %al                                    #70.31
..LN736:
        jmp       ..B1.155      # Prob 100%                     #70.31
..LN737:
                                # LOE rbx r13 r14 r15 al r12b
..B1.163:                       # Preds ..B1.161                # Infreq
..LN738:
        xorb      %al, %al                                      #70.31
..LN739:
                                # LOE rbx r13 r14 r15 al r12b
..B1.155:                       # Preds ..B1.154 ..B1.163       # Infreq
..LN740:
        incq      %r15                                          #70.24
..LN741:
        testb     %al, %al                                      #70.31
..LN742:
        je        ..B1.164      # Prob 20%                      #70.31
..LN743:
                                # LOE rbx r13 r14 r15 r12b
..B1.156:                       # Preds ..B1.155                # Infreq
..___tag_value_main.190:
..LN744:
	.loc    4  74  is_stmt 1
#       omp_get_wtime()
        call      omp_get_wtime                                 #74.14
..___tag_value_main.191:
..LN745:
                                # LOE rbx r13 r14 r15 r12b
..B1.157:                       # Preds ..B1.156                # Infreq
..LN746:
	.loc    4  76  is_stmt 1
        movq      %rbx, %rdi                                    #76.9
..LN747:
        movq      %r13, %rsi                                    #76.9
..LN748:
        movq      %r14, %rdx                                    #76.9
..___tag_value_main.192:
..LN749:
#       init(float *, long, long)
        call      _Z4initPfll                                   #76.9
..___tag_value_main.193:
..LN750:
                                # LOE rbx r13 r14 r15 r12b
..B1.158:                       # Preds ..B1.157                # Infreq
..___tag_value_main.194:
..LN751:
	.loc    4  77  is_stmt 1
#       omp_get_wtime()
        call      omp_get_wtime                                 #77.14
..___tag_value_main.195:
..LN752:
                                # LOE rbx r13 r14 r15 r12b
..B1.159:                       # Preds ..B1.158                # Infreq
..___tag_value_main.196:
..LN753:
	.loc    4  71  is_stmt 1
#       omp_get_wtime()
        call      omp_get_wtime                                 #71.15
..___tag_value_main.197:
..LN754:
                                # LOE rbx r13 r14 r15 r12b xmm0
..B1.160:                       # Preds ..B1.159                # Infreq
..LN755:
        vsubsd    -192(%rbp), %xmm0, %xmm1                      #71.33
..LN756:
	.loc    4  70  is_stmt 1
        vmovsd    .L_2il0floatpacket.6(%rip), %xmm0             #70.15
..LN757:
        vcomisd   %xmm1, %xmm0                                  #70.15
..LN758:
        jbe       ..B1.164      # Prob 18%                      #70.15
..LN759:
                                # LOE rbx r13 r14 r15 r12b
..B1.161:                       # Preds ..B1.160                # Infreq
..L198:         # optimization report
                # %s was not vectorized: loop control variable %s was found, but loop iteration count cannot be computed before executing the loop
..LN760:
        testq     %r15, %r15                                    #70.31
..LN761:
        jle       ..B1.154      # Prob 50%                      #70.31
..LN762:
        jmp       ..B1.163      # Prob 100%                     #70.31
..LN763:
                                # LOE rbx r13 r14 r15 r12b
..B1.164:                       # Preds ..B1.155 ..B1.160       # Infreq
..LN764:
        movq      -184(%rbp), %r12                              #
..LN765:
                                # LOE rbx r12 r13 r14 r12d r12b
..B1.165:                       # Preds ..B1.164                # Infreq
..LN766:
	.loc    1  352  is_stmt 1
        movq      -128(%rbp), %r15                              #352.21
..LN767:
	.loc    4  67  is_stmt 1
        movq      $0, -192(%rbp)                                #67.12
..___tag_value_main.199:
..LN768:
	.loc    4  69  is_stmt 1
#       omp_get_wtime()
        call      omp_get_wtime                                 #69.22
..___tag_value_main.200:
..LN769:
                                # LOE rbx r12 r13 r14 r15 r12d r12b xmm0
..B1.334:                       # Preds ..B1.165                # Infreq
..LN770:
        movq      %r12, -184(%rbp)                              #69.22
..LN771:
        vmovsd    %xmm0, -32(%rbp)                              #69.22
..LN772:
        movq      %rbx, -176(%rbp)                              #69.22
..LN773:
        movb      $1, %bl                                       #69.22
..LN774:
        movq      -192(%rbp), %r12                              #69.22
..LN775:
                                # LOE r12 r13 r14 r15 bl
..B1.166:                       # Preds ..B1.173 ..B1.334       # Infreq
..LN776:
	.loc    4  70  is_stmt 1
        movb      %bl, %al                                      #70.31
..LN777:
        jmp       ..B1.167      # Prob 100%                     #70.31
..LN778:
                                # LOE r12 r13 r14 r15 al bl
..B1.175:                       # Preds ..B1.173                # Infreq
..LN779:
        xorb      %al, %al                                      #70.31
..LN780:
                                # LOE r12 r13 r14 r15 al bl
..B1.167:                       # Preds ..B1.166 ..B1.175       # Infreq
..LN781:
        incq      %r12                                          #70.24
..LN782:
        testb     %al, %al                                      #70.31
..LN783:
        je        ..B1.176      # Prob 20%                      #70.31
..LN784:
                                # LOE r12 r13 r14 r15 bl
..B1.168:                       # Preds ..B1.167                # Infreq
..___tag_value_main.201:
..LN785:
	.loc    4  74  is_stmt 1
#       omp_get_wtime()
        call      omp_get_wtime                                 #74.14
..___tag_value_main.202:
..LN786:
                                # LOE r12 r13 r14 r15 bl
..B1.169:                       # Preds ..B1.168                # Infreq
..LN787:
	.loc    4  76  is_stmt 1
        movq      %r15, %rdi                                    #76.9
..LN788:
        movq      %r13, %rsi                                    #76.9
..LN789:
        movq      %r14, %rdx                                    #76.9
..___tag_value_main.203:
..LN790:
#       initMic(float *, long, long)
        call      _Z7initMicPfll                                #76.9
..___tag_value_main.204:
..LN791:
                                # LOE r12 r13 r14 r15 bl
..B1.170:                       # Preds ..B1.169                # Infreq
..___tag_value_main.205:
..LN792:
	.loc    4  77  is_stmt 1
#       omp_get_wtime()
        call      omp_get_wtime                                 #77.14
..___tag_value_main.206:
..LN793:
                                # LOE r12 r13 r14 r15 bl
..B1.171:                       # Preds ..B1.170                # Infreq
..___tag_value_main.207:
..LN794:
	.loc    4  71  is_stmt 1
#       omp_get_wtime()
        call      omp_get_wtime                                 #71.15
..___tag_value_main.208:
..LN795:
                                # LOE r12 r13 r14 r15 bl xmm0
..B1.172:                       # Preds ..B1.171                # Infreq
..LN796:
        vsubsd    -32(%rbp), %xmm0, %xmm1                       #71.33
..LN797:
	.loc    4  70  is_stmt 1
        vmovsd    .L_2il0floatpacket.6(%rip), %xmm0             #70.15
..LN798:
        vcomisd   %xmm1, %xmm0                                  #70.15
..LN799:
        jbe       ..B1.176      # Prob 18%                      #70.15
..LN800:
                                # LOE r12 r13 r14 r15 bl
..B1.173:                       # Preds ..B1.172                # Infreq
..L209:         # optimization report
                # %s was not vectorized: loop control variable %s was found, but loop iteration count cannot be computed before executing the loop
..LN801:
        testq     %r12, %r12                                    #70.31
..LN802:
        jle       ..B1.166      # Prob 50%                      #70.31
..LN803:
        jmp       ..B1.175      # Prob 100%                     #70.31
..LN804:
                                # LOE r12 r13 r14 r15 bl
..B1.176:                       # Preds ..B1.167 ..B1.172       # Infreq
..LN805:
        movq      -176(%rbp), %rbx                              #
..LN806:
        movq      -184(%rbp), %r12                              #
..LN807:
                                # LOE rbx r12 r13 r14 ebx r12d bl bh r12b
..B1.177:                       # Preds ..B1.176                # Infreq
..LN808:
	.loc    1  353  is_stmt 1
        movq      %r12, %rdi                                    #353.5
..LN809:
        lea       -128(%rbp), %rsi                              #353.5
..___tag_value_main.210:
..LN810:
#       mic::clear(long, float **)
        call      _ZN3mic5clearElPPf                            #353.5
..___tag_value_main.211:
..LN811:
                                # LOE rbx r12 r13 r14 ebx r12d bl bh r12b
..B1.178:                       # Preds ..B1.177                # Infreq
..LN812:
	.loc    1  354  is_stmt 1
        movq      -128(%rbp), %r15                              #354.21
..LN813:
	.loc    4  67  is_stmt 1
        movq      $0, -192(%rbp)                                #67.12
..___tag_value_main.212:
..LN814:
	.loc    4  69  is_stmt 1
#       omp_get_wtime()
        call      omp_get_wtime                                 #69.22
..___tag_value_main.213:
..LN815:
                                # LOE rbx r12 r13 r14 r15 ebx r12d bl bh r12b xmm0
..B1.336:                       # Preds ..B1.178                # Infreq
..LN816:
        movq      %r12, -184(%rbp)                              #69.22
..LN817:
        vmovsd    %xmm0, -32(%rbp)                              #69.22
..LN818:
        movq      %rbx, -176(%rbp)                              #69.22
..LN819:
        movb      $1, %bl                                       #69.22
..LN820:
        movq      -192(%rbp), %r12                              #69.22
..LN821:
                                # LOE r12 r13 r14 r15 bl
..B1.179:                       # Preds ..B1.186 ..B1.336       # Infreq
..LN822:
	.loc    4  70  is_stmt 1
        movb      %bl, %al                                      #70.31
..LN823:
        jmp       ..B1.180      # Prob 100%                     #70.31
..LN824:
                                # LOE r12 r13 r14 r15 al bl
..B1.188:                       # Preds ..B1.186                # Infreq
..LN825:
        xorb      %al, %al                                      #70.31
..LN826:
                                # LOE r12 r13 r14 r15 al bl
..B1.180:                       # Preds ..B1.179 ..B1.188       # Infreq
..LN827:
        incq      %r12                                          #70.24
..LN828:
        testb     %al, %al                                      #70.31
..LN829:
        je        ..B1.189      # Prob 20%                      #70.31
..LN830:
                                # LOE r12 r13 r14 r15 bl
..B1.181:                       # Preds ..B1.180                # Infreq
..___tag_value_main.214:
..LN831:
	.loc    4  74  is_stmt 1
#       omp_get_wtime()
        call      omp_get_wtime                                 #74.14
..___tag_value_main.215:
..LN832:
                                # LOE r12 r13 r14 r15 bl
..B1.182:                       # Preds ..B1.181                # Infreq
..LN833:
	.loc    4  76  is_stmt 1
        movq      %r15, %rdi                                    #76.9
..LN834:
        movq      %r13, %rsi                                    #76.9
..LN835:
        movq      %r14, %rdx                                    #76.9
..___tag_value_main.216:
..LN836:
#       initMic(float *, long, long)
        call      _Z7initMicPfll                                #76.9
..___tag_value_main.217:
..LN837:
                                # LOE r12 r13 r14 r15 bl
..B1.183:                       # Preds ..B1.182                # Infreq
..___tag_value_main.218:
..LN838:
	.loc    4  77  is_stmt 1
#       omp_get_wtime()
        call      omp_get_wtime                                 #77.14
..___tag_value_main.219:
..LN839:
                                # LOE r12 r13 r14 r15 bl
..B1.184:                       # Preds ..B1.183                # Infreq
..___tag_value_main.220:
..LN840:
	.loc    4  71  is_stmt 1
#       omp_get_wtime()
        call      omp_get_wtime                                 #71.15
..___tag_value_main.221:
..LN841:
                                # LOE r12 r13 r14 r15 bl xmm0
..B1.185:                       # Preds ..B1.184                # Infreq
..LN842:
        vsubsd    -32(%rbp), %xmm0, %xmm1                       #71.33
..LN843:
	.loc    4  70  is_stmt 1
        vmovsd    .L_2il0floatpacket.6(%rip), %xmm0             #70.15
..LN844:
        vcomisd   %xmm1, %xmm0                                  #70.15
..LN845:
        jbe       ..B1.189      # Prob 18%                      #70.15
..LN846:
                                # LOE r12 r13 r14 r15 bl
..B1.186:                       # Preds ..B1.185                # Infreq
..L222:         # optimization report
                # %s was not vectorized: loop control variable %s was found, but loop iteration count cannot be computed before executing the loop
..LN847:
        testq     %r12, %r12                                    #70.31
..LN848:
        jle       ..B1.179      # Prob 50%                      #70.31
..LN849:
        jmp       ..B1.188      # Prob 100%                     #70.31
..LN850:
                                # LOE r12 r13 r14 r15 bl
..B1.189:                       # Preds ..B1.180 ..B1.185       # Infreq
..LN851:
        movq      -176(%rbp), %rbx                              #
..LN852:
        movq      -184(%rbp), %r12                              #
..LN853:
                                # LOE rbx r12 r13 r14 ebx r12d bl bh r12b
..B1.190:                       # Preds ..B1.189                # Infreq
..LN854:
	.loc    1  355  is_stmt 1
        movq      %r13, %rsi                                    #355.17
..LN855:
        movq      %r14, %rdx                                    #355.17
..LN856:
        movq      -128(%rbp), %rdi                              #355.17
..___tag_value_main.223:
..LN857:
#       callEa(float *, long, long)
        call      _Z6callEaPfll                                 #355.17
..___tag_value_main.224:
..LN858:
                                # LOE rbx r12 r13 r14 ebx r12d bl bh r12b xmm0
..B1.338:                       # Preds ..B1.190                # Infreq
..LN859:
        vmovsd    %xmm0, -32(%rbp)                              #355.17
..LN860:
                                # LOE rbx r12 r13 r14 ebx r12d bl bh r12b
..B1.191:                       # Preds ..B1.338                # Infreq
..LN861:
	.loc    1  357  is_stmt 1
        vmovsd    .L_2il0floatpacket.3(%rip), %xmm0             #357.5
..LN862:
        movl      $.L_2__STRING.14, %edi                        #357.5
..LN863:
        vmulsd    -32(%rbp), %xmm0, %xmm0                       #357.5
..LN864:
        movl      $1, %eax                                      #357.5
..___tag_value_main.225:
..LN865:
#       printf(const char *, ...)
        call      printf                                        #357.5
..___tag_value_main.226:
..LN866:
                                # LOE rbx r12 r13 r14 ebx r12d bl bh r12b
..B1.192:                       # Preds ..B1.191                # Infreq
..LN867:
	.loc    1  358  is_stmt 1
        movq      -128(%rbp), %r15                              #358.30
..LN868:
	.loc    4  67  is_stmt 1
        movq      $0, -192(%rbp)                                #67.12
..___tag_value_main.227:
..LN869:
	.loc    4  69  is_stmt 1
#       omp_get_wtime()
        call      omp_get_wtime                                 #69.22
..___tag_value_main.228:
..LN870:
                                # LOE rbx r12 r13 r14 r15 ebx r12d bl bh r12b xmm0
..B1.339:                       # Preds ..B1.192                # Infreq
..LN871:
        movq      %r12, -184(%rbp)                              #69.22
..LN872:
        vmovsd    %xmm0, -24(%rbp)                              #69.22
..LN873:
        movq      %rbx, -176(%rbp)                              #69.22
..LN874:
        movb      $1, %bl                                       #69.22
..LN875:
        movq      -192(%rbp), %r12                              #69.22
..LN876:
                                # LOE r12 r13 r14 r15 bl
..B1.193:                       # Preds ..B1.200 ..B1.339       # Infreq
..LN877:
	.loc    4  70  is_stmt 1
        movb      %bl, %al                                      #70.31
..LN878:
        jmp       ..B1.194      # Prob 100%                     #70.31
..LN879:
                                # LOE r12 r13 r14 r15 al bl
..B1.202:                       # Preds ..B1.200                # Infreq
..LN880:
        xorb      %al, %al                                      #70.31
..LN881:
                                # LOE r12 r13 r14 r15 al bl
..B1.194:                       # Preds ..B1.193 ..B1.202       # Infreq
..LN882:
        incq      %r12                                          #70.24
..LN883:
        testb     %al, %al                                      #70.31
..LN884:
        je        ..B1.203      # Prob 20%                      #70.31
..LN885:
                                # LOE r12 r13 r14 r15 bl
..B1.195:                       # Preds ..B1.194                # Infreq
..___tag_value_main.229:
..LN886:
	.loc    4  74  is_stmt 1
#       omp_get_wtime()
        call      omp_get_wtime                                 #74.14
..___tag_value_main.230:
..LN887:
                                # LOE r12 r13 r14 r15 bl
..B1.196:                       # Preds ..B1.195                # Infreq
..LN888:
	.loc    4  76  is_stmt 1
        movq      %r15, %rdi                                    #76.9
..LN889:
        movq      %r13, %rsi                                    #76.9
..LN890:
        movq      %r14, %rdx                                    #76.9
..___tag_value_main.231:
..LN891:
#       debug(float *, long, long)
        call      _Z5debugPfll                                  #76.9
..___tag_value_main.232:
..LN892:
                                # LOE r12 r13 r14 r15 bl
..B1.197:                       # Preds ..B1.196                # Infreq
..___tag_value_main.233:
..LN893:
	.loc    4  77  is_stmt 1
#       omp_get_wtime()
        call      omp_get_wtime                                 #77.14
..___tag_value_main.234:
..LN894:
                                # LOE r12 r13 r14 r15 bl
..B1.198:                       # Preds ..B1.197                # Infreq
..___tag_value_main.235:
..LN895:
	.loc    4  71  is_stmt 1
#       omp_get_wtime()
        call      omp_get_wtime                                 #71.15
..___tag_value_main.236:
..LN896:
                                # LOE r12 r13 r14 r15 bl xmm0
..B1.199:                       # Preds ..B1.198                # Infreq
..LN897:
        vsubsd    -24(%rbp), %xmm0, %xmm1                       #71.33
..LN898:
	.loc    4  70  is_stmt 1
        vmovsd    .L_2il0floatpacket.6(%rip), %xmm0             #70.15
..LN899:
        vcomisd   %xmm1, %xmm0                                  #70.15
..LN900:
        jbe       ..B1.203      # Prob 18%                      #70.15
..LN901:
                                # LOE r12 r13 r14 r15 bl
..B1.200:                       # Preds ..B1.199                # Infreq
..L237:         # optimization report
                # %s was not vectorized: loop control variable %s was found, but loop iteration count cannot be computed before executing the loop
..LN902:
        testq     %r12, %r12                                    #70.31
..LN903:
        jle       ..B1.193      # Prob 50%                      #70.31
..LN904:
        jmp       ..B1.202      # Prob 100%                     #70.31
..LN905:
                                # LOE r12 r13 r14 r15 bl
..B1.203:                       # Preds ..B1.194 ..B1.199       # Infreq
..LN906:
        movq      -176(%rbp), %rbx                              #
..LN907:
        movq      -184(%rbp), %r12                              #
..LN908:
                                # LOE rbx r12 r13 r14 ebx r12d bl bh r12b
..B1.204:                       # Preds ..B1.203                # Infreq
..LN909:
	.loc    1  360  is_stmt 1
        movq      %r12, %rdi                                    #360.5
..LN910:
        lea       -128(%rbp), %rsi                              #360.5
..___tag_value_main.238:
..LN911:
#       mic::clear(long, float **)
        call      _ZN3mic5clearElPPf                            #360.5
..___tag_value_main.239:
..LN912:
                                # LOE rbx r12 r13 r14 ebx r12d bl bh r12b
..B1.205:                       # Preds ..B1.204                # Infreq
..LN913:
	.loc    1  361  is_stmt 1
        movq      -128(%rbp), %r15                              #361.21
..LN914:
	.loc    4  67  is_stmt 1
        movq      $0, -192(%rbp)                                #67.12
..___tag_value_main.240:
..LN915:
	.loc    4  69  is_stmt 1
#       omp_get_wtime()
        call      omp_get_wtime                                 #69.22
..___tag_value_main.241:
..LN916:
                                # LOE rbx r12 r13 r14 r15 ebx r12d bl bh r12b xmm0
..B1.341:                       # Preds ..B1.205                # Infreq
..LN917:
        movq      %r12, -184(%rbp)                              #69.22
..LN918:
        vmovsd    %xmm0, -24(%rbp)                              #69.22
..LN919:
        movq      %rbx, -176(%rbp)                              #69.22
..LN920:
        movb      $1, %bl                                       #69.22
..LN921:
        movq      -192(%rbp), %r12                              #69.22
..LN922:
                                # LOE r12 r13 r14 r15 bl
..B1.206:                       # Preds ..B1.213 ..B1.341       # Infreq
..LN923:
	.loc    4  70  is_stmt 1
        movb      %bl, %al                                      #70.31
..LN924:
        jmp       ..B1.207      # Prob 100%                     #70.31
..LN925:
                                # LOE r12 r13 r14 r15 al bl
..B1.215:                       # Preds ..B1.213                # Infreq
..LN926:
        xorb      %al, %al                                      #70.31
..LN927:
                                # LOE r12 r13 r14 r15 al bl
..B1.207:                       # Preds ..B1.206 ..B1.215       # Infreq
..LN928:
        incq      %r12                                          #70.24
..LN929:
        testb     %al, %al                                      #70.31
..LN930:
        je        ..B1.216      # Prob 20%                      #70.31
..LN931:
                                # LOE r12 r13 r14 r15 bl
..B1.208:                       # Preds ..B1.207                # Infreq
..___tag_value_main.242:
..LN932:
	.loc    4  74  is_stmt 1
#       omp_get_wtime()
        call      omp_get_wtime                                 #74.14
..___tag_value_main.243:
..LN933:
                                # LOE r12 r13 r14 r15 bl
..B1.209:                       # Preds ..B1.208                # Infreq
..LN934:
	.loc    4  76  is_stmt 1
        movq      %r15, %rdi                                    #76.9
..LN935:
        movq      %r13, %rsi                                    #76.9
..LN936:
        movq      %r14, %rdx                                    #76.9
..___tag_value_main.244:
..LN937:
#       initMic(float *, long, long)
        call      _Z7initMicPfll                                #76.9
..___tag_value_main.245:
..LN938:
                                # LOE r12 r13 r14 r15 bl
..B1.210:                       # Preds ..B1.209                # Infreq
..___tag_value_main.246:
..LN939:
	.loc    4  77  is_stmt 1
#       omp_get_wtime()
        call      omp_get_wtime                                 #77.14
..___tag_value_main.247:
..LN940:
                                # LOE r12 r13 r14 r15 bl
..B1.211:                       # Preds ..B1.210                # Infreq
..___tag_value_main.248:
..LN941:
	.loc    4  71  is_stmt 1
#       omp_get_wtime()
        call      omp_get_wtime                                 #71.15
..___tag_value_main.249:
..LN942:
                                # LOE r12 r13 r14 r15 bl xmm0
..B1.212:                       # Preds ..B1.211                # Infreq
..LN943:
        vsubsd    -24(%rbp), %xmm0, %xmm1                       #71.33
..LN944:
	.loc    4  70  is_stmt 1
        vmovsd    .L_2il0floatpacket.6(%rip), %xmm0             #70.15
..LN945:
        vcomisd   %xmm1, %xmm0                                  #70.15
..LN946:
        jbe       ..B1.216      # Prob 18%                      #70.15
..LN947:
                                # LOE r12 r13 r14 r15 bl
..B1.213:                       # Preds ..B1.212                # Infreq
..L250:         # optimization report
                # %s was not vectorized: loop control variable %s was found, but loop iteration count cannot be computed before executing the loop
..LN948:
        testq     %r12, %r12                                    #70.31
..LN949:
        jle       ..B1.206      # Prob 50%                      #70.31
..LN950:
        jmp       ..B1.215      # Prob 100%                     #70.31
..LN951:
                                # LOE r12 r13 r14 r15 bl
..B1.216:                       # Preds ..B1.207 ..B1.212       # Infreq
..LN952:
        movq      -176(%rbp), %rbx                              #
..LN953:
        movq      -184(%rbp), %r12                              #
..LN954:
                                # LOE rbx r12 r13 r14 ebx r12d bl bh r12b
..B1.217:                       # Preds ..B1.216                # Infreq
..LN955:
	.loc    1  362  is_stmt 1
        movq      %r13, %rsi                                    #362.17
..LN956:
        movq      %r14, %rdx                                    #362.17
..LN957:
        movq      -128(%rbp), %rdi                              #362.17
..___tag_value_main.251:
..LN958:
#       callSi(float *, long, long)
        call      _Z6callSiPfll                                 #362.17
..___tag_value_main.252:
..LN959:
                                # LOE rbx r12 r13 r14 ebx r12d bl bh r12b xmm0
..B1.343:                       # Preds ..B1.217                # Infreq
..LN960:
        vmovsd    %xmm0, -24(%rbp)                              #362.17
..LN961:
                                # LOE rbx r12 r13 r14 ebx r12d bl bh r12b
..B1.218:                       # Preds ..B1.343                # Infreq
..LN962:
	.loc    1  363  is_stmt 1
        vmovsd    .L_2il0floatpacket.3(%rip), %xmm0             #363.5
..LN963:
        movl      $.L_2__STRING.15, %edi                        #363.5
..LN964:
        vmulsd    -24(%rbp), %xmm0, %xmm0                       #363.5
..LN965:
        movl      $1, %eax                                      #363.5
..___tag_value_main.253:
..LN966:
#       printf(const char *, ...)
        call      printf                                        #363.5
..___tag_value_main.254:
..LN967:
                                # LOE rbx r12 r13 r14 ebx r12d bl bh r12b
..B1.219:                       # Preds ..B1.218                # Infreq
..LN968:
	.loc    1  364  is_stmt 1
        movq      -128(%rbp), %r15                              #364.30
..LN969:
	.loc    4  67  is_stmt 1
        movq      $0, -192(%rbp)                                #67.12
..___tag_value_main.255:
..LN970:
	.loc    4  69  is_stmt 1
#       omp_get_wtime()
        call      omp_get_wtime                                 #69.22
..___tag_value_main.256:
..LN971:
                                # LOE rbx r12 r13 r14 r15 ebx r12d bl bh r12b xmm0
..B1.344:                       # Preds ..B1.219                # Infreq
..LN972:
        movq      %r12, -184(%rbp)                              #69.22
..LN973:
        vmovsd    %xmm0, -8(%rbp)                               #69.22
..LN974:
        movq      %rbx, -176(%rbp)                              #69.22
..LN975:
        movb      $1, %bl                                       #69.22
..LN976:
        movq      -192(%rbp), %r12                              #69.22
..LN977:
                                # LOE r12 r13 r14 r15 bl
..B1.220:                       # Preds ..B1.227 ..B1.344       # Infreq
..LN978:
	.loc    4  70  is_stmt 1
        movb      %bl, %al                                      #70.31
..LN979:
        jmp       ..B1.221      # Prob 100%                     #70.31
..LN980:
                                # LOE r12 r13 r14 r15 al bl
..B1.229:                       # Preds ..B1.227                # Infreq
..LN981:
        xorb      %al, %al                                      #70.31
..LN982:
                                # LOE r12 r13 r14 r15 al bl
..B1.221:                       # Preds ..B1.220 ..B1.229       # Infreq
..LN983:
        incq      %r12                                          #70.24
..LN984:
        testb     %al, %al                                      #70.31
..LN985:
        je        ..B1.230      # Prob 20%                      #70.31
..LN986:
                                # LOE r12 r13 r14 r15 bl
..B1.222:                       # Preds ..B1.221                # Infreq
..___tag_value_main.257:
..LN987:
	.loc    4  74  is_stmt 1
#       omp_get_wtime()
        call      omp_get_wtime                                 #74.14
..___tag_value_main.258:
..LN988:
                                # LOE r12 r13 r14 r15 bl
..B1.223:                       # Preds ..B1.222                # Infreq
..LN989:
	.loc    4  76  is_stmt 1
        movq      %r15, %rdi                                    #76.9
..LN990:
        movq      %r13, %rsi                                    #76.9
..LN991:
        movq      %r14, %rdx                                    #76.9
..___tag_value_main.259:
..LN992:
#       debug(float *, long, long)
        call      _Z5debugPfll                                  #76.9
..___tag_value_main.260:
..LN993:
                                # LOE r12 r13 r14 r15 bl
..B1.224:                       # Preds ..B1.223                # Infreq
..___tag_value_main.261:
..LN994:
	.loc    4  77  is_stmt 1
#       omp_get_wtime()
        call      omp_get_wtime                                 #77.14
..___tag_value_main.262:
..LN995:
                                # LOE r12 r13 r14 r15 bl
..B1.225:                       # Preds ..B1.224                # Infreq
..___tag_value_main.263:
..LN996:
	.loc    4  71  is_stmt 1
#       omp_get_wtime()
        call      omp_get_wtime                                 #71.15
..___tag_value_main.264:
..LN997:
                                # LOE r12 r13 r14 r15 bl xmm0
..B1.226:                       # Preds ..B1.225                # Infreq
..LN998:
        vsubsd    -8(%rbp), %xmm0, %xmm1                        #71.33
..LN999:
	.loc    4  70  is_stmt 1
        vmovsd    .L_2il0floatpacket.6(%rip), %xmm0             #70.15
..LN1000:
        vcomisd   %xmm1, %xmm0                                  #70.15
..LN1001:
        jbe       ..B1.230      # Prob 18%                      #70.15
..LN1002:
                                # LOE r12 r13 r14 r15 bl
..B1.227:                       # Preds ..B1.226                # Infreq
..L265:         # optimization report
                # %s was not vectorized: loop control variable %s was found, but loop iteration count cannot be computed before executing the loop
..LN1003:
        testq     %r12, %r12                                    #70.31
..LN1004:
        jle       ..B1.220      # Prob 50%                      #70.31
..LN1005:
        jmp       ..B1.229      # Prob 100%                     #70.31
..LN1006:
                                # LOE r12 r13 r14 r15 bl
..B1.230:                       # Preds ..B1.221 ..B1.226       # Infreq
..LN1007:
        movq      -176(%rbp), %rbx                              #
..LN1008:
        movq      -184(%rbp), %r12                              #
..LN1009:
                                # LOE rbx r12 r13 r14 ebx r12d bl bh r12b
..B1.231:                       # Preds ..B1.230                # Infreq
..LN1010:
	.loc    4  67  is_stmt 1
        xorl      %r15d, %r15d                                  #67.12
..___tag_value_main.266:
..LN1011:
	.loc    4  69  is_stmt 1
#       omp_get_wtime()
        call      omp_get_wtime                                 #69.22
..___tag_value_main.267:
..LN1012:
                                # LOE rbx r12 r13 r14 r15 ebx r12d bl bh r12b xmm0
..B1.346:                       # Preds ..B1.231                # Infreq
..LN1013:
        vmovsd    %xmm0, -192(%rbp)                             #69.22
..LN1014:
        movq      %r12, -184(%rbp)                              #69.22
..LN1015:
        movb      $1, %r12b                                     #69.22
..LN1016:
                                # LOE rbx r13 r14 r15 r12b
..B1.232:                       # Preds ..B1.239 ..B1.346       # Infreq
..LN1017:
	.loc    4  70  is_stmt 1
        movb      %r12b, %al                                    #70.31
..LN1018:
        jmp       ..B1.233      # Prob 100%                     #70.31
..LN1019:
                                # LOE rbx r13 r14 r15 al r12b
..B1.241:                       # Preds ..B1.239                # Infreq
..LN1020:
        xorb      %al, %al                                      #70.31
..LN1021:
                                # LOE rbx r13 r14 r15 al r12b
..B1.233:                       # Preds ..B1.232 ..B1.241       # Infreq
..LN1022:
        incq      %r15                                          #70.24
..LN1023:
        testb     %al, %al                                      #70.31
..LN1024:
        je        ..B1.242      # Prob 20%                      #70.31
..LN1025:
                                # LOE rbx r13 r14 r15 r12b
..B1.234:                       # Preds ..B1.233                # Infreq
..___tag_value_main.268:
..LN1026:
	.loc    4  74  is_stmt 1
#       omp_get_wtime()
        call      omp_get_wtime                                 #74.14
..___tag_value_main.269:
..LN1027:
                                # LOE rbx r13 r14 r15 r12b
..B1.235:                       # Preds ..B1.234                # Infreq
..LN1028:
	.loc    4  76  is_stmt 1
        movq      %rbx, %rdi                                    #76.9
..LN1029:
        movq      %r13, %rsi                                    #76.9
..LN1030:
        movq      %r14, %rdx                                    #76.9
..___tag_value_main.270:
..LN1031:
#       init(float *, long, long)
        call      _Z4initPfll                                   #76.9
..___tag_value_main.271:
..LN1032:
                                # LOE rbx r13 r14 r15 r12b
..B1.236:                       # Preds ..B1.235                # Infreq
..___tag_value_main.272:
..LN1033:
	.loc    4  77  is_stmt 1
#       omp_get_wtime()
        call      omp_get_wtime                                 #77.14
..___tag_value_main.273:
..LN1034:
                                # LOE rbx r13 r14 r15 r12b
..B1.237:                       # Preds ..B1.236                # Infreq
..___tag_value_main.274:
..LN1035:
	.loc    4  71  is_stmt 1
#       omp_get_wtime()
        call      omp_get_wtime                                 #71.15
..___tag_value_main.275:
..LN1036:
                                # LOE rbx r13 r14 r15 r12b xmm0
..B1.238:                       # Preds ..B1.237                # Infreq
..LN1037:
        vsubsd    -192(%rbp), %xmm0, %xmm1                      #71.33
..LN1038:
	.loc    4  70  is_stmt 1
        vmovsd    .L_2il0floatpacket.6(%rip), %xmm0             #70.15
..LN1039:
        vcomisd   %xmm1, %xmm0                                  #70.15
..LN1040:
        jbe       ..B1.242      # Prob 18%                      #70.15
..LN1041:
                                # LOE rbx r13 r14 r15 r12b
..B1.239:                       # Preds ..B1.238                # Infreq
..L276:         # optimization report
                # %s was not vectorized: loop control variable %s was found, but loop iteration count cannot be computed before executing the loop
..LN1042:
        testq     %r15, %r15                                    #70.31
..LN1043:
        jle       ..B1.232      # Prob 50%                      #70.31
..LN1044:
        jmp       ..B1.241      # Prob 100%                     #70.31
..LN1045:
                                # LOE rbx r13 r14 r15 r12b
..B1.242:                       # Preds ..B1.233 ..B1.238       # Infreq
..LN1046:
        movq      -184(%rbp), %r12                              #
..LN1047:
                                # LOE rbx r12 r13 r14 r12d r12b
..B1.243:                       # Preds ..B1.242                # Infreq
..LN1048:
	.loc    1  367  is_stmt 1
        movq      -128(%rbp), %r15                              #367.21
..LN1049:
	.loc    4  67  is_stmt 1
        movq      $0, -192(%rbp)                                #67.12
..___tag_value_main.277:
..LN1050:
	.loc    4  69  is_stmt 1
#       omp_get_wtime()
        call      omp_get_wtime                                 #69.22
..___tag_value_main.278:
..LN1051:
                                # LOE rbx r12 r13 r14 r15 r12d r12b xmm0
..B1.348:                       # Preds ..B1.243                # Infreq
..LN1052:
        movq      %r12, -184(%rbp)                              #69.22
..LN1053:
        vmovsd    %xmm0, -8(%rbp)                               #69.22
..LN1054:
        movq      %rbx, -176(%rbp)                              #69.22
..LN1055:
        movb      $1, %bl                                       #69.22
..LN1056:
        movq      -192(%rbp), %r12                              #69.22
..LN1057:
                                # LOE r12 r13 r14 r15 bl
..B1.244:                       # Preds ..B1.251 ..B1.348       # Infreq
..LN1058:
	.loc    4  70  is_stmt 1
        movb      %bl, %al                                      #70.31
..LN1059:
        jmp       ..B1.245      # Prob 100%                     #70.31
..LN1060:
                                # LOE r12 r13 r14 r15 al bl
..B1.253:                       # Preds ..B1.251                # Infreq
..LN1061:
        xorb      %al, %al                                      #70.31
..LN1062:
                                # LOE r12 r13 r14 r15 al bl
..B1.245:                       # Preds ..B1.244 ..B1.253       # Infreq
..LN1063:
        incq      %r12                                          #70.24
..LN1064:
        testb     %al, %al                                      #70.31
..LN1065:
        je        ..B1.254      # Prob 20%                      #70.31
..LN1066:
                                # LOE r12 r13 r14 r15 bl
..B1.246:                       # Preds ..B1.245                # Infreq
..___tag_value_main.279:
..LN1067:
	.loc    4  74  is_stmt 1
#       omp_get_wtime()
        call      omp_get_wtime                                 #74.14
..___tag_value_main.280:
..LN1068:
                                # LOE r12 r13 r14 r15 bl
..B1.247:                       # Preds ..B1.246                # Infreq
..LN1069:
	.loc    4  76  is_stmt 1
        movq      %r15, %rdi                                    #76.9
..LN1070:
        movq      %r13, %rsi                                    #76.9
..LN1071:
        movq      %r14, %rdx                                    #76.9
..___tag_value_main.281:
..LN1072:
#       initMic(float *, long, long)
        call      _Z7initMicPfll                                #76.9
..___tag_value_main.282:
..LN1073:
                                # LOE r12 r13 r14 r15 bl
..B1.248:                       # Preds ..B1.247                # Infreq
..___tag_value_main.283:
..LN1074:
	.loc    4  77  is_stmt 1
#       omp_get_wtime()
        call      omp_get_wtime                                 #77.14
..___tag_value_main.284:
..LN1075:
                                # LOE r12 r13 r14 r15 bl
..B1.249:                       # Preds ..B1.248                # Infreq
..___tag_value_main.285:
..LN1076:
	.loc    4  71  is_stmt 1
#       omp_get_wtime()
        call      omp_get_wtime                                 #71.15
..___tag_value_main.286:
..LN1077:
                                # LOE r12 r13 r14 r15 bl xmm0
..B1.250:                       # Preds ..B1.249                # Infreq
..LN1078:
        vsubsd    -8(%rbp), %xmm0, %xmm1                        #71.33
..LN1079:
	.loc    4  70  is_stmt 1
        vmovsd    .L_2il0floatpacket.6(%rip), %xmm0             #70.15
..LN1080:
        vcomisd   %xmm1, %xmm0                                  #70.15
..LN1081:
        jbe       ..B1.254      # Prob 18%                      #70.15
..LN1082:
                                # LOE r12 r13 r14 r15 bl
..B1.251:                       # Preds ..B1.250                # Infreq
..L287:         # optimization report
                # %s was not vectorized: loop control variable %s was found, but loop iteration count cannot be computed before executing the loop
..LN1083:
        testq     %r12, %r12                                    #70.31
..LN1084:
        jle       ..B1.244      # Prob 50%                      #70.31
..LN1085:
        jmp       ..B1.253      # Prob 100%                     #70.31
..LN1086:
                                # LOE r12 r13 r14 r15 bl
..B1.254:                       # Preds ..B1.245 ..B1.250       # Infreq
..LN1087:
        movq      -176(%rbp), %rbx                              #
..LN1088:
        movq      -184(%rbp), %r12                              #
..LN1089:
                                # LOE rbx r12 r13 r14 ebx r12d bl bh r12b
..B1.255:                       # Preds ..B1.254                # Infreq
..LN1090:
	.loc    1  377  is_stmt 1
        movl      $il0_peep_printf_format_5, %edi               #377.5
..LN1091:
        call      puts                                          #377.5
..LN1092:
                                # LOE rbx r12 r13 r14 ebx r12d bl bh r12b
..B1.256:                       # Preds ..B1.255                # Infreq
..LN1093:
	.loc    1  380  is_stmt 1
        addq      %r14, %r14                                    #380.59
..LN1094:
        vxorpd    %xmm0, %xmm0, %xmm0                           #380.63
..LN1095:
        imulq     %r14, %r13                                    #380.63
..LN1096:
        vcvtsi2sdq %r13, %xmm0, %xmm0                           #380.63
..LN1097:
        vdivsd    -40(%rbp), %xmm0, %xmm1                       #380.5
..LN1098:
        vmovsd    %xmm0, -192(%rbp)                             #380.63
..LN1099:
        movl      $.L_2__STRING.16, %edi                        #380.5
..LN1100:
        vmulsd    .L_2il0floatpacket.5(%rip), %xmm1, %xmm0      #380.5
..LN1101:
        movl      $1, %eax                                      #380.5
..___tag_value_main.288:
..LN1102:
#       printf(const char *, ...)
        call      printf                                        #380.5
..___tag_value_main.289:
..LN1103:
                                # LOE rbx r12 ebx r12d bl bh r12b
..B1.257:                       # Preds ..B1.256                # Infreq
..LN1104:
	.loc    1  381  is_stmt 1
        vmovsd    -192(%rbp), %xmm0                             #381.5
..LN1105:
        movl      $.L_2__STRING.17, %edi                        #381.5
..LN1106:
        vdivsd    -48(%rbp), %xmm0, %xmm1                       #381.5
..LN1107:
        vmulsd    .L_2il0floatpacket.5(%rip), %xmm1, %xmm0      #381.5
..LN1108:
        movl      $1, %eax                                      #381.5
..___tag_value_main.290:
..LN1109:
#       printf(const char *, ...)
        call      printf                                        #381.5
..___tag_value_main.291:
..LN1110:
                                # LOE rbx r12 ebx r12d bl bh r12b
..B1.258:                       # Preds ..B1.257                # Infreq
..LN1111:
	.loc    1  382  is_stmt 1
        vmovsd    -192(%rbp), %xmm0                             #382.5
..LN1112:
        movl      $.L_2__STRING.18, %edi                        #382.5
..LN1113:
        vdivsd    -32(%rbp), %xmm0, %xmm1                       #382.5
..LN1114:
        vmulsd    .L_2il0floatpacket.5(%rip), %xmm1, %xmm0      #382.5
..LN1115:
        movl      $1, %eax                                      #382.5
..___tag_value_main.292:
..LN1116:
#       printf(const char *, ...)
        call      printf                                        #382.5
..___tag_value_main.293:
..LN1117:
                                # LOE rbx r12 ebx r12d bl bh r12b
..B1.259:                       # Preds ..B1.258                # Infreq
..LN1118:
	.loc    1  383  is_stmt 1
        vmovsd    -192(%rbp), %xmm0                             #383.5
..LN1119:
        movl      $.L_2__STRING.19, %edi                        #383.5
..LN1120:
        vdivsd    -24(%rbp), %xmm0, %xmm1                       #383.5
..LN1121:
        vmulsd    .L_2il0floatpacket.5(%rip), %xmm1, %xmm0      #383.5
..LN1122:
        movl      $1, %eax                                      #383.5
..___tag_value_main.294:
..LN1123:
#       printf(const char *, ...)
        call      printf                                        #383.5
..___tag_value_main.295:
..LN1124:
                                # LOE rbx r12 ebx r12d bl bh r12b
..B1.260:                       # Preds ..B1.259                # Infreq
..LN1125:
	.loc    1  385  is_stmt 1
        movl      $il0_peep_printf_format_6, %edi               #385.5
..LN1126:
        call      puts                                          #385.5
..LN1127:
                                # LOE rbx r12 ebx r12d bl bh r12b
..B1.261:                       # Preds ..B1.260                # Infreq
..LN1128:
	.loc    1  388  is_stmt 1
        vxorpd    %xmm0, %xmm0, %xmm0                           #388.56
..LN1129:
        movl      $.L_2__STRING.20, %edi                        #388.5
..LN1130:
        vcvtsi2sdq %r12, %xmm0, %xmm0                           #388.56
..LN1131:
        vdivsd    -40(%rbp), %xmm0, %xmm1                       #388.5
..LN1132:
        vmovsd    %xmm0, -192(%rbp)                             #388.56
..LN1133:
        movl      $1, %eax                                      #388.5
..LN1134:
        vmulsd    .L_2il0floatpacket.5(%rip), %xmm1, %xmm0      #388.5
..___tag_value_main.296:
..LN1135:
#       printf(const char *, ...)
        call      printf                                        #388.5
..___tag_value_main.297:
..LN1136:
                                # LOE rbx ebx bl bh
..B1.262:                       # Preds ..B1.261                # Infreq
..LN1137:
	.loc    1  389  is_stmt 1
        vmovsd    -192(%rbp), %xmm0                             #389.5
..LN1138:
        movl      $.L_2__STRING.21, %edi                        #389.5
..LN1139:
        vdivsd    -48(%rbp), %xmm0, %xmm1                       #389.5
..LN1140:
        vmulsd    .L_2il0floatpacket.5(%rip), %xmm1, %xmm0      #389.5
..LN1141:
        movl      $1, %eax                                      #389.5
..___tag_value_main.298:
..LN1142:
#       printf(const char *, ...)
        call      printf                                        #389.5
..___tag_value_main.299:
..LN1143:
                                # LOE rbx ebx bl bh
..B1.263:                       # Preds ..B1.262                # Infreq
..LN1144:
	.loc    1  390  is_stmt 1
        vmovsd    -192(%rbp), %xmm0                             #390.5
..LN1145:
        movl      $.L_2__STRING.22, %edi                        #390.5
..LN1146:
        vdivsd    -32(%rbp), %xmm0, %xmm1                       #390.5
..LN1147:
        vmulsd    .L_2il0floatpacket.5(%rip), %xmm1, %xmm0      #390.5
..LN1148:
        movl      $1, %eax                                      #390.5
..___tag_value_main.300:
..LN1149:
#       printf(const char *, ...)
        call      printf                                        #390.5
..___tag_value_main.301:
..LN1150:
                                # LOE rbx ebx bl bh
..B1.264:                       # Preds ..B1.263                # Infreq
..LN1151:
	.loc    1  391  is_stmt 1
        vmovsd    -192(%rbp), %xmm0                             #391.5
..LN1152:
        movl      $.L_2__STRING.23, %edi                        #391.5
..LN1153:
        vdivsd    -24(%rbp), %xmm0, %xmm1                       #391.5
..LN1154:
        vmulsd    .L_2il0floatpacket.5(%rip), %xmm1, %xmm0      #391.5
..LN1155:
        movl      $1, %eax                                      #391.5
..___tag_value_main.302:
..LN1156:
#       printf(const char *, ...)
        call      printf                                        #391.5
..___tag_value_main.303:
..LN1157:
                                # LOE rbx ebx bl bh
..B1.265:                       # Preds ..B1.264                # Infreq
..LN1158:
	.loc    1  393  is_stmt 1
        movl      $il0_peep_printf_format_7, %edi               #393.5
..LN1159:
        call      puts                                          #393.5
..LN1160:
                                # LOE rbx ebx bl bh
..B1.266:                       # Preds ..B1.265                # Infreq
..LN1161:
	.loc    1  396  is_stmt 1
        vmovsd    -48(%rbp), %xmm0                              #396.5
..LN1162:
        movl      $.L_2__STRING.24, %edi                        #396.5
..LN1163:
        vdivsd    -24(%rbp), %xmm0, %xmm0                       #396.5
..LN1164:
        movl      $1, %eax                                      #396.5
..___tag_value_main.304:
..LN1165:
#       printf(const char *, ...)
        call      printf                                        #396.5
..___tag_value_main.305:
..LN1166:
                                # LOE rbx ebx bl bh
..B1.267:                       # Preds ..B1.266                # Infreq
..LN1167:
	.loc    1  397  is_stmt 1
        vmovsd    -48(%rbp), %xmm0                              #397.5
..LN1168:
        movl      $.L_2__STRING.25, %edi                        #397.5
..LN1169:
        vdivsd    -32(%rbp), %xmm0, %xmm0                       #397.5
..LN1170:
        movl      $1, %eax                                      #397.5
..___tag_value_main.306:
..LN1171:
#       printf(const char *, ...)
        call      printf                                        #397.5
..___tag_value_main.307:
..LN1172:
                                # LOE rbx ebx bl bh
..B1.268:                       # Preds ..B1.267                # Infreq
..LN1173:
	.loc    1  399  is_stmt 1
        movl      $il0_peep_printf_format_8, %edi               #399.5
..LN1174:
        call      puts                                          #399.5
..LN1175:
                                # LOE rbx ebx bl bh
..B1.269:                       # Preds ..B1.268                # Infreq
..LN1176:
	.loc    1  402  is_stmt 1
        movq      %rbx, %rdi                                    #402.5
..LN1177:
#       _mm_free(void *)
        call      _mm_free                                      #402.5
..LN1178:
                                # LOE
..B1.270:                       # Preds ..B1.269                # Infreq
..LN1179:
	.loc    1  403  is_stmt 1
        lea       -128(%rbp), %rdi                              #403.5
..___tag_value_main.308:
..LN1180:
#       mic::free(float **)
        call      _ZN3mic4freeEPPf                              #403.5
..___tag_value_main.309:
..LN1181:
                                # LOE
..B1.271:                       # Preds ..B1.270                # Infreq
..LN1182:
	.loc    1  405  is_stmt 1
        movl      $.2.47_2_kmpc_loc_struct_pack.230, %edi       #405.1
..LN1183:
        xorl      %eax, %eax                                    #405.1
..___tag_value_main.310:
..LN1184:
        call      __kmpc_end                                    #405.1
..___tag_value_main.311:
..LN1185:
                                # LOE
..B1.272:                       # Preds ..B1.271                # Infreq
..LN1186:
        movq      -168(%rbp), %r15                              #405.1
	.cfi_restore 15
..LN1187:
        xorl      %eax, %eax                                    #405.1
..LN1188:
        movq      -160(%rbp), %r14                              #405.1
	.cfi_restore 14
..LN1189:
        movq      -152(%rbp), %r13                              #405.1
	.cfi_restore 13
..LN1190:
        movq      -144(%rbp), %r12                              #405.1
	.cfi_restore 12
..LN1191:
        movq      -136(%rbp), %rbx                              #405.1
	.cfi_restore 3
..LN1192:
	.loc    1  405  epilogue_begin  is_stmt 1
        movq      %rbp, %rsp                                    #405.1
..LN1193:
        popq      %rbp                                          #405.1
	.cfi_restore 6
..LN1194:
        ret                                                     #405.1
	.cfi_offset 3, -152
	.cfi_offset 6, -16
	.cfi_offset 12, -160
	.cfi_offset 13, -168
	.cfi_offset 14, -176
	.cfi_offset 15, -184
..LN1195:
                                # LOE
..B1.288:                       # Preds ..B1.23                 # Infreq
..LN1196:
	.loc    2  66  is_stmt 1
        movl      $il0_peep_printf_format_9, %edi               #66.9
..LN1197:
        call      puts                                          #66.9
..LN1198:
                                # LOE
..B1.289:                       # Preds ..B1.288                # Infreq
..LN1199:
	.loc    2  67  is_stmt 1
        xorl      %edi, %edi                                    #67.9
..LN1200:
#       exit(int)
        call      exit                                          #67.9
        .align    16,0x90
	.cfi_endproc
..LN1201:
                                # LOE
..LN1202:
# mark_end;
	.type	main,@function
	.size	main,.-main
..LNmain.1203:
.LNmain:
	.section .gcc_except_table, "a"
	.align 4
main$$LSDA:
	.byte	255
	.byte	0
	.uleb128	..___tag_value_main.332 - ..___tag_value_main.331
..___tag_value_main.331:
	.byte	1
	.uleb128	..___tag_value_main.330 - ..___tag_value_main.329
..___tag_value_main.329:
	.uleb128	..___tag_value_main.13 - ..___tag_value_main.2
	.uleb128	..___tag_value_main.38 - ..___tag_value_main.13
	.byte	0
	.byte	0
	.uleb128	..___tag_value_main.87 - ..___tag_value_main.2
	.uleb128	..___tag_value_main.109 - ..___tag_value_main.87
	.byte	0
	.byte	0
	.uleb128	..___tag_value_main.130 - ..___tag_value_main.2
	.uleb128	..___tag_value_main.311 - ..___tag_value_main.130
	.byte	0
	.byte	0
..___tag_value_main.330:
	.long	0x00000000,0x00000000
..___tag_value_main.332:
	.data
	.align 4
	.align 4
.2.47_2_kmpc_loc_struct_pack.211:
	.long	0
	.long	2
	.long	0
	.long	0
	.quad	.2.47_2__kmpc_loc_pack.210
	.align 4
.2.47_2__kmpc_loc_pack.210:
	.byte	59
	.byte	117
	.byte	110
	.byte	107
	.byte	110
	.byte	111
	.byte	119
	.byte	110
	.byte	59
	.byte	109
	.byte	97
	.byte	105
	.byte	110
	.byte	59
	.byte	51
	.byte	48
	.byte	57
	.byte	59
	.byte	51
	.byte	48
	.byte	57
	.byte	59
	.byte	59
	.space 1, 0x00 	# pad
	.align 4
.2.47_2_kmpc_loc_struct_pack.238:
	.long	0
	.long	34
	.long	0
	.long	0
	.quad	.2.47_2__kmpc_loc_pack.237
	.align 4
.2.47_2__kmpc_loc_pack.237:
	.byte	59
	.byte	117
	.byte	110
	.byte	107
	.byte	110
	.byte	111
	.byte	119
	.byte	110
	.byte	59
	.byte	109
	.byte	97
	.byte	105
	.byte	110
	.byte	59
	.byte	50
	.byte	57
	.byte	59
	.byte	50
	.byte	57
	.byte	59
	.byte	59
	.space 3, 0x00 	# pad
	.align 4
.2.47_2_kmpc_loc_struct_pack.246:
	.long	0
	.long	34
	.long	0
	.long	0
	.quad	.2.47_2__kmpc_loc_pack.245
	.align 4
.2.47_2__kmpc_loc_pack.245:
	.byte	59
	.byte	117
	.byte	110
	.byte	107
	.byte	110
	.byte	111
	.byte	119
	.byte	110
	.byte	59
	.byte	109
	.byte	97
	.byte	105
	.byte	110
	.byte	59
	.byte	51
	.byte	53
	.byte	59
	.byte	51
	.byte	53
	.byte	59
	.byte	59
	.space 3, 0x00 	# pad
	.align 4
.2.47_2_kmpc_loc_struct_pack.254:
	.long	0
	.long	34
	.long	0
	.long	0
	.quad	.2.47_2__kmpc_loc_pack.253
	.align 4
.2.47_2__kmpc_loc_pack.253:
	.byte	59
	.byte	117
	.byte	110
	.byte	107
	.byte	110
	.byte	111
	.byte	119
	.byte	110
	.byte	59
	.byte	109
	.byte	97
	.byte	105
	.byte	110
	.byte	59
	.byte	53
	.byte	49
	.byte	59
	.byte	53
	.byte	49
	.byte	59
	.byte	59
	.space 3, 0x00 	# pad
	.align 4
.2.47_2_kmpc_loc_struct_pack.222:
	.long	0
	.long	2
	.long	0
	.long	0
	.quad	.2.47_2__kmpc_loc_pack.221
	.align 4
.2.47_2__kmpc_loc_pack.221:
	.byte	59
	.byte	117
	.byte	110
	.byte	107
	.byte	110
	.byte	111
	.byte	119
	.byte	110
	.byte	59
	.byte	109
	.byte	97
	.byte	105
	.byte	110
	.byte	59
	.byte	49
	.byte	56
	.byte	59
	.byte	49
	.byte	56
	.byte	59
	.byte	59
	.space 3, 0x00 	# pad
	.align 4
.2.47_2_kmpc_loc_struct_pack.262:
	.long	0
	.long	2
	.long	0
	.long	0
	.quad	.2.47_2__kmpc_loc_pack.261
	.align 4
.2.47_2__kmpc_loc_pack.261:
	.byte	59
	.byte	117
	.byte	110
	.byte	107
	.byte	110
	.byte	111
	.byte	119
	.byte	110
	.byte	59
	.byte	109
	.byte	97
	.byte	105
	.byte	110
	.byte	59
	.byte	49
	.byte	56
	.byte	59
	.byte	53
	.byte	54
	.byte	59
	.byte	59
	.space 3, 0x00 	# pad
	.align 4
.2.47_2_kmpc_loc_struct_pack.230:
	.long	0
	.long	2
	.long	0
	.long	0
	.quad	.2.47_2__kmpc_loc_pack.229
	.align 4
.2.47_2__kmpc_loc_pack.229:
	.byte	59
	.byte	117
	.byte	110
	.byte	107
	.byte	110
	.byte	111
	.byte	119
	.byte	110
	.byte	59
	.byte	109
	.byte	97
	.byte	105
	.byte	110
	.byte	59
	.byte	52
	.byte	48
	.byte	53
	.byte	59
	.byte	52
	.byte	48
	.byte	53
	.byte	59
	.byte	59
	.section .rodata.str1.4, "aMS",@progbits,1
	.align 4
	.align 4
il0_peep_printf_format_0:
	.long	757935405
	.long	757935405
	.long	757935405
	.long	757935405
	.long	757935405
	.long	757935405
	.long	757935405
	.long	757935405
	.long	757935405
	.long	757935405
	.byte	0
	.space 3, 0x00 	# pad
	.align 4
il0_peep_printf_format_1:
	.long	1027423549
	.long	1027423549
	.long	1027423549
	.long	1027423549
	.long	1027423549
	.long	1027423549
	.long	1027423549
	.long	1027423549
	.long	1027423549
	.long	1027423549
	.byte	0
	.space 3, 0x00 	# pad
	.align 4
il0_peep_printf_format_2:
	.long	757935405
	.long	757935405
	.long	757935405
	.long	757935405
	.long	757935405
	.long	757935405
	.long	757935405
	.long	757935405
	.long	757935405
	.long	757935405
	.byte	0
	.space 3, 0x00 	# pad
	.align 4
il0_peep_printf_format_3:
	.long	757935405
	.long	757935405
	.long	757935405
	.long	757935405
	.long	757935405
	.long	757935405
	.long	757935405
	.long	757935405
	.long	757935405
	.long	757935405
	.byte	0
	.space 3, 0x00 	# pad
	.align 4
il0_peep_printf_format_4:
	.long	757935405
	.long	757935405
	.long	757935405
	.long	757935405
	.long	757935405
	.long	757935405
	.long	757935405
	.long	757935405
	.long	757935405
	.long	757935405
	.byte	0
	.space 3, 0x00 	# pad
	.align 4
il0_peep_printf_format_5:
	.long	757935405
	.long	757935405
	.long	757935405
	.long	757935405
	.long	757935405
	.long	757935405
	.long	757935405
	.long	757935405
	.long	757935405
	.long	757935405
	.byte	0
	.space 3, 0x00 	# pad
	.align 4
il0_peep_printf_format_6:
	.long	757935405
	.long	757935405
	.long	757935405
	.long	757935405
	.long	757935405
	.long	757935405
	.long	757935405
	.long	757935405
	.long	757935405
	.long	757935405
	.byte	0
	.space 3, 0x00 	# pad
	.align 4
il0_peep_printf_format_7:
	.long	757935405
	.long	757935405
	.long	757935405
	.long	757935405
	.long	757935405
	.long	757935405
	.long	757935405
	.long	757935405
	.long	757935405
	.long	757935405
	.byte	0
	.space 3, 0x00 	# pad
	.align 4
il0_peep_printf_format_8:
	.long	1027423549
	.long	1027423549
	.long	1027423549
	.long	1027423549
	.long	1027423549
	.long	1027423549
	.long	1027423549
	.long	1027423549
	.long	1027423549
	.long	1027423549
	.byte	0
	.space 3, 0x00 	# pad
	.align 4
il0_peep_printf_format_9:
	.long	1869771365
	.long	540680306
	.long	540159822
	.long	1847620457
	.long	1629516911
	.long	1819634976
	.long	1819306356
	.long	1718558821
	.long	1919448096
	.long	1935958373
	.long	1835627552
	.long	857764709
	.word	50
	.data
	.file   5 "helper_mic.h"
	.file   6 "/zdata/groups/nfsopt/intel/2016/compilers_and_libraries_2016.0.109/linux/compiler/include/stddef.h"
# -- End  main, L_main_18__par_region0_2.0
	.text
.L_2__routine_start__ZN3mic5allocElPPf_1:
# -- Begin  _ZN3mic5allocElPPf
	.text
# mark_begin;
       .align    16,0x90
	.globl _ZN3mic5allocElPPf
# --- mic::alloc(long, float **)
_ZN3mic5allocElPPf:
# parameter 1(size): %rdi
# parameter 2(mem): %rsi
..B2.1:                         # Preds ..B2.0
	.cfi_startproc
	.cfi_personality 0x3,__gxx_personality_v0
..___tag_value__ZN3mic5allocElPPf.334:
..L335:
                                                        #33.5
..LN1204:
	.loc    5  33  is_stmt 1
        subq      $184, %rsp                                    #33.5
	.cfi_def_cfa_offset 192
..LN1205:
	.loc    5  34  prologue_end  is_stmt 1
        movl      $__sd_2inst_string.1, %r8d                    #34.9
..LN1206:
	.loc    5  33  is_stmt 1
        movq      %rsi, 168(%rsp)                               #33.5
..LN1207:
	.loc    5  34  is_stmt 1
        xorl      %esi, %esi                                    #34.9
..LN1208:
	.loc    5  33  is_stmt 1
        movq      %rdi, 160(%rsp)                               #33.5
..LN1209:
	.loc    5  34  is_stmt 1
        movl      $2, %edi                                      #34.9
..LN1210:
        xorl      %edx, %edx                                    #34.9
..LN1211:
        xorl      %ecx, %ecx                                    #34.9
..LN1212:
        movl      $34, %r9d                                     #34.9
..LN1213:
        xorl      %eax, %eax                                    #34.9
..___tag_value__ZN3mic5allocElPPf.338:
..LN1214:
        call      __offload_target_acquire                      #34.9
..___tag_value__ZN3mic5allocElPPf.339:
..LN1215:
                                # LOE rax rbx rbp r12 r13 r14 r15
..B2.9:                         # Preds ..B2.1
..LN1216:
        movq      %rax, %rdi                                    #34.9
..LN1217:
                                # LOE rbx rbp rdi r12 r13 r14 r15
..B2.2:                         # Preds ..B2.9
..LN1218:
        testq     %rdi, %rdi                                    #34.9
..LN1219:
        je        ..B2.4        # Prob 50%                      #34.9
..LN1220:
                                # LOE rbx rbp rdi r12 r13 r14 r15
..B2.3:                         # Preds ..B2.2
..LN1221:
        movl      $128, %eax                                    #34.9
..LN1222:
        lea       32(%rsp), %r8                                 #34.9
..LN1223:
                                # LOE rax rbx rbp rdi r8 r12 r13 r14 r15
..B2.8:                         # Preds ..B2.8 ..B2.3
..LN1224:
        lea       -16+.2.48_2__offload_var_desc1_p.26(%rax), %rdx #34.9
..LN1225:
        vmovups   (%rdx), %xmm0                                 #34.9
..LN1226:
        vmovups   -16(%rdx), %xmm1                              #34.9
..LN1227:
        vmovups   -32(%rdx), %xmm2                              #34.9
..LN1228:
        vmovups   -48(%rdx), %xmm3                              #34.9
..LN1229:
        lea       -16(%r8,%rax), %rcx                           #34.9
..LN1230:
        vmovups   %xmm0, (%rcx)                                 #34.9
..LN1231:
        vmovups   %xmm1, -16(%rcx)                              #34.9
..LN1232:
        vmovups   %xmm2, -32(%rcx)                              #34.9
..LN1233:
        vmovups   %xmm3, -48(%rcx)                              #34.9
..LN1234:
        subq      $64, %rax                                     #34.9
..LN1235:
        jne       ..B2.8        # Prob 50%                      #34.9
..LN1236:
                                # LOE rax rbx rbp rdi r8 r12 r13 r14 r15
..B2.7:                         # Preds ..B2.8
..LN1237:
        movq      $1, 128(%rsp)                                 #34.9
..LN1238:
        lea       168(%rsp), %r10                               #34.9
..LN1239:
        movq      %r10, -16(%r10)                               #34.9
..LN1240:
        lea       (%rsp), %r9                                   #34.9
..LN1241:
        xorl      %r11d, %r11d                                  #34.9
..LN1242:
        lea       160(%r9), %rax                                #34.9
..LN1243:
        addq      $-32, %rsp                                    #34.9
	.cfi_def_cfa_offset 224
..LN1244:
        movl      $__sd_2inst_string.2, %esi                    #34.9
..LN1245:
        vmovups   .2.48_2__offload_var_desc2_p.31(%rip), %xmm0  #34.9
..LN1246:
        xorl      %edx, %edx                                    #34.9
..LN1247:
        vmovups   16+.2.48_2__offload_var_desc2_p.31(%rip), %xmm1 #34.9
..LN1248:
        movl      $2, %ecx                                      #34.9
..LN1249:
        movq      %rax, 56(%r8)                                 #34.9
..LN1250:
        xorl      %eax, %eax                                    #34.9
..LN1251:
        movq      %r11, (%rsp)                                  #34.9
..LN1252:
        movq      %r11, 8(%rsp)                                 #34.9
..LN1253:
        vmovups   %xmm0, (%r9)                                  #34.9
..LN1254:
        vmovups   %xmm1, 16(%r9)                                #34.9
..LN1255:
        movq      %r11, 16(%rsp)                                #34.9
..___tag_value__ZN3mic5allocElPPf.341:
..LN1256:
        call      __offload_offload1                            #34.9
..___tag_value__ZN3mic5allocElPPf.342:
..LN1257:
                                # LOE rbx rbp r12 r13 r14 r15
..B2.10:                        # Preds ..B2.7
..LN1258:
        addq      $32, %rsp                                     #34.9
	.cfi_def_cfa_offset 192
..LN1259:
                                # LOE rbx rbp r12 r13 r14 r15
..B2.4:                         # Preds ..B2.2 ..B2.10
..LN1260:
	.loc    5  38  epilogue_begin  is_stmt 1
        addq      $184, %rsp                                    #38.5
	.cfi_def_cfa_offset 8
..LN1261:
        ret                                                     #38.5
        .align    16,0x90
	.cfi_endproc
..LN1262:
                                # LOE
..LN1263:
# mark_end;
	.type	_ZN3mic5allocElPPf,@function
	.size	_ZN3mic5allocElPPf,.-_ZN3mic5allocElPPf
..LN_ZN3mic5allocElPPf.1264:
.LN_ZN3mic5allocElPPf:
	.data
	.space 1, 0x00 	# pad
	.align 16
.2.48_2__offload_var_desc1_p.26:
	.byte	17
	.byte	1
	.byte	1
	.byte	1
	.long	8
	.long	0
	.long	0
	.long	0x00000000,0x00000000
	.long	0x00000008,0x00000000
	.long	0x00000001,0x00000000
	.long	0x00000000,0x00000000
	.long	0x00000000,0x00000000
	.long	0x00000000,0x00000000
	.byte	34
	.byte	2
	.byte	1
	.byte	1
	.long	8
	.long	0
	.long	0
	.long	0x00000000,0x00000000
	.long	0x00000008,0x00000000
	.long	0x00000001,0x00000000
	.long	0x00000000,0x00000000
	.long	0x00000000,0x00000000
	.long	0x00000000,0x00000000
	.align 16
.2.48_2__offload_var_desc2_p.31:
	.quad	__sd_2inst_string.3
	.long	0x00000000,0x00000000
	.quad	__sd_2inst_string.4
	.long	0x00000000,0x00000000
	.section .rodata, "a"
	.align 8
	.align 4
__sd_2inst_string.0:
	.byte	95
	.byte	95
	.byte	111
	.byte	102
	.byte	102
	.byte	108
	.byte	111
	.byte	97
	.byte	100
	.byte	95
	.byte	101
	.byte	110
	.byte	116
	.byte	114
	.byte	121
	.byte	95
	.byte	104
	.byte	101
	.byte	108
	.byte	112
	.byte	101
	.byte	114
	.byte	95
	.byte	109
	.byte	105
	.byte	99
	.byte	95
	.byte	104
	.byte	95
	.byte	51
	.byte	52
	.byte	97
	.byte	108
	.byte	108
	.byte	111
	.byte	99
	.byte	95
	.byte	54
	.byte	101
	.byte	53
	.byte	50
	.byte	57
	.byte	52
	.byte	53
	.byte	100
	.byte	51
	.byte	99
	.byte	53
	.byte	51
	.byte	57
	.byte	101
	.byte	51
	.byte	98
	.byte	53
	.byte	53
	.byte	51
	.byte	52
	.byte	57
	.byte	99
	.byte	98
	.byte	48
	.byte	98
	.byte	101
	.byte	49
	.byte	56
	.byte	98
	.byte	49
	.byte	55
	.byte	56
	.byte	105
	.byte	99
	.byte	99
	.byte	48
	.byte	49
	.byte	48
	.byte	55
	.byte	54
	.byte	54
	.byte	50
	.byte	56
	.byte	55
	.byte	52
	.byte	55
	.byte	53
	.byte	84
	.byte	56
	.byte	108
	.byte	100
	.byte	117
	.byte	48
	.byte	0
	.space 1, 0x00 	# pad
	.align 4
__sd_2inst_string.1:
	.byte	104
	.byte	101
	.byte	108
	.byte	112
	.byte	101
	.byte	114
	.byte	95
	.byte	109
	.byte	105
	.byte	99
	.byte	46
	.byte	104
	.byte	0
	.space 3, 0x00 	# pad
	.align 4
__sd_2inst_string.2:
	.byte	95
	.byte	95
	.byte	111
	.byte	102
	.byte	102
	.byte	108
	.byte	111
	.byte	97
	.byte	100
	.byte	95
	.byte	101
	.byte	110
	.byte	116
	.byte	114
	.byte	121
	.byte	95
	.byte	104
	.byte	101
	.byte	108
	.byte	112
	.byte	101
	.byte	114
	.byte	95
	.byte	109
	.byte	105
	.byte	99
	.byte	95
	.byte	104
	.byte	95
	.byte	51
	.byte	52
	.byte	97
	.byte	108
	.byte	108
	.byte	111
	.byte	99
	.byte	95
	.byte	54
	.byte	101
	.byte	53
	.byte	50
	.byte	57
	.byte	52
	.byte	53
	.byte	100
	.byte	51
	.byte	99
	.byte	53
	.byte	51
	.byte	57
	.byte	101
	.byte	51
	.byte	98
	.byte	53
	.byte	53
	.byte	51
	.byte	52
	.byte	57
	.byte	99
	.byte	98
	.byte	48
	.byte	98
	.byte	101
	.byte	49
	.byte	56
	.byte	98
	.byte	49
	.byte	55
	.byte	56
	.byte	105
	.byte	99
	.byte	99
	.byte	48
	.byte	49
	.byte	48
	.byte	55
	.byte	54
	.byte	54
	.byte	50
	.byte	56
	.byte	55
	.byte	52
	.byte	55
	.byte	53
	.byte	84
	.byte	56
	.byte	108
	.byte	100
	.byte	117
	.byte	48
	.byte	0
	.space 1, 0x00 	# pad
	.align 4
__sd_2inst_string.3:
	.byte	115
	.byte	105
	.byte	122
	.byte	101
	.byte	0
	.space 3, 0x00 	# pad
	.align 4
__sd_2inst_string.4:
	.byte	109
	.byte	101
	.byte	109
	.byte	0
	.section .OffloadEntryTable., "waG",@progbits,__offload_entry_helper_mic_h_34alloc_6e52945d3c539e3b55349cb0be18b178icc010766287475T8ldu0_$entry,comdat
	.align 16
__offload_entry_helper_mic_h_34alloc_6e52945d3c539e3b55349cb0be18b178icc010766287475T8ldu0_$entry:
	.type	__offload_entry_helper_mic_h_34alloc_6e52945d3c539e3b55349cb0be18b178icc010766287475T8ldu0_$entry,@object
	.size	__offload_entry_helper_mic_h_34alloc_6e52945d3c539e3b55349cb0be18b178icc010766287475T8ldu0_$entry,16
	.quad	__sd_2inst_string.0
	.quad	__sd_2inst_string.0
	.data
# -- End  _ZN3mic5allocElPPf
	.text
.L_2__routine_start__Z8overheadPfll_2:
# -- Begin  _Z8overheadPfll
	.text
# mark_begin;
       .align    16,0x90
	.globl _Z8overheadPfll
# --- overhead(float *, long, long)
_Z8overheadPfll:
# parameter 1(A): %rdi
# parameter 2(N): %rsi
# parameter 3(M): %rdx
..B3.1:                         # Preds ..B3.0
	.cfi_startproc
	.cfi_personality 0x3,__gxx_personality_v0
..___tag_value__Z8overheadPfll.349:
..L350:
                                                        #167.66
..LN1265:
	.loc    1  167  is_stmt 1
        subq      $184, %rsp                                    #167.66
	.cfi_def_cfa_offset 192
..LN1266:
        movq      %rdi, 160(%rsp)                               #167.66
..LN1267:
	.loc    1  168  prologue_end  is_stmt 1
        lea       160(%rsp), %rax                               #168.37
..LN1268:
	.loc    1  167  is_stmt 1
        movq      %rsi, 8(%rax)                                 #167.66
..LN1269:
	.loc    1  168  is_stmt 1
        movq      %rax, 16(%rax)                                #168.34
..LN1270:
                                # LOE rbx rbp r12 r13 r14 r15
..B3.3:                         # Preds ..B3.1
..LN1271:
	.loc    1  170  is_stmt 1
        xorl      %esi, %esi                                    #170.5
..LN1272:
        movl      $2, %edi                                      #170.5
..LN1273:
        xorl      %edx, %edx                                    #170.5
..LN1274:
        xorl      %ecx, %ecx                                    #170.5
..LN1275:
        movl      $__sd_2inst_string.6, %r8d                    #170.5
..LN1276:
        movl      $170, %r9d                                    #170.5
..LN1277:
        xorl      %eax, %eax                                    #170.5
..___tag_value__Z8overheadPfll.353:
..LN1278:
        call      __offload_target_acquire                      #170.5
..___tag_value__Z8overheadPfll.354:
..LN1279:
                                # LOE rax rbx rbp r12 r13 r14 r15
..B3.11:                        # Preds ..B3.3
..LN1280:
        movq      %rax, %rdi                                    #170.5
..LN1281:
                                # LOE rbx rbp rdi r12 r13 r14 r15
..B3.4:                         # Preds ..B3.11
..LN1282:
        testq     %rdi, %rdi                                    #170.5
..LN1283:
        je        ..B3.6        # Prob 50%                      #170.5
..LN1284:
                                # LOE rbx rbp rdi r12 r13 r14 r15
..B3.5:                         # Preds ..B3.4
..LN1285:
        movl      $128, %eax                                    #170.5
..LN1286:
        lea       32(%rsp), %r8                                 #170.5
..LN1287:
                                # LOE rax rbx rbp rdi r8 r12 r13 r14 r15
..B3.10:                        # Preds ..B3.10 ..B3.5
..LN1288:
        lea       -16+.2.49_2__offload_var_desc1_p.26(%rax), %rdx #170.5
..LN1289:
        vmovups   (%rdx), %xmm0                                 #170.5
..LN1290:
        vmovups   -16(%rdx), %xmm1                              #170.5
..LN1291:
        vmovups   -32(%rdx), %xmm2                              #170.5
..LN1292:
        vmovups   -48(%rdx), %xmm3                              #170.5
..LN1293:
        lea       -16(%r8,%rax), %rcx                           #170.5
..LN1294:
        vmovups   %xmm0, (%rcx)                                 #170.5
..LN1295:
        vmovups   %xmm1, -16(%rcx)                              #170.5
..LN1296:
        vmovups   %xmm2, -32(%rcx)                              #170.5
..LN1297:
        vmovups   %xmm3, -48(%rcx)                              #170.5
..LN1298:
        subq      $64, %rax                                     #170.5
..LN1299:
        jne       ..B3.10       # Prob 50%                      #170.5
..LN1300:
                                # LOE rax rbx rbp rdi r8 r12 r13 r14 r15
..B3.9:                         # Preds ..B3.10
..LN1301:
        xorl      %r11d, %r11d                                  #170.5
..LN1302:
        lea       168(%rsp), %r10                               #170.5
..LN1303:
        movq      %r10, -16(%r10)                               #170.5
..LN1304:
        lea       (%rsp), %r9                                   #170.5
..LN1305:
        vmovups   .2.49_2__offload_var_desc2_p.31(%rip), %xmm0  #170.5
..LN1306:
        lea       176(%r9), %rax                                #170.5
..LN1307:
        addq      $-32, %rsp                                    #170.5
	.cfi_def_cfa_offset 224
..LN1308:
        movl      $__sd_2inst_string.7, %esi                    #170.5
..LN1309:
        vmovups   16+.2.49_2__offload_var_desc2_p.31(%rip), %xmm1 #170.5
..LN1310:
        xorl      %edx, %edx                                    #170.5
..LN1311:
        movq      %rax, 56(%r8)                                 #170.5
..LN1312:
        movl      $2, %ecx                                      #170.5
..LN1313:
        xorl      %eax, %eax                                    #170.5
..LN1314:
        movq      %r11, (%rsp)                                  #170.5
..LN1315:
        movq      %r11, 8(%rsp)                                 #170.5
..LN1316:
        vmovups   %xmm0, (%r9)                                  #170.5
..LN1317:
        vmovups   %xmm1, 16(%r9)                                #170.5
..LN1318:
        movq      $1, 32(%r8)                                   #170.5
..LN1319:
        movq      %r11, 16(%rsp)                                #170.5
..___tag_value__Z8overheadPfll.356:
..LN1320:
        call      __offload_offload1                            #170.5
..___tag_value__Z8overheadPfll.357:
..LN1321:
                                # LOE rbx rbp r12 r13 r14 r15
..B3.12:                        # Preds ..B3.9
..LN1322:
        addq      $32, %rsp                                     #170.5
	.cfi_def_cfa_offset 192
..LN1323:
                                # LOE rbx rbp r12 r13 r14 r15
..B3.6:                         # Preds ..B3.4 ..B3.12
..LN1324:
	.loc    1  174  epilogue_begin  is_stmt 1
        addq      $184, %rsp                                    #174.1
	.cfi_def_cfa_offset 8
..LN1325:
        ret                                                     #174.1
        .align    16,0x90
	.cfi_endproc
..LN1326:
                                # LOE
..LN1327:
# mark_end;
	.type	_Z8overheadPfll,@function
	.size	_Z8overheadPfll,.-_Z8overheadPfll
..LN_Z8overheadPfll.1328:
.LN_Z8overheadPfll:
	.data
	.align 16
.2.49_2__offload_var_desc1_p.26:
	.byte	34
	.byte	1
	.byte	1
	.byte	1
	.long	8
	.long	0
	.long	0
	.long	0x00000000,0x00000000
	.long	0x00000008,0x00000000
	.long	0x00000001,0x00000000
	.long	0x00000000,0x00000000
	.long	0x00000000,0x00000000
	.long	0x00000000,0x00000000
	.byte	17
	.byte	3
	.byte	1
	.byte	1
	.long	8
	.long	0
	.long	0
	.long	0x00000000,0x00000000
	.long	0x00000008,0x00000000
	.long	0x00000001,0x00000000
	.long	0x00000000,0x00000000
	.long	0x00000000,0x00000000
	.long	0x00000000,0x00000000
	.align 16
.2.49_2__offload_var_desc2_p.31:
	.quad	__sd_2inst_string.8
	.long	0x00000000,0x00000000
	.quad	__sd_2inst_string.9
	.long	0x00000000,0x00000000
	.section .rodata, "a"
	.align 4
__sd_2inst_string.5:
	.byte	95
	.byte	95
	.byte	111
	.byte	102
	.byte	102
	.byte	108
	.byte	111
	.byte	97
	.byte	100
	.byte	95
	.byte	101
	.byte	110
	.byte	116
	.byte	114
	.byte	121
	.byte	95
	.byte	99
	.byte	111
	.byte	109
	.byte	112
	.byte	117
	.byte	116
	.byte	101
	.byte	98
	.byte	111
	.byte	117
	.byte	110
	.byte	100
	.byte	95
	.byte	99
	.byte	97
	.byte	108
	.byte	117
	.byte	95
	.byte	99
	.byte	112
	.byte	112
	.byte	95
	.byte	49
	.byte	55
	.byte	48
	.byte	111
	.byte	118
	.byte	101
	.byte	114
	.byte	104
	.byte	101
	.byte	97
	.byte	100
	.byte	95
	.byte	52
	.byte	50
	.byte	50
	.byte	48
	.byte	50
	.byte	97
	.byte	49
	.byte	98
	.byte	56
	.byte	54
	.byte	50
	.byte	50
	.byte	102
	.byte	101
	.byte	99
	.byte	54
	.byte	48
	.byte	54
	.byte	102
	.byte	98
	.byte	57
	.byte	99
	.byte	53
	.byte	101
	.byte	56
	.byte	57
	.byte	52
	.byte	97
	.byte	102
	.byte	57
	.byte	98
	.byte	56
	.byte	105
	.byte	99
	.byte	99
	.byte	48
	.byte	49
	.byte	48
	.byte	55
	.byte	54
	.byte	54
	.byte	50
	.byte	56
	.byte	55
	.byte	52
	.byte	55
	.byte	53
	.byte	84
	.byte	56
	.byte	108
	.byte	100
	.byte	117
	.byte	48
	.byte	0
	.align 4
__sd_2inst_string.6:
	.byte	99
	.byte	111
	.byte	109
	.byte	112
	.byte	117
	.byte	116
	.byte	101
	.byte	98
	.byte	111
	.byte	117
	.byte	110
	.byte	100
	.byte	95
	.byte	99
	.byte	97
	.byte	108
	.byte	117
	.byte	46
	.byte	99
	.byte	112
	.byte	112
	.byte	0
	.space 2, 0x00 	# pad
	.align 4
__sd_2inst_string.8:
	.byte	112
	.byte	65
	.byte	95
	.byte	109
	.byte	105
	.byte	99
	.byte	0
	.space 1, 0x00 	# pad
	.align 4
__sd_2inst_string.9:
	.byte	78
	.byte	0
	.space 2, 0x00 	# pad
	.align 4
__sd_2inst_string.7:
	.byte	95
	.byte	95
	.byte	111
	.byte	102
	.byte	102
	.byte	108
	.byte	111
	.byte	97
	.byte	100
	.byte	95
	.byte	101
	.byte	110
	.byte	116
	.byte	114
	.byte	121
	.byte	95
	.byte	99
	.byte	111
	.byte	109
	.byte	112
	.byte	117
	.byte	116
	.byte	101
	.byte	98
	.byte	111
	.byte	117
	.byte	110
	.byte	100
	.byte	95
	.byte	99
	.byte	97
	.byte	108
	.byte	117
	.byte	95
	.byte	99
	.byte	112
	.byte	112
	.byte	95
	.byte	49
	.byte	55
	.byte	48
	.byte	111
	.byte	118
	.byte	101
	.byte	114
	.byte	104
	.byte	101
	.byte	97
	.byte	100
	.byte	95
	.byte	52
	.byte	50
	.byte	50
	.byte	48
	.byte	50
	.byte	97
	.byte	49
	.byte	98
	.byte	56
	.byte	54
	.byte	50
	.byte	50
	.byte	102
	.byte	101
	.byte	99
	.byte	54
	.byte	48
	.byte	54
	.byte	102
	.byte	98
	.byte	57
	.byte	99
	.byte	53
	.byte	101
	.byte	56
	.byte	57
	.byte	52
	.byte	97
	.byte	102
	.byte	57
	.byte	98
	.byte	56
	.byte	105
	.byte	99
	.byte	99
	.byte	48
	.byte	49
	.byte	48
	.byte	55
	.byte	54
	.byte	54
	.byte	50
	.byte	56
	.byte	55
	.byte	52
	.byte	55
	.byte	53
	.byte	84
	.byte	56
	.byte	108
	.byte	100
	.byte	117
	.byte	48
	.byte	0
	.section .OffloadEntryTable., "waG",@progbits,__offload_entry_computebound_calu_cpp_170overhead_42202a1b8622fec606fb9c5e894af9b8icc010766287475T8ldu0_$entry,comdat
	.align 16
__offload_entry_computebound_calu_cpp_170overhead_42202a1b8622fec606fb9c5e894af9b8icc010766287475T8ldu0_$entry:
	.type	__offload_entry_computebound_calu_cpp_170overhead_42202a1b8622fec606fb9c5e894af9b8icc010766287475T8ldu0_$entry,@object
	.size	__offload_entry_computebound_calu_cpp_170overhead_42202a1b8622fec606fb9c5e894af9b8icc010766287475T8ldu0_$entry,16
	.quad	__sd_2inst_string.5
	.quad	__sd_2inst_string.5
	.data
# -- End  _Z8overheadPfll
	.text
.L_2__routine_start__Z6callScPfll_3:
# -- Begin  _Z6callScPfll
	.text
# mark_begin;
       .align    16,0x90
	.globl _Z6callScPfll
# --- callSc(float *, long, long)
_Z6callScPfll:
# parameter 1(A): %rdi
# parameter 2(N): %rsi
# parameter 3(M): %rdx
..B4.1:                         # Preds ..B4.0
	.cfi_startproc
	.cfi_personality 0x3,__gxx_personality_v0
..___tag_value__Z6callScPfll.365:
..L366:
                                                        #118.66
..LN1329:
	.loc    1  118  is_stmt 1
        subq      $360, %rsp                                    #118.66
	.cfi_def_cfa_offset 368
..LN1330:
	.loc    1  121  prologue_end  is_stmt 1
        movl      $__sd_2inst_string.11, %r8d                   #121.5
..LN1331:
	.loc    1  118  is_stmt 1
        movq      %rsi, 328(%rsp)                               #118.66
..LN1332:
	.loc    1  121  is_stmt 1
        xorl      %esi, %esi                                    #121.5
..LN1333:
	.loc    1  118  is_stmt 1
        movq      %rdi, 320(%rsp)                               #118.66
..LN1334:
	.loc    1  119  is_stmt 1
        lea       320(%rsp), %rax                               #119.37
..LN1335:
	.loc    1  118  is_stmt 1
        movq      %rdx, 16(%rax)                                #118.66
..LN1336:
	.loc    1  121  is_stmt 1
        movl      $2, %edi                                      #121.5
..LN1337:
	.loc    1  119  is_stmt 1
        movq      %rax, 24(%rax)                                #119.34
..LN1338:
	.loc    1  121  is_stmt 1
        xorl      %edx, %edx                                    #121.5
..LN1339:
        xorl      %ecx, %ecx                                    #121.5
..LN1340:
        movl      $121, %r9d                                    #121.5
..LN1341:
        xorl      %eax, %eax                                    #121.5
..LN1342:
	.loc    1  120  is_stmt 1
        movq      $0, 352(%rsp)                                 #120.16
..___tag_value__Z6callScPfll.369:
..LN1343:
	.loc    1  121  is_stmt 1
        call      __offload_target_acquire                      #121.5
..___tag_value__Z6callScPfll.370:
..LN1344:
                                # LOE rax rbx rbp r12 r13 r14 r15
..B4.2:                         # Preds ..B4.1
..LN1345:
        testq     %rax, %rax                                    #121.5
..LN1346:
        je        ..B4.4        # Prob 50%                      #121.5
..LN1347:
                                # LOE rax rbx rbp r12 r13 r14 r15
..B4.3:                         # Preds ..B4.2
..LN1348:
        movl      $256, %edx                                    #121.5
..LN1349:
        lea       64(%rsp), %r8                                 #121.5
..LN1350:
                                # LOE rax rdx rbx rbp r8 r12 r13 r14 r15
..B4.8:                         # Preds ..B4.8 ..B4.3
..LN1351:
        lea       -16+.2.50_2__offload_var_desc1_p.28(%rdx), %rcx #121.5
..LN1352:
        vmovups   (%rcx), %xmm0                                 #121.5
..LN1353:
        vmovups   -16(%rcx), %xmm1                              #121.5
..LN1354:
        vmovups   -32(%rcx), %xmm2                              #121.5
..LN1355:
        vmovups   -48(%rcx), %xmm3                              #121.5
..LN1356:
        lea       -16(%r8,%rdx), %rsi                           #121.5
..LN1357:
        vmovups   %xmm0, (%rsi)                                 #121.5
..LN1358:
        vmovups   %xmm1, -16(%rsi)                              #121.5
..LN1359:
        vmovups   %xmm2, -32(%rsi)                              #121.5
..LN1360:
        vmovups   %xmm3, -48(%rsi)                              #121.5
..LN1361:
        subq      $64, %rdx                                     #121.5
..LN1362:
        jne       ..B4.8        # Prob 75%                      #121.5
..LN1363:
                                # LOE rax rdx rbx rbp r8 r12 r13 r14 r15
..B4.7:                         # Preds ..B4.8
..LN1364:
        vmovups   .2.50_2__offload_var_desc2_p.33(%rip), %xmm0  #121.5
..LN1365:
        lea       352(%rsp), %r11                               #121.5
..LN1366:
        movq      %r11, -168(%r11)                              #121.5
..LN1367:
        lea       -24(%r11), %rdx                               #121.5
..LN1368:
        movq      %rdx, -80(%rdx)                               #121.5
..LN1369:
        lea       8(%rdx), %rcx                                 #121.5
..LN1370:
        movq      %rcx, -16(%rdx)                               #121.5
..LN1371:
        lea       (%rsp), %r9                                   #121.5
..LN1372:
        lea       16+.2.50_2__offload_var_desc2_p.33(%rip), %rcx #121.5
..LN1373:
        vmovups   (%rcx), %xmm1                                 #121.5
..LN1374:
        lea       16(%rdx), %r10                                #121.5
..LN1375:
        addq      $-32, %rsp                                    #121.5
	.cfi_def_cfa_offset 400
..LN1376:
        movl      $__sd_2inst_string.12, %esi                   #121.5
..LN1377:
        movq      %r10, 56(%r8)                                 #121.5
..LN1378:
        xorl      %r10d, %r10d                                  #121.5
..LN1379:
        vmovups   16(%rcx), %xmm2                               #121.5
..LN1380:
        movq      %rax, %rdi                                    #121.5
..LN1381:
        vmovups   32(%rcx), %xmm3                               #121.5
..LN1382:
        xorl      %edx, %edx                                    #121.5
..LN1383:
        movl      $4, %ecx                                      #121.5
..LN1384:
        xorl      %eax, %eax                                    #121.5
..LN1385:
        movq      %r10, (%rsp)                                  #121.5
..LN1386:
        movq      %r10, 8(%rsp)                                 #121.5
..LN1387:
        vmovups   %xmm0, (%r9)                                  #121.5
..LN1388:
        vmovups   %xmm1, 16(%r9)                                #121.5
..LN1389:
        vmovups   %xmm2, 32(%r9)                                #121.5
..LN1390:
        vmovups   %xmm3, 48(%r9)                                #121.5
..LN1391:
        movq      $1, 32(%r8)                                   #121.5
..LN1392:
        movq      %r10, 16(%rsp)                                #121.5
..___tag_value__Z6callScPfll.372:
..LN1393:
        call      __offload_offload1                            #121.5
..___tag_value__Z6callScPfll.373:
..LN1394:
                                # LOE rbx rbp r12 r13 r14 r15
..B4.10:                        # Preds ..B4.7
..LN1395:
        addq      $32, %rsp                                     #121.5
	.cfi_def_cfa_offset 368
..LN1396:
                                # LOE rbx rbp r12 r13 r14 r15
..B4.4:                         # Preds ..B4.2 ..B4.10
..LN1397:
	.loc    1  128  is_stmt 1
        vmovsd    352(%rsp), %xmm0                              #128.12
..LN1398:
	.loc    1  128  epilogue_begin  is_stmt 1
        addq      $360, %rsp                                    #128.12
	.cfi_def_cfa_offset 8
..LN1399:
        ret                                                     #128.12
        .align    16,0x90
	.cfi_endproc
..LN1400:
                                # LOE
..LN1401:
# mark_end;
	.type	_Z6callScPfll,@function
	.size	_Z6callScPfll,.-_Z6callScPfll
..LN_Z6callScPfll.1402:
.LN_Z6callScPfll:
	.data
	.align 16
.2.50_2__offload_var_desc1_p.28:
	.byte	34
	.byte	1
	.byte	1
	.byte	1
	.long	8
	.long	0
	.long	0
	.long	0x00000000,0x00000000
	.long	0x00000008,0x00000000
	.long	0x00000001,0x00000000
	.long	0x00000000,0x00000000
	.long	0x00000000,0x00000000
	.long	0x00000000,0x00000000
	.byte	17
	.byte	3
	.byte	1
	.byte	1
	.long	8
	.long	0
	.long	0
	.long	0x00000000,0x00000000
	.long	0x00000008,0x00000000
	.long	0x00000001,0x00000000
	.long	0x00000000,0x00000000
	.long	0x00000000,0x00000000
	.long	0x00000000,0x00000000
	.byte	17
	.byte	3
	.byte	1
	.byte	1
	.long	8
	.long	0
	.long	0
	.long	0x00000000,0x00000000
	.long	0x00000008,0x00000000
	.long	0x00000001,0x00000000
	.long	0x00000000,0x00000000
	.long	0x00000000,0x00000000
	.long	0x00000000,0x00000000
	.byte	17
	.byte	3
	.byte	1
	.byte	1
	.long	8
	.long	0
	.long	0
	.long	0x00000000,0x00000000
	.long	0x00000008,0x00000000
	.long	0x00000001,0x00000000
	.long	0x00000000,0x00000000
	.long	0x00000000,0x00000000
	.long	0x00000000,0x00000000
	.align 16
.2.50_2__offload_var_desc2_p.33:
	.quad	__sd_2inst_string.13
	.long	0x00000000,0x00000000
	.quad	__sd_2inst_string.14
	.long	0x00000000,0x00000000
	.quad	__sd_2inst_string.15
	.long	0x00000000,0x00000000
	.quad	__sd_2inst_string.16
	.long	0x00000000,0x00000000
	.section .rodata, "a"
	.align 4
__sd_2inst_string.10:
	.byte	95
	.byte	95
	.byte	111
	.byte	102
	.byte	102
	.byte	108
	.byte	111
	.byte	97
	.byte	100
	.byte	95
	.byte	101
	.byte	110
	.byte	116
	.byte	114
	.byte	121
	.byte	95
	.byte	99
	.byte	111
	.byte	109
	.byte	112
	.byte	117
	.byte	116
	.byte	101
	.byte	98
	.byte	111
	.byte	117
	.byte	110
	.byte	100
	.byte	95
	.byte	99
	.byte	97
	.byte	108
	.byte	117
	.byte	95
	.byte	99
	.byte	112
	.byte	112
	.byte	95
	.byte	49
	.byte	50
	.byte	49
	.byte	99
	.byte	97
	.byte	108
	.byte	108
	.byte	83
	.byte	99
	.byte	95
	.byte	98
	.byte	97
	.byte	98
	.byte	53
	.byte	57
	.byte	98
	.byte	53
	.byte	100
	.byte	97
	.byte	55
	.byte	101
	.byte	51
	.byte	102
	.byte	50
	.byte	98
	.byte	102
	.byte	52
	.byte	98
	.byte	97
	.byte	53
	.byte	55
	.byte	57
	.byte	99
	.byte	48
	.byte	97
	.byte	52
	.byte	48
	.byte	52
	.byte	56
	.byte	97
	.byte	101
	.byte	56
	.byte	105
	.byte	99
	.byte	99
	.byte	48
	.byte	49
	.byte	48
	.byte	55
	.byte	54
	.byte	54
	.byte	50
	.byte	56
	.byte	55
	.byte	52
	.byte	55
	.byte	53
	.byte	84
	.byte	56
	.byte	108
	.byte	100
	.byte	117
	.byte	48
	.byte	0
	.space 2, 0x00 	# pad
	.align 4
__sd_2inst_string.11:
	.byte	99
	.byte	111
	.byte	109
	.byte	112
	.byte	117
	.byte	116
	.byte	101
	.byte	98
	.byte	111
	.byte	117
	.byte	110
	.byte	100
	.byte	95
	.byte	99
	.byte	97
	.byte	108
	.byte	117
	.byte	46
	.byte	99
	.byte	112
	.byte	112
	.byte	0
	.space 2, 0x00 	# pad
	.align 4
__sd_2inst_string.13:
	.byte	112
	.byte	65
	.byte	95
	.byte	109
	.byte	105
	.byte	99
	.byte	0
	.space 1, 0x00 	# pad
	.align 4
__sd_2inst_string.14:
	.byte	116
	.byte	105
	.byte	109
	.byte	101
	.byte	0
	.space 3, 0x00 	# pad
	.align 4
__sd_2inst_string.15:
	.byte	78
	.byte	0
	.space 2, 0x00 	# pad
	.align 4
__sd_2inst_string.16:
	.byte	77
	.byte	0
	.space 2, 0x00 	# pad
	.align 4
__sd_2inst_string.12:
	.byte	95
	.byte	95
	.byte	111
	.byte	102
	.byte	102
	.byte	108
	.byte	111
	.byte	97
	.byte	100
	.byte	95
	.byte	101
	.byte	110
	.byte	116
	.byte	114
	.byte	121
	.byte	95
	.byte	99
	.byte	111
	.byte	109
	.byte	112
	.byte	117
	.byte	116
	.byte	101
	.byte	98
	.byte	111
	.byte	117
	.byte	110
	.byte	100
	.byte	95
	.byte	99
	.byte	97
	.byte	108
	.byte	117
	.byte	95
	.byte	99
	.byte	112
	.byte	112
	.byte	95
	.byte	49
	.byte	50
	.byte	49
	.byte	99
	.byte	97
	.byte	108
	.byte	108
	.byte	83
	.byte	99
	.byte	95
	.byte	98
	.byte	97
	.byte	98
	.byte	53
	.byte	57
	.byte	98
	.byte	53
	.byte	100
	.byte	97
	.byte	55
	.byte	101
	.byte	51
	.byte	102
	.byte	50
	.byte	98
	.byte	102
	.byte	52
	.byte	98
	.byte	97
	.byte	53
	.byte	55
	.byte	57
	.byte	99
	.byte	48
	.byte	97
	.byte	52
	.byte	48
	.byte	52
	.byte	56
	.byte	97
	.byte	101
	.byte	56
	.byte	105
	.byte	99
	.byte	99
	.byte	48
	.byte	49
	.byte	48
	.byte	55
	.byte	54
	.byte	54
	.byte	50
	.byte	56
	.byte	55
	.byte	52
	.byte	55
	.byte	53
	.byte	84
	.byte	56
	.byte	108
	.byte	100
	.byte	117
	.byte	48
	.byte	0
	.section .OffloadEntryTable., "waG",@progbits,__offload_entry_computebound_calu_cpp_121callSc_bab59b5da7e3f2bf4ba579c0a4048ae8icc010766287475T8ldu0_$entry,comdat
	.align 16
__offload_entry_computebound_calu_cpp_121callSc_bab59b5da7e3f2bf4ba579c0a4048ae8icc010766287475T8ldu0_$entry:
	.type	__offload_entry_computebound_calu_cpp_121callSc_bab59b5da7e3f2bf4ba579c0a4048ae8icc010766287475T8ldu0_$entry,@object
	.size	__offload_entry_computebound_calu_cpp_121callSc_bab59b5da7e3f2bf4ba579c0a4048ae8icc010766287475T8ldu0_$entry,16
	.quad	__sd_2inst_string.10
	.quad	__sd_2inst_string.10
	.data
# -- End  _Z6callScPfll
	.text
.L_2__routine_start__Z6scalarPfll_4:
# -- Begin  _Z6scalarPfll, L__Z6scalarPfll_26__par_loop0_2.10
	.text
# mark_begin;
       .align    16,0x90
	.globl _Z6scalarPfll
# --- scalar(float *, long, long)
_Z6scalarPfll:
# parameter 1(A): %rdi
# parameter 2(N): %rsi
# parameter 3(M): %rdx
..B5.1:                         # Preds ..B5.0
	.cfi_startproc
	.cfi_personality 0x3,__gxx_personality_v0
..___tag_value__Z6scalarPfll.380:
..L381:
                                                        #23.1
..LN1403:
	.loc    1  23  is_stmt 1
        subq      $88, %rsp                                     #23.1
	.cfi_def_cfa_offset 96
..LN1404:
        movq      %rbp, 48(%rsp)                                #23.1
..LN1405:
        movq      %rbx, 40(%rsp)                                #23.1
..LN1406:
        movq      %r15, 8(%rsp)                                 #23.1
..LN1407:
        movq      %r14, 16(%rsp)                                #23.1
..LN1408:
        movq      %r13, 24(%rsp)                                #23.1
..LN1409:
        movq      %r12, 32(%rsp)                                #23.1
..LN1410:
        movq      %rdi, (%rsp)                                  #23.1
..LN1411:
        movq      %rsi, 56(%rsp)                                #23.1
..LN1412:
        movq      %rdx, 64(%rsp)                                #23.1
	.cfi_offset 3, -56
	.cfi_offset 6, -48
	.cfi_offset 12, -64
	.cfi_offset 13, -72
	.cfi_offset 14, -80
	.cfi_offset 15, -88
..LN1413:
                                # LOE
..B5.3:                         # Preds ..B5.1
..LN1414:
	.loc    1  26  prologue_end  is_stmt 1
        movl      $.2.51_2_kmpc_loc_struct_pack.12, %edi        #26.5
..LN1415:
        call      __kmpc_global_thread_num                      #26.5
..LN1416:
                                # LOE eax
..B5.31:                        # Preds ..B5.3
..LN1417:
        movl      %eax, 72(%rsp)                                #26.5
..LN1418:
        movl      $.2.51_2_kmpc_loc_struct_pack.20, %edi        #26.5
..LN1419:
        xorl      %eax, %eax                                    #26.5
..___tag_value__Z6scalarPfll.390:
..LN1420:
        call      __kmpc_ok_to_fork                             #26.5
..___tag_value__Z6scalarPfll.391:
..LN1421:
                                # LOE eax
..B5.4:                         # Preds ..B5.31
..LN1422:
        testl     %eax, %eax                                    #26.5
..LN1423:
        je        ..B5.6        # Prob 50%                      #26.5
..LN1424:
                                # LOE
..B5.5:                         # Preds ..B5.4
..LN1425:
        movl      $L__Z6scalarPfll_26__par_loop0_2.10, %edx     #26.5
..LN1426:
        lea       56(%rsp), %rcx                                #26.5
..LN1427:
        movl      $.2.51_2_kmpc_loc_struct_pack.20, %edi        #26.5
..LN1428:
        lea       8(%rcx), %r8                                  #26.5
..LN1429:
        movl      $3, %esi                                      #26.5
..LN1430:
        lea       (%rsp), %r9                                   #26.5
..LN1431:
        xorl      %eax, %eax                                    #26.5
..___tag_value__Z6scalarPfll.392:
..LN1432:
        call      __kmpc_fork_call                              #26.5
..___tag_value__Z6scalarPfll.393:
..LN1433:
        jmp       ..B5.9        # Prob 100%                     #26.5
..LN1434:
                                # LOE
..B5.6:                         # Preds ..B5.4
..LN1435:
        movl      $.2.51_2_kmpc_loc_struct_pack.20, %edi        #26.5
..LN1436:
        xorl      %eax, %eax                                    #26.5
..LN1437:
        movl      72(%rsp), %esi                                #26.5
..___tag_value__Z6scalarPfll.394:
..LN1438:
        call      __kmpc_serialized_parallel                    #26.5
..___tag_value__Z6scalarPfll.395:
..LN1439:
                                # LOE
..B5.7:                         # Preds ..B5.6
..LN1440:
        movl      $___kmpv_zero_Z6scalarPfll_0, %esi            #26.5
..LN1441:
        lea       72(%rsp), %rdi                                #26.5
..LN1442:
        lea       -16(%rdi), %rdx                               #26.5
..LN1443:
        lea       8(%rdx), %rcx                                 #26.5
..LN1444:
        lea       (%rsp), %r8                                   #26.5
..___tag_value__Z6scalarPfll.396:
..LN1445:
        call      L__Z6scalarPfll_26__par_loop0_2.10            #26.5
..___tag_value__Z6scalarPfll.397:
..LN1446:
                                # LOE
..B5.8:                         # Preds ..B5.7
..LN1447:
        movl      $.2.51_2_kmpc_loc_struct_pack.20, %edi        #26.5
..LN1448:
        xorl      %eax, %eax                                    #26.5
..LN1449:
        movl      72(%rsp), %esi                                #26.5
..___tag_value__Z6scalarPfll.398:
..LN1450:
        call      __kmpc_end_serialized_parallel                #26.5
..___tag_value__Z6scalarPfll.399:
..LN1451:
                                # LOE
..B5.9:                         # Preds ..B5.5 ..B5.8
..LN1452:
	.loc    1  53  is_stmt 1
        movq      8(%rsp), %r15                                 #53.1
	.cfi_restore 15
..LN1453:
        movq      16(%rsp), %r14                                #53.1
	.cfi_restore 14
..LN1454:
        movq      24(%rsp), %r13                                #53.1
	.cfi_restore 13
..LN1455:
        movq      32(%rsp), %r12                                #53.1
	.cfi_restore 12
..LN1456:
        movq      40(%rsp), %rbx                                #53.1
	.cfi_restore 3
..LN1457:
        movq      48(%rsp), %rbp                                #53.1
	.cfi_restore 6
..LN1458:
	.loc    1  53  epilogue_begin  is_stmt 1
        addq      $88, %rsp                                     #53.1
	.cfi_def_cfa_offset 8
..LN1459:
        ret                                                     #53.1
	.cfi_def_cfa_offset 96
..LN1460:
                                # LOE
L__Z6scalarPfll_26__par_loop0_2.10:
# parameter 1: %rdi
# parameter 2: %rsi
# parameter 3: %rdx
# parameter 4: %rcx
# parameter 5: %r8
..B5.10:                        # Preds ..B5.0
..LN1461:
	.loc    1  26  is_stmt 1
        subq      $88, %rsp                                     #26.5
..LN1462:
        movq      %r13, 24(%rsp)                                #26.5
	.cfi_offset 13, -72
..LN1463:
        movq      (%r8), %r13                                   #26.5
..LN1464:
        movq      (%rdx), %r8                                   #26.5
..LN1465:
        movq      %rbx, 40(%rsp)                                #26.5
..LN1466:
        movq      %r14, 16(%rsp)                                #26.5
..LN1467:
        movq      %rbp, 48(%rsp)                                #26.5
..LN1468:
        movq      %r15, 8(%rsp)                                 #26.5
..LN1469:
        movq      %r12, 32(%rsp)                                #26.5
	.cfi_offset 3, -56
	.cfi_offset 6, -48
	.cfi_offset 12, -64
	.cfi_offset 14, -80
	.cfi_offset 15, -88
..LN1470:
        movl      (%rdi), %r14d                                 #26.5
..LN1471:
        movq      (%rcx), %rbx                                  #26.5
..LN1472:
	.loc    1  27  prologue_end  is_stmt 1
        testq     %r8, %r8                                      #27.39
..LN1473:
        jle       ..B5.18       # Prob 10%                      #27.39
..LN1474:
                                # LOE rbx r8 r13 r14d
..B5.11:                        # Preds ..B5.10
..LN1475:
	.loc    1  26  is_stmt 1
        decq      %r8                                           #26.5
..LN1476:
        xorl      %r12d, %r12d                                  #26.5
..LN1477:
        movl      %r12d, 56(%rsp)                               #26.5
..LN1478:
        movl      $.2.51_2_kmpc_loc_struct_pack.20, %edi        #26.5
..LN1479:
        movl      %r8d, 60(%rsp)                                #26.5
..LN1480:
        movl      %r14d, %esi                                   #26.5
..LN1481:
        movl      %r12d, 64(%rsp)                               #26.5
..LN1482:
        movl      $35, %edx                                     #26.5
..LN1483:
        movl      $8, 68(%rsp)                                  #26.5
..LN1484:
        addq      $-16, %rsp                                    #26.5
	.cfi_def_cfa_offset 112
..LN1485:
        xorl      %ecx, %ecx                                    #26.5
..LN1486:
        movl      $8, %r9d                                      #26.5
..LN1487:
        xorl      %eax, %eax                                    #26.5
..LN1488:
        movl      $1, (%rsp)                                    #26.5
..___tag_value__Z6scalarPfll.418:
..LN1489:
        call      __kmpc_dispatch_init_4                        #26.5
..___tag_value__Z6scalarPfll.419:
..LN1490:
                                # LOE rbx r13 r12d r14d
..B5.32:                        # Preds ..B5.11
..LN1491:
        addq      $16, %rsp                                     #26.5
	.cfi_def_cfa_offset 96
..LN1492:
                                # LOE rbx r13 r12d r14d
..B5.14:                        # Preds ..B5.32
..LN1493:
	.loc    1  40  is_stmt 1
        vmovss    .L_2il0floatpacket.11(%rip), %xmm0            #40.28
..LN1494:
	.loc    1  26  is_stmt 1
        lea       64(%rsp), %rdx                                #26.5
..LN1495:
        movq      %rbx, (%rsp)                                  #26.5
..LN1496:
        lea       -8(%rdx), %rbp                                #26.5
..LN1497:
        movq      %rdx, %rbx                                    #26.5
..LN1498:
        lea       4(%rdx), %r15                                 #26.5
..LN1499:
                                # LOE rbx rbp r13 r15 r12d r14d
..B5.15:                        # Preds ..B5.26 ..B5.14
..L421:         # optimization report
                # %s was not vectorized: loop control variable was not identified. Explicitly compute the iteration count before executing the loop or try using canonical loop form
..LN1500:
        lea       60(%rsp), %r8                                 #26.5
..LN1501:
        movl      $.2.51_2_kmpc_loc_struct_pack.20, %edi        #26.5
..LN1502:
        movl      %r14d, %esi                                   #26.5
..LN1503:
        movq      %rbx, %rdx                                    #26.5
..LN1504:
        movq      %rbp, %rcx                                    #26.5
..LN1505:
        movq      %r15, %r9                                     #26.5
..LN1506:
        xorl      %eax, %eax                                    #26.5
..___tag_value__Z6scalarPfll.422:
..LN1507:
        call      __kmpc_dispatch_next_4                        #26.5
..___tag_value__Z6scalarPfll.423:
..LN1508:
                                # LOE rbx rbp r13 r15 eax r12d r14d
..B5.16:                        # Preds ..B5.15
..LN1509:
        movl      56(%rsp), %r10d                               #26.5
..LN1510:
        movl      60(%rsp), %r8d                                #26.5
..LN1511:
        testl     %eax, %eax                                    #26.5
..LN1512:
        jne       ..B5.19       # Prob 50%                      #26.5
..LN1513:
                                # LOE rbx rbp r13 r15 r8d r10d r12d r14d
..B5.18:                        # Preds ..B5.16 ..B5.10
..LN1514:
        movq      8(%rsp), %r15                                 #26.5
	.cfi_restore 15
..LN1515:
        movq      16(%rsp), %r14                                #26.5
	.cfi_restore 14
..LN1516:
        movq      24(%rsp), %r13                                #26.5
	.cfi_restore 13
..LN1517:
        movq      32(%rsp), %r12                                #26.5
	.cfi_restore 12
..LN1518:
        movq      40(%rsp), %rbx                                #26.5
	.cfi_restore 3
..LN1519:
        movq      48(%rsp), %rbp                                #26.5
	.cfi_restore 6
..LN1520:
	.loc    1  26  epilogue_begin  is_stmt 1
        addq      $88, %rsp                                     #26.5
	.cfi_def_cfa_offset 8
..LN1521:
        ret                                                     #26.5
	.cfi_def_cfa_offset 96
	.cfi_offset 3, -56
	.cfi_offset 6, -48
	.cfi_offset 12, -64
	.cfi_offset 13, -72
	.cfi_offset 14, -80
	.cfi_offset 15, -88
..LN1522:
                                # LOE
..B5.19:                        # Preds ..B5.16
..LN1523:
        movl      %r8d, %eax                                    #26.5
..LN1524:
	.loc    1  27  is_stmt 1
        movl      %r12d, %edi                                   #27.5
..LN1525:
	.loc    1  26  is_stmt 1
        subl      %r10d, %eax                                   #26.5
..LN1526:
        addl      $8, %eax                                      #26.5
..LN1527:
        sarl      $2, %eax                                      #26.5
..LN1528:
        shrl      $29, %eax                                     #26.5
..LN1529:
        subl      %r10d, %eax                                   #26.5
..LN1530:
	.loc    1  39  is_stmt 1
        movslq    %r10d, %r10                                   #39.21
..LN1531:
        vmovss    .L_2il0floatpacket.11(%rip), %xmm6            #39.21
..LN1532:
        movq      (%rsp), %rdx                                  #39.21
..LN1533:
	.loc    1  26  is_stmt 1
        lea       8(%rax,%r8), %eax                             #26.5
..LN1534:
        sarl      $3, %eax                                      #26.5
..LN1535:
	.loc    1  39  is_stmt 1
        lea       (%r13,%r10,4), %r8                            #39.21
..LN1536:
                                # LOE rdx rbx rbp r8 r13 r15 eax edi r12d r14d xmm6
..B5.20:                        # Preds ..B5.26 ..B5.19
..L439:         # optimization report
                # OPENMP LOOP
                # %s was not vectorized: novector directive used
                # VECTOR TRIP COUNT IS ESTIMATED CONSTANT
..LN1537:
                                # LOE rdx rbx rbp r8 r13 r15 eax edi r12d r14d xmm6
..B5.22:                        # Preds ..B5.20
..LN1538:
	.loc    1  34  is_stmt 1
        xorl      %r10d, %r10d                                  #34.9
..LN1539:
        testq     %rdx, %rdx                                    #34.38
..LN1540:
        jle       ..B5.26       # Prob 10%                      #34.38
..LN1541:
                                # LOE rdx rbx rbp r8 r10 r13 r15 eax edi r12d r14d xmm6
..B5.23:                        # Preds ..B5.22
..LN1542:
	.loc    1  39  is_stmt 1
        lea       (,%rdi,8), %r11d                              #39.21
..LN1543:
        movslq    %r11d, %r11                                   #39.21
..LN1544:
        vmovss    28(%r8,%r11,4), %xmm5                         #39.21
..LN1545:
        vmovss    24(%r8,%r11,4), %xmm4                         #39.21
..LN1546:
        vmovss    20(%r8,%r11,4), %xmm3                         #39.21
..LN1547:
        vmovss    16(%r8,%r11,4), %xmm2                         #39.21
..LN1548:
        vmovss    12(%r8,%r11,4), %xmm8                         #39.21
..LN1549:
        vmovss    8(%r8,%r11,4), %xmm7                          #39.21
..LN1550:
        vmovss    4(%r8,%r11,4), %xmm1                          #39.21
..LN1551:
        vmovss    (%r8,%r11,4), %xmm0                           #39.21
..LN1552:
                                # LOE rdx rbx rbp r8 r10 r11 r13 r15 eax edi r12d r14d xmm0 xmm1 xmm2 xmm3 xmm4 xmm5 xmm6 xmm7 xmm8
..B5.24:                        # Preds ..B5.24 ..B5.23
..L441:         # optimization report
                # LOOP WAS COMPLETELY UNROLLED BY 8
                # %s was not vectorized: novector directive used
                # VECTOR TRIP COUNT IS KNOWN CONSTANT
..L440:         # optimization report
                # %s was not vectorized: novector directive used
                # VECTOR TRIP COUNT IS ESTIMATED CONSTANT
..LN1553:
	.loc    1  40  is_stmt 1
        vmulss    %xmm0, %xmm0, %xmm0                           #40.25
..LN1554:
	.loc    1  34  is_stmt 1
        incl      %r10d                                         #34.9
..LN1555:
	.loc    1  40  is_stmt 1
        vmulss    %xmm1, %xmm1, %xmm1                           #40.25
..LN1556:
        vmulss    %xmm7, %xmm7, %xmm7                           #40.25
..LN1557:
        vmulss    %xmm8, %xmm8, %xmm8                           #40.25
..LN1558:
        vmulss    %xmm2, %xmm2, %xmm2                           #40.25
..LN1559:
        vsubss    %xmm6, %xmm0, %xmm9                           #40.28
..LN1560:
        vsubss    %xmm6, %xmm1, %xmm1                           #40.28
..LN1561:
        vsubss    %xmm6, %xmm7, %xmm7                           #40.28
..LN1562:
        vsubss    %xmm6, %xmm8, %xmm8                           #40.28
..LN1563:
        vsubss    %xmm6, %xmm2, %xmm2                           #40.28
..LN1564:
	.loc    1  41  is_stmt 1
        vmulss    %xmm9, %xmm9, %xmm10                          #41.25
..LN1565:
	.loc    1  40  is_stmt 1
        vmulss    %xmm3, %xmm3, %xmm3                           #40.25
..LN1566:
        vmulss    %xmm4, %xmm4, %xmm4                           #40.25
..LN1567:
        vmulss    %xmm5, %xmm5, %xmm5                           #40.25
..LN1568:
	.loc    1  41  is_stmt 1
        vsubss    %xmm6, %xmm10, %xmm11                         #41.28
..LN1569:
	.loc    1  40  is_stmt 1
        vsubss    %xmm6, %xmm3, %xmm3                           #40.28
..LN1570:
        vsubss    %xmm6, %xmm4, %xmm4                           #40.28
..LN1571:
        vsubss    %xmm6, %xmm5, %xmm5                           #40.28
..LN1572:
	.loc    1  42  is_stmt 1
        vmulss    %xmm11, %xmm11, %xmm12                        #42.25
..LN1573:
        vsubss    %xmm6, %xmm12, %xmm13                         #42.28
..LN1574:
	.loc    1  43  is_stmt 1
        vmulss    %xmm13, %xmm13, %xmm14                        #43.25
..LN1575:
        vsubss    %xmm6, %xmm14, %xmm15                         #43.28
..LN1576:
	.loc    1  44  is_stmt 1
        vmulss    %xmm15, %xmm15, %xmm0                         #44.25
..LN1577:
        vsubss    %xmm6, %xmm0, %xmm9                           #44.28
..LN1578:
	.loc    1  45  is_stmt 1
        vmulss    %xmm9, %xmm9, %xmm10                          #45.25
..LN1579:
	.loc    1  41  is_stmt 1
        vmulss    %xmm1, %xmm1, %xmm9                           #41.25
..LN1580:
	.loc    1  45  is_stmt 1
        vsubss    %xmm6, %xmm10, %xmm11                         #45.28
..LN1581:
	.loc    1  41  is_stmt 1
        vsubss    %xmm6, %xmm9, %xmm10                          #41.28
..LN1582:
	.loc    1  46  is_stmt 1
        vmulss    %xmm11, %xmm11, %xmm12                        #46.25
..LN1583:
	.loc    1  42  is_stmt 1
        vmulss    %xmm10, %xmm10, %xmm11                        #42.25
..LN1584:
	.loc    1  46  is_stmt 1
        vsubss    %xmm6, %xmm12, %xmm13                         #46.28
..LN1585:
	.loc    1  42  is_stmt 1
        vsubss    %xmm6, %xmm11, %xmm12                         #42.28
..LN1586:
	.loc    1  47  is_stmt 1
        vmulss    %xmm13, %xmm13, %xmm14                        #47.25
..LN1587:
	.loc    1  43  is_stmt 1
        vmulss    %xmm12, %xmm12, %xmm13                        #43.25
..LN1588:
	.loc    1  47  is_stmt 1
        vsubss    %xmm6, %xmm14, %xmm0                          #47.28
..LN1589:
	.loc    1  43  is_stmt 1
        vsubss    %xmm6, %xmm13, %xmm14                         #43.28
..LN1590:
	.loc    1  44  is_stmt 1
        vmulss    %xmm14, %xmm14, %xmm15                        #44.25
..LN1591:
        vsubss    %xmm6, %xmm15, %xmm1                          #44.28
..LN1592:
	.loc    1  45  is_stmt 1
        vmulss    %xmm1, %xmm1, %xmm9                           #45.25
..LN1593:
        vsubss    %xmm6, %xmm9, %xmm10                          #45.28
..LN1594:
	.loc    1  41  is_stmt 1
        vmulss    %xmm7, %xmm7, %xmm9                           #41.25
..LN1595:
	.loc    1  46  is_stmt 1
        vmulss    %xmm10, %xmm10, %xmm11                        #46.25
..LN1596:
	.loc    1  41  is_stmt 1
        vsubss    %xmm6, %xmm9, %xmm10                          #41.28
..LN1597:
	.loc    1  46  is_stmt 1
        vsubss    %xmm6, %xmm11, %xmm12                         #46.28
..LN1598:
	.loc    1  42  is_stmt 1
        vmulss    %xmm10, %xmm10, %xmm11                        #42.25
..LN1599:
	.loc    1  47  is_stmt 1
        vmulss    %xmm12, %xmm12, %xmm13                        #47.25
..LN1600:
	.loc    1  42  is_stmt 1
        vsubss    %xmm6, %xmm11, %xmm12                         #42.28
..LN1601:
	.loc    1  47  is_stmt 1
        vsubss    %xmm6, %xmm13, %xmm1                          #47.28
..LN1602:
	.loc    1  43  is_stmt 1
        vmulss    %xmm12, %xmm12, %xmm13                        #43.25
..LN1603:
        vsubss    %xmm6, %xmm13, %xmm14                         #43.28
..LN1604:
	.loc    1  44  is_stmt 1
        vmulss    %xmm14, %xmm14, %xmm15                        #44.25
..LN1605:
        vsubss    %xmm6, %xmm15, %xmm7                          #44.28
..LN1606:
	.loc    1  45  is_stmt 1
        vmulss    %xmm7, %xmm7, %xmm9                           #45.25
..LN1607:
        vsubss    %xmm6, %xmm9, %xmm10                          #45.28
..LN1608:
	.loc    1  41  is_stmt 1
        vmulss    %xmm8, %xmm8, %xmm9                           #41.25
..LN1609:
	.loc    1  46  is_stmt 1
        vmulss    %xmm10, %xmm10, %xmm11                        #46.25
..LN1610:
	.loc    1  41  is_stmt 1
        vsubss    %xmm6, %xmm9, %xmm10                          #41.28
..LN1611:
	.loc    1  46  is_stmt 1
        vsubss    %xmm6, %xmm11, %xmm12                         #46.28
..LN1612:
	.loc    1  42  is_stmt 1
        vmulss    %xmm10, %xmm10, %xmm11                        #42.25
..LN1613:
	.loc    1  47  is_stmt 1
        vmulss    %xmm12, %xmm12, %xmm13                        #47.25
..LN1614:
	.loc    1  42  is_stmt 1
        vsubss    %xmm6, %xmm11, %xmm12                         #42.28
..LN1615:
	.loc    1  47  is_stmt 1
        vsubss    %xmm6, %xmm13, %xmm7                          #47.28
..LN1616:
	.loc    1  43  is_stmt 1
        vmulss    %xmm12, %xmm12, %xmm13                        #43.25
..LN1617:
        vsubss    %xmm6, %xmm13, %xmm14                         #43.28
..LN1618:
	.loc    1  44  is_stmt 1
        vmulss    %xmm14, %xmm14, %xmm15                        #44.25
..LN1619:
        vsubss    %xmm6, %xmm15, %xmm8                          #44.28
..LN1620:
	.loc    1  45  is_stmt 1
        vmulss    %xmm8, %xmm8, %xmm9                           #45.25
..LN1621:
        vsubss    %xmm6, %xmm9, %xmm10                          #45.28
..LN1622:
	.loc    1  41  is_stmt 1
        vmulss    %xmm2, %xmm2, %xmm9                           #41.25
..LN1623:
	.loc    1  46  is_stmt 1
        vmulss    %xmm10, %xmm10, %xmm11                        #46.25
..LN1624:
	.loc    1  41  is_stmt 1
        vsubss    %xmm6, %xmm9, %xmm10                          #41.28
..LN1625:
	.loc    1  46  is_stmt 1
        vsubss    %xmm6, %xmm11, %xmm12                         #46.28
..LN1626:
	.loc    1  42  is_stmt 1
        vmulss    %xmm10, %xmm10, %xmm11                        #42.25
..LN1627:
	.loc    1  47  is_stmt 1
        vmulss    %xmm12, %xmm12, %xmm13                        #47.25
..LN1628:
	.loc    1  42  is_stmt 1
        vsubss    %xmm6, %xmm11, %xmm12                         #42.28
..LN1629:
	.loc    1  47  is_stmt 1
        vsubss    %xmm6, %xmm13, %xmm8                          #47.28
..LN1630:
	.loc    1  43  is_stmt 1
        vmulss    %xmm12, %xmm12, %xmm13                        #43.25
..LN1631:
        vsubss    %xmm6, %xmm13, %xmm14                         #43.28
..LN1632:
	.loc    1  44  is_stmt 1
        vmulss    %xmm14, %xmm14, %xmm15                        #44.25
..LN1633:
        vsubss    %xmm6, %xmm15, %xmm2                          #44.28
..LN1634:
	.loc    1  45  is_stmt 1
        vmulss    %xmm2, %xmm2, %xmm9                           #45.25
..LN1635:
        vsubss    %xmm6, %xmm9, %xmm10                          #45.28
..LN1636:
	.loc    1  41  is_stmt 1
        vmulss    %xmm3, %xmm3, %xmm9                           #41.25
..LN1637:
	.loc    1  46  is_stmt 1
        vmulss    %xmm10, %xmm10, %xmm11                        #46.25
..LN1638:
	.loc    1  41  is_stmt 1
        vsubss    %xmm6, %xmm9, %xmm10                          #41.28
..LN1639:
	.loc    1  46  is_stmt 1
        vsubss    %xmm6, %xmm11, %xmm12                         #46.28
..LN1640:
	.loc    1  42  is_stmt 1
        vmulss    %xmm10, %xmm10, %xmm11                        #42.25
..LN1641:
	.loc    1  47  is_stmt 1
        vmulss    %xmm12, %xmm12, %xmm13                        #47.25
..LN1642:
	.loc    1  42  is_stmt 1
        vsubss    %xmm6, %xmm11, %xmm12                         #42.28
..LN1643:
	.loc    1  47  is_stmt 1
        vsubss    %xmm6, %xmm13, %xmm2                          #47.28
..LN1644:
	.loc    1  43  is_stmt 1
        vmulss    %xmm12, %xmm12, %xmm13                        #43.25
..LN1645:
        vsubss    %xmm6, %xmm13, %xmm14                         #43.28
..LN1646:
	.loc    1  44  is_stmt 1
        vmulss    %xmm14, %xmm14, %xmm15                        #44.25
..LN1647:
        vsubss    %xmm6, %xmm15, %xmm3                          #44.28
..LN1648:
	.loc    1  45  is_stmt 1
        vmulss    %xmm3, %xmm3, %xmm9                           #45.25
..LN1649:
        vsubss    %xmm6, %xmm9, %xmm10                          #45.28
..LN1650:
	.loc    1  41  is_stmt 1
        vmulss    %xmm4, %xmm4, %xmm9                           #41.25
..LN1651:
	.loc    1  46  is_stmt 1
        vmulss    %xmm10, %xmm10, %xmm11                        #46.25
..LN1652:
	.loc    1  41  is_stmt 1
        vsubss    %xmm6, %xmm9, %xmm10                          #41.28
..LN1653:
	.loc    1  46  is_stmt 1
        vsubss    %xmm6, %xmm11, %xmm12                         #46.28
..LN1654:
	.loc    1  42  is_stmt 1
        vmulss    %xmm10, %xmm10, %xmm11                        #42.25
..LN1655:
	.loc    1  47  is_stmt 1
        vmulss    %xmm12, %xmm12, %xmm13                        #47.25
..LN1656:
	.loc    1  42  is_stmt 1
        vsubss    %xmm6, %xmm11, %xmm12                         #42.28
..LN1657:
	.loc    1  47  is_stmt 1
        vsubss    %xmm6, %xmm13, %xmm3                          #47.28
..LN1658:
	.loc    1  43  is_stmt 1
        vmulss    %xmm12, %xmm12, %xmm13                        #43.25
..LN1659:
        vsubss    %xmm6, %xmm13, %xmm14                         #43.28
..LN1660:
	.loc    1  44  is_stmt 1
        vmulss    %xmm14, %xmm14, %xmm15                        #44.25
..LN1661:
        vsubss    %xmm6, %xmm15, %xmm4                          #44.28
..LN1662:
	.loc    1  45  is_stmt 1
        vmulss    %xmm4, %xmm4, %xmm9                           #45.25
..LN1663:
        vsubss    %xmm6, %xmm9, %xmm10                          #45.28
..LN1664:
	.loc    1  41  is_stmt 1
        vmulss    %xmm5, %xmm5, %xmm9                           #41.25
..LN1665:
	.loc    1  46  is_stmt 1
        vmulss    %xmm10, %xmm10, %xmm11                        #46.25
..LN1666:
	.loc    1  41  is_stmt 1
        vsubss    %xmm6, %xmm9, %xmm10                          #41.28
..LN1667:
	.loc    1  46  is_stmt 1
        vsubss    %xmm6, %xmm11, %xmm12                         #46.28
..LN1668:
	.loc    1  42  is_stmt 1
        vmulss    %xmm10, %xmm10, %xmm11                        #42.25
..LN1669:
	.loc    1  47  is_stmt 1
        vmulss    %xmm12, %xmm12, %xmm13                        #47.25
..LN1670:
	.loc    1  42  is_stmt 1
        vsubss    %xmm6, %xmm11, %xmm12                         #42.28
..LN1671:
	.loc    1  47  is_stmt 1
        vsubss    %xmm6, %xmm13, %xmm4                          #47.28
..LN1672:
	.loc    1  43  is_stmt 1
        vmulss    %xmm12, %xmm12, %xmm13                        #43.25
..LN1673:
        vsubss    %xmm6, %xmm13, %xmm14                         #43.28
..LN1674:
	.loc    1  44  is_stmt 1
        vmulss    %xmm14, %xmm14, %xmm15                        #44.25
..LN1675:
        vsubss    %xmm6, %xmm15, %xmm5                          #44.28
..LN1676:
	.loc    1  45  is_stmt 1
        vmulss    %xmm5, %xmm5, %xmm9                           #45.25
..LN1677:
        vsubss    %xmm6, %xmm9, %xmm10                          #45.28
..LN1678:
	.loc    1  46  is_stmt 1
        vmulss    %xmm10, %xmm10, %xmm11                        #46.25
..LN1679:
        vsubss    %xmm6, %xmm11, %xmm12                         #46.28
..LN1680:
	.loc    1  47  is_stmt 1
        vmulss    %xmm12, %xmm12, %xmm13                        #47.25
..LN1681:
        vsubss    %xmm6, %xmm13, %xmm5                          #47.28
..LN1682:
	.loc    1  34  is_stmt 1
        cmpq      %rdx, %r10                                    #34.9
..LN1683:
        jb        ..B5.24       # Prob 82%                      #34.9
..LN1684:
                                # LOE rdx rbx rbp r8 r10 r11 r13 r15 eax edi r12d r14d xmm0 xmm1 xmm2 xmm3 xmm4 xmm5 xmm6 xmm7 xmm8
..B5.25:                        # Preds ..B5.24
..LN1685:
	.loc    1  49  is_stmt 1
        vmovss    %xmm5, 28(%r8,%r11,4)                         #49.17
..LN1686:
        vmovss    %xmm4, 24(%r8,%r11,4)                         #49.17
..LN1687:
        vmovss    %xmm3, 20(%r8,%r11,4)                         #49.17
..LN1688:
        vmovss    %xmm2, 16(%r8,%r11,4)                         #49.17
..LN1689:
        vmovss    %xmm8, 12(%r8,%r11,4)                         #49.17
..LN1690:
        vmovss    %xmm7, 8(%r8,%r11,4)                          #49.17
..LN1691:
        vmovss    %xmm1, 4(%r8,%r11,4)                          #49.17
..LN1692:
        vmovss    %xmm0, (%r8,%r11,4)                           #49.17
..LN1693:
                                # LOE rdx rbx rbp r8 r13 r15 eax edi r12d r14d xmm6
..B5.26:                        # Preds ..B5.22 ..B5.25
..LN1694:
	.loc    1  27  is_stmt 1
        incl      %edi                                          #27.5
..LN1695:
        cmpl      %eax, %edi                                    #27.5
..LN1696:
        jb        ..B5.20       # Prob 82%                      #27.5
..LN1697:
        jmp       ..B5.15       # Prob 100%                     #27.5
        .align    16,0x90
	.cfi_endproc
..LN1698:
                                # LOE rdx rbx rbp r8 r13 r15 eax edi r12d r14d xmm6
..LN1699:
# mark_end;
	.type	_Z6scalarPfll,@function
	.size	_Z6scalarPfll,.-_Z6scalarPfll
..LN_Z6scalarPfll.1700:
.LN_Z6scalarPfll:
	.data
	.align 4
.2.51_2_kmpc_loc_struct_pack.12:
	.long	0
	.long	2
	.long	0
	.long	0
	.quad	.2.51_2__kmpc_loc_pack.11
	.align 4
.2.51_2__kmpc_loc_pack.11:
	.byte	59
	.byte	117
	.byte	110
	.byte	107
	.byte	110
	.byte	111
	.byte	119
	.byte	110
	.byte	59
	.byte	115
	.byte	99
	.byte	97
	.byte	108
	.byte	97
	.byte	114
	.byte	59
	.byte	50
	.byte	54
	.byte	59
	.byte	50
	.byte	54
	.byte	59
	.byte	59
	.space 1, 0x00 	# pad
	.align 4
.2.51_2_kmpc_loc_struct_pack.20:
	.long	0
	.long	2
	.long	0
	.long	0
	.quad	.2.51_2__kmpc_loc_pack.19
	.align 4
.2.51_2__kmpc_loc_pack.19:
	.byte	59
	.byte	117
	.byte	110
	.byte	107
	.byte	110
	.byte	111
	.byte	119
	.byte	110
	.byte	59
	.byte	115
	.byte	99
	.byte	97
	.byte	108
	.byte	97
	.byte	114
	.byte	59
	.byte	50
	.byte	54
	.byte	59
	.byte	53
	.byte	50
	.byte	59
	.byte	59
	.data
# -- End  _Z6scalarPfll, L__Z6scalarPfll_26__par_loop0_2.10
	.text
.L_2__routine_start__Z6callEsPfll_5:
# -- Begin  _Z6callEsPfll
	.text
# mark_begin;
       .align    16,0x90
	.globl _Z6callEsPfll
# --- callEs(float *, long, long)
_Z6callEsPfll:
# parameter 1(A): %rdi
# parameter 2(N): %rsi
# parameter 3(M): %rdx
..B6.1:                         # Preds ..B6.0
	.cfi_startproc
	.cfi_personality 0x3,__gxx_personality_v0
..___tag_value__Z6callEsPfll.447:
..L448:
                                                        #105.66
..LN1701:
	.loc    1  105  is_stmt 1
        subq      $360, %rsp                                    #105.66
	.cfi_def_cfa_offset 368
..LN1702:
	.loc    1  108  prologue_end  is_stmt 1
        movl      $__sd_2inst_string.18, %r8d                   #108.5
..LN1703:
	.loc    1  105  is_stmt 1
        movq      %rsi, 328(%rsp)                               #105.66
..LN1704:
	.loc    1  108  is_stmt 1
        xorl      %esi, %esi                                    #108.5
..LN1705:
	.loc    1  105  is_stmt 1
        movq      %rdi, 320(%rsp)                               #105.66
..LN1706:
	.loc    1  106  is_stmt 1
        lea       320(%rsp), %rax                               #106.37
..LN1707:
	.loc    1  105  is_stmt 1
        movq      %rdx, 16(%rax)                                #105.66
..LN1708:
	.loc    1  108  is_stmt 1
        movl      $2, %edi                                      #108.5
..LN1709:
	.loc    1  106  is_stmt 1
        movq      %rax, 24(%rax)                                #106.34
..LN1710:
	.loc    1  108  is_stmt 1
        xorl      %edx, %edx                                    #108.5
..LN1711:
        xorl      %ecx, %ecx                                    #108.5
..LN1712:
        movl      $108, %r9d                                    #108.5
..LN1713:
        xorl      %eax, %eax                                    #108.5
..LN1714:
	.loc    1  107  is_stmt 1
        movq      $0, 352(%rsp)                                 #107.16
..___tag_value__Z6callEsPfll.451:
..LN1715:
	.loc    1  108  is_stmt 1
        call      __offload_target_acquire                      #108.5
..___tag_value__Z6callEsPfll.452:
..LN1716:
                                # LOE rax rbx rbp r12 r13 r14 r15
..B6.2:                         # Preds ..B6.1
..LN1717:
        testq     %rax, %rax                                    #108.5
..LN1718:
        je        ..B6.4        # Prob 50%                      #108.5
..LN1719:
                                # LOE rax rbx rbp r12 r13 r14 r15
..B6.3:                         # Preds ..B6.2
..LN1720:
        movl      $256, %edx                                    #108.5
..LN1721:
        lea       64(%rsp), %r8                                 #108.5
..LN1722:
                                # LOE rax rdx rbx rbp r8 r12 r13 r14 r15
..B6.8:                         # Preds ..B6.8 ..B6.3
..LN1723:
        lea       -16+.2.52_2__offload_var_desc1_p.28(%rdx), %rcx #108.5
..LN1724:
        vmovups   (%rcx), %xmm0                                 #108.5
..LN1725:
        vmovups   -16(%rcx), %xmm1                              #108.5
..LN1726:
        vmovups   -32(%rcx), %xmm2                              #108.5
..LN1727:
        vmovups   -48(%rcx), %xmm3                              #108.5
..LN1728:
        lea       -16(%r8,%rdx), %rsi                           #108.5
..LN1729:
        vmovups   %xmm0, (%rsi)                                 #108.5
..LN1730:
        vmovups   %xmm1, -16(%rsi)                              #108.5
..LN1731:
        vmovups   %xmm2, -32(%rsi)                              #108.5
..LN1732:
        vmovups   %xmm3, -48(%rsi)                              #108.5
..LN1733:
        subq      $64, %rdx                                     #108.5
..LN1734:
        jne       ..B6.8        # Prob 75%                      #108.5
..LN1735:
                                # LOE rax rdx rbx rbp r8 r12 r13 r14 r15
..B6.7:                         # Preds ..B6.8
..LN1736:
        vmovups   .2.52_2__offload_var_desc2_p.33(%rip), %xmm0  #108.5
..LN1737:
        lea       352(%rsp), %r11                               #108.5
..LN1738:
        movq      %r11, -168(%r11)                              #108.5
..LN1739:
        lea       -24(%r11), %rdx                               #108.5
..LN1740:
        movq      %rdx, -80(%rdx)                               #108.5
..LN1741:
        lea       8(%rdx), %rcx                                 #108.5
..LN1742:
        movq      %rcx, -16(%rdx)                               #108.5
..LN1743:
        lea       (%rsp), %r9                                   #108.5
..LN1744:
        lea       16+.2.52_2__offload_var_desc2_p.33(%rip), %rcx #108.5
..LN1745:
        vmovups   (%rcx), %xmm1                                 #108.5
..LN1746:
        lea       16(%rdx), %r10                                #108.5
..LN1747:
        addq      $-32, %rsp                                    #108.5
	.cfi_def_cfa_offset 400
..LN1748:
        movl      $__sd_2inst_string.19, %esi                   #108.5
..LN1749:
        movq      %r10, 56(%r8)                                 #108.5
..LN1750:
        xorl      %r10d, %r10d                                  #108.5
..LN1751:
        vmovups   16(%rcx), %xmm2                               #108.5
..LN1752:
        movq      %rax, %rdi                                    #108.5
..LN1753:
        vmovups   32(%rcx), %xmm3                               #108.5
..LN1754:
        xorl      %edx, %edx                                    #108.5
..LN1755:
        movl      $4, %ecx                                      #108.5
..LN1756:
        xorl      %eax, %eax                                    #108.5
..LN1757:
        movq      %r10, (%rsp)                                  #108.5
..LN1758:
        movq      %r10, 8(%rsp)                                 #108.5
..LN1759:
        vmovups   %xmm0, (%r9)                                  #108.5
..LN1760:
        vmovups   %xmm1, 16(%r9)                                #108.5
..LN1761:
        vmovups   %xmm2, 32(%r9)                                #108.5
..LN1762:
        vmovups   %xmm3, 48(%r9)                                #108.5
..LN1763:
        movq      $1, 32(%r8)                                   #108.5
..LN1764:
        movq      %r10, 16(%rsp)                                #108.5
..___tag_value__Z6callEsPfll.454:
..LN1765:
        call      __offload_offload1                            #108.5
..___tag_value__Z6callEsPfll.455:
..LN1766:
                                # LOE rbx rbp r12 r13 r14 r15
..B6.10:                        # Preds ..B6.7
..LN1767:
        addq      $32, %rsp                                     #108.5
	.cfi_def_cfa_offset 368
..LN1768:
                                # LOE rbx rbp r12 r13 r14 r15
..B6.4:                         # Preds ..B6.2 ..B6.10
..LN1769:
	.loc    1  115  is_stmt 1
        vmovsd    352(%rsp), %xmm0                              #115.12
..LN1770:
	.loc    1  115  epilogue_begin  is_stmt 1
        addq      $360, %rsp                                    #115.12
	.cfi_def_cfa_offset 8
..LN1771:
        ret                                                     #115.12
        .align    16,0x90
	.cfi_endproc
..LN1772:
                                # LOE
..LN1773:
# mark_end;
	.type	_Z6callEsPfll,@function
	.size	_Z6callEsPfll,.-_Z6callEsPfll
..LN_Z6callEsPfll.1774:
.LN_Z6callEsPfll:
	.data
	.space 1, 0x00 	# pad
	.align 16
.2.52_2__offload_var_desc1_p.28:
	.byte	34
	.byte	1
	.byte	1
	.byte	1
	.long	8
	.long	0
	.long	0
	.long	0x00000000,0x00000000
	.long	0x00000008,0x00000000
	.long	0x00000001,0x00000000
	.long	0x00000000,0x00000000
	.long	0x00000000,0x00000000
	.long	0x00000000,0x00000000
	.byte	17
	.byte	3
	.byte	1
	.byte	1
	.long	8
	.long	0
	.long	0
	.long	0x00000000,0x00000000
	.long	0x00000008,0x00000000
	.long	0x00000001,0x00000000
	.long	0x00000000,0x00000000
	.long	0x00000000,0x00000000
	.long	0x00000000,0x00000000
	.byte	17
	.byte	3
	.byte	1
	.byte	1
	.long	8
	.long	0
	.long	0
	.long	0x00000000,0x00000000
	.long	0x00000008,0x00000000
	.long	0x00000001,0x00000000
	.long	0x00000000,0x00000000
	.long	0x00000000,0x00000000
	.long	0x00000000,0x00000000
	.byte	17
	.byte	3
	.byte	1
	.byte	1
	.long	8
	.long	0
	.long	0
	.long	0x00000000,0x00000000
	.long	0x00000008,0x00000000
	.long	0x00000001,0x00000000
	.long	0x00000000,0x00000000
	.long	0x00000000,0x00000000
	.long	0x00000000,0x00000000
	.align 16
.2.52_2__offload_var_desc2_p.33:
	.quad	__sd_2inst_string.20
	.long	0x00000000,0x00000000
	.quad	__sd_2inst_string.21
	.long	0x00000000,0x00000000
	.quad	__sd_2inst_string.22
	.long	0x00000000,0x00000000
	.quad	__sd_2inst_string.23
	.long	0x00000000,0x00000000
	.section .rodata, "a"
	.space 2, 0x00 	# pad
	.align 4
__sd_2inst_string.17:
	.byte	95
	.byte	95
	.byte	111
	.byte	102
	.byte	102
	.byte	108
	.byte	111
	.byte	97
	.byte	100
	.byte	95
	.byte	101
	.byte	110
	.byte	116
	.byte	114
	.byte	121
	.byte	95
	.byte	99
	.byte	111
	.byte	109
	.byte	112
	.byte	117
	.byte	116
	.byte	101
	.byte	98
	.byte	111
	.byte	117
	.byte	110
	.byte	100
	.byte	95
	.byte	99
	.byte	97
	.byte	108
	.byte	117
	.byte	95
	.byte	99
	.byte	112
	.byte	112
	.byte	95
	.byte	49
	.byte	48
	.byte	56
	.byte	99
	.byte	97
	.byte	108
	.byte	108
	.byte	69
	.byte	115
	.byte	95
	.byte	49
	.byte	99
	.byte	101
	.byte	48
	.byte	57
	.byte	57
	.byte	100
	.byte	101
	.byte	98
	.byte	100
	.byte	56
	.byte	98
	.byte	51
	.byte	97
	.byte	50
	.byte	57
	.byte	53
	.byte	50
	.byte	101
	.byte	50
	.byte	99
	.byte	51
	.byte	56
	.byte	102
	.byte	100
	.byte	55
	.byte	55
	.byte	99
	.byte	52
	.byte	102
	.byte	51
	.byte	100
	.byte	105
	.byte	99
	.byte	99
	.byte	48
	.byte	49
	.byte	48
	.byte	55
	.byte	54
	.byte	54
	.byte	50
	.byte	56
	.byte	55
	.byte	52
	.byte	55
	.byte	53
	.byte	84
	.byte	56
	.byte	108
	.byte	100
	.byte	117
	.byte	48
	.byte	0
	.space 2, 0x00 	# pad
	.align 4
__sd_2inst_string.18:
	.byte	99
	.byte	111
	.byte	109
	.byte	112
	.byte	117
	.byte	116
	.byte	101
	.byte	98
	.byte	111
	.byte	117
	.byte	110
	.byte	100
	.byte	95
	.byte	99
	.byte	97
	.byte	108
	.byte	117
	.byte	46
	.byte	99
	.byte	112
	.byte	112
	.byte	0
	.space 2, 0x00 	# pad
	.align 4
__sd_2inst_string.20:
	.byte	112
	.byte	65
	.byte	95
	.byte	109
	.byte	105
	.byte	99
	.byte	0
	.space 1, 0x00 	# pad
	.align 4
__sd_2inst_string.21:
	.byte	116
	.byte	105
	.byte	109
	.byte	101
	.byte	0
	.space 3, 0x00 	# pad
	.align 4
__sd_2inst_string.22:
	.byte	78
	.byte	0
	.space 2, 0x00 	# pad
	.align 4
__sd_2inst_string.23:
	.byte	77
	.byte	0
	.space 2, 0x00 	# pad
	.align 4
__sd_2inst_string.19:
	.byte	95
	.byte	95
	.byte	111
	.byte	102
	.byte	102
	.byte	108
	.byte	111
	.byte	97
	.byte	100
	.byte	95
	.byte	101
	.byte	110
	.byte	116
	.byte	114
	.byte	121
	.byte	95
	.byte	99
	.byte	111
	.byte	109
	.byte	112
	.byte	117
	.byte	116
	.byte	101
	.byte	98
	.byte	111
	.byte	117
	.byte	110
	.byte	100
	.byte	95
	.byte	99
	.byte	97
	.byte	108
	.byte	117
	.byte	95
	.byte	99
	.byte	112
	.byte	112
	.byte	95
	.byte	49
	.byte	48
	.byte	56
	.byte	99
	.byte	97
	.byte	108
	.byte	108
	.byte	69
	.byte	115
	.byte	95
	.byte	49
	.byte	99
	.byte	101
	.byte	48
	.byte	57
	.byte	57
	.byte	100
	.byte	101
	.byte	98
	.byte	100
	.byte	56
	.byte	98
	.byte	51
	.byte	97
	.byte	50
	.byte	57
	.byte	53
	.byte	50
	.byte	101
	.byte	50
	.byte	99
	.byte	51
	.byte	56
	.byte	102
	.byte	100
	.byte	55
	.byte	55
	.byte	99
	.byte	52
	.byte	102
	.byte	51
	.byte	100
	.byte	105
	.byte	99
	.byte	99
	.byte	48
	.byte	49
	.byte	48
	.byte	55
	.byte	54
	.byte	54
	.byte	50
	.byte	56
	.byte	55
	.byte	52
	.byte	55
	.byte	53
	.byte	84
	.byte	56
	.byte	108
	.byte	100
	.byte	117
	.byte	48
	.byte	0
	.section .OffloadEntryTable., "waG",@progbits,__offload_entry_computebound_calu_cpp_108callEs_1ce099debd8b3a2952e2c38fd77c4f3dicc010766287475T8ldu0_$entry,comdat
	.align 16
__offload_entry_computebound_calu_cpp_108callEs_1ce099debd8b3a2952e2c38fd77c4f3dicc010766287475T8ldu0_$entry:
	.type	__offload_entry_computebound_calu_cpp_108callEs_1ce099debd8b3a2952e2c38fd77c4f3dicc010766287475T8ldu0_$entry,@object
	.size	__offload_entry_computebound_calu_cpp_108callEs_1ce099debd8b3a2952e2c38fd77c4f3dicc010766287475T8ldu0_$entry,16
	.quad	__sd_2inst_string.17
	.quad	__sd_2inst_string.17
	.data
# -- End  _Z6callEsPfll
	.text
.L_2__routine_start__Z4eaScPfll_6:
# -- Begin  _Z4eaScPfll, L__Z4eaScPfll_88__par_loop0_2.13
	.text
# mark_begin;
       .align    16,0x90
	.globl _Z4eaScPfll
# --- eaSc(float *, long, long)
_Z4eaScPfll:
# parameter 1(A): %rdi
# parameter 2(N): %rsi
# parameter 3(M): %rdx
..B7.1:                         # Preds ..B7.0
	.cfi_startproc
	.cfi_personality 0x3,__gxx_personality_v0
..___tag_value__Z4eaScPfll.462:
..L463:
                                                        #86.1
..LN1775:
	.loc    1  86  is_stmt 1
        subq      $88, %rsp                                     #86.1
	.cfi_def_cfa_offset 96
..LN1776:
        movq      %rdi, (%rsp)                                  #86.1
..LN1777:
	.loc    1  88  prologue_end  is_stmt 1
        movl      $.2.53_2_kmpc_loc_struct_pack.12, %edi        #88.5
..LN1778:
	.loc    1  86  is_stmt 1
        movq      %rbp, 48(%rsp)                                #86.1
..LN1779:
        movq      %rbx, 40(%rsp)                                #86.1
..LN1780:
        movq      %r15, 8(%rsp)                                 #86.1
..LN1781:
        movq      %r14, 16(%rsp)                                #86.1
..LN1782:
        movq      %r13, 24(%rsp)                                #86.1
..LN1783:
        movq      %r12, 32(%rsp)                                #86.1
..LN1784:
        movq      %rsi, 56(%rsp)                                #86.1
..LN1785:
        movq      %rdx, 64(%rsp)                                #86.1
..LN1786:
	.loc    1  88  is_stmt 1
        call      __kmpc_global_thread_num                      #88.5
	.cfi_offset 3, -56
	.cfi_offset 6, -48
	.cfi_offset 12, -64
	.cfi_offset 13, -72
	.cfi_offset 14, -80
	.cfi_offset 15, -88
..LN1787:
                                # LOE eax
..B7.26:                        # Preds ..B7.1
..LN1788:
        movl      %eax, 72(%rsp)                                #88.5
..LN1789:
        movl      $.2.53_2_kmpc_loc_struct_pack.20, %edi        #88.5
..LN1790:
        xorl      %eax, %eax                                    #88.5
..___tag_value__Z4eaScPfll.472:
..LN1791:
        call      __kmpc_ok_to_fork                             #88.5
..___tag_value__Z4eaScPfll.473:
..LN1792:
                                # LOE eax
..B7.2:                         # Preds ..B7.26
..LN1793:
        testl     %eax, %eax                                    #88.5
..LN1794:
        je        ..B7.4        # Prob 50%                      #88.5
..LN1795:
                                # LOE
..B7.3:                         # Preds ..B7.2
..LN1796:
        movl      $L__Z4eaScPfll_88__par_loop0_2.13, %edx       #88.5
..LN1797:
        lea       56(%rsp), %rcx                                #88.5
..LN1798:
        movl      $.2.53_2_kmpc_loc_struct_pack.20, %edi        #88.5
..LN1799:
        lea       8(%rcx), %r8                                  #88.5
..LN1800:
        movl      $3, %esi                                      #88.5
..LN1801:
        lea       (%rsp), %r9                                   #88.5
..LN1802:
        xorl      %eax, %eax                                    #88.5
..___tag_value__Z4eaScPfll.474:
..LN1803:
        call      __kmpc_fork_call                              #88.5
..___tag_value__Z4eaScPfll.475:
..LN1804:
        jmp       ..B7.7        # Prob 100%                     #88.5
..LN1805:
                                # LOE
..B7.4:                         # Preds ..B7.2
..LN1806:
        movl      $.2.53_2_kmpc_loc_struct_pack.20, %edi        #88.5
..LN1807:
        xorl      %eax, %eax                                    #88.5
..LN1808:
        movl      72(%rsp), %esi                                #88.5
..___tag_value__Z4eaScPfll.476:
..LN1809:
        call      __kmpc_serialized_parallel                    #88.5
..___tag_value__Z4eaScPfll.477:
..LN1810:
                                # LOE
..B7.5:                         # Preds ..B7.4
..LN1811:
        movl      $___kmpv_zero_Z4eaScPfll_0, %esi              #88.5
..LN1812:
        lea       72(%rsp), %rdi                                #88.5
..LN1813:
        lea       -16(%rdi), %rdx                               #88.5
..LN1814:
        lea       8(%rdx), %rcx                                 #88.5
..LN1815:
        lea       (%rsp), %r8                                   #88.5
..___tag_value__Z4eaScPfll.478:
..LN1816:
        call      L__Z4eaScPfll_88__par_loop0_2.13              #88.5
..___tag_value__Z4eaScPfll.479:
..LN1817:
                                # LOE
..B7.6:                         # Preds ..B7.5
..LN1818:
        movl      $.2.53_2_kmpc_loc_struct_pack.20, %edi        #88.5
..LN1819:
        xorl      %eax, %eax                                    #88.5
..LN1820:
        movl      72(%rsp), %esi                                #88.5
..___tag_value__Z4eaScPfll.480:
..LN1821:
        call      __kmpc_end_serialized_parallel                #88.5
..___tag_value__Z4eaScPfll.481:
..LN1822:
                                # LOE
..B7.7:                         # Preds ..B7.3 ..B7.6
..LN1823:
	.loc    1  101  is_stmt 1
        movq      8(%rsp), %r15                                 #101.1
	.cfi_restore 15
..LN1824:
        movq      16(%rsp), %r14                                #101.1
	.cfi_restore 14
..LN1825:
        movq      24(%rsp), %r13                                #101.1
	.cfi_restore 13
..LN1826:
        movq      32(%rsp), %r12                                #101.1
	.cfi_restore 12
..LN1827:
        movq      40(%rsp), %rbx                                #101.1
	.cfi_restore 3
..LN1828:
        movq      48(%rsp), %rbp                                #101.1
	.cfi_restore 6
..LN1829:
	.loc    1  101  epilogue_begin  is_stmt 1
        addq      $88, %rsp                                     #101.1
	.cfi_def_cfa_offset 8
..LN1830:
        ret                                                     #101.1
	.cfi_def_cfa_offset 96
..LN1831:
                                # LOE
L__Z4eaScPfll_88__par_loop0_2.13:
# parameter 1: %rdi
# parameter 2: %rsi
# parameter 3: %rdx
# parameter 4: %rcx
# parameter 5: %r8
..B7.8:                         # Preds ..B7.0
..LN1832:
	.loc    1  88  is_stmt 1
        subq      $88, %rsp                                     #88.5
..LN1833:
        movq      %r13, 24(%rsp)                                #88.5
	.cfi_offset 13, -72
..LN1834:
        movq      (%r8), %r13                                   #88.5
..LN1835:
        movq      (%rdx), %r8                                   #88.5
..LN1836:
        movq      %rbx, 40(%rsp)                                #88.5
..LN1837:
        movq      %r14, 16(%rsp)                                #88.5
..LN1838:
        movq      %rbp, 48(%rsp)                                #88.5
..LN1839:
        movq      %r15, 8(%rsp)                                 #88.5
..LN1840:
        movq      %r12, 32(%rsp)                                #88.5
	.cfi_offset 3, -56
	.cfi_offset 6, -48
	.cfi_offset 12, -64
	.cfi_offset 14, -80
	.cfi_offset 15, -88
..LN1841:
        movl      (%rdi), %r14d                                 #88.5
..LN1842:
        movq      (%rcx), %rbx                                  #88.5
..LN1843:
	.loc    1  89  prologue_end  is_stmt 1
        testq     %r8, %r8                                      #89.39
..LN1844:
        jle       ..B7.14       # Prob 10%                      #89.39
..LN1845:
                                # LOE rbx r8 r13 r14d
..B7.9:                         # Preds ..B7.8
..LN1846:
	.loc    1  88  is_stmt 1
        decq      %r8                                           #88.5
..LN1847:
        xorl      %r12d, %r12d                                  #88.5
..LN1848:
        movl      %r12d, 56(%rsp)                               #88.5
..LN1849:
        movl      $.2.53_2_kmpc_loc_struct_pack.20, %edi        #88.5
..LN1850:
        movl      %r8d, 60(%rsp)                                #88.5
..LN1851:
        movl      %r14d, %esi                                   #88.5
..LN1852:
        movl      %r12d, 64(%rsp)                               #88.5
..LN1853:
        movl      $35, %edx                                     #88.5
..LN1854:
        movl      $8, 68(%rsp)                                  #88.5
..LN1855:
        addq      $-16, %rsp                                    #88.5
	.cfi_def_cfa_offset 112
..LN1856:
        xorl      %ecx, %ecx                                    #88.5
..LN1857:
        movl      $8, %r9d                                      #88.5
..LN1858:
        xorl      %eax, %eax                                    #88.5
..LN1859:
        movl      $1, (%rsp)                                    #88.5
..___tag_value__Z4eaScPfll.500:
..LN1860:
        call      __kmpc_dispatch_init_4                        #88.5
..___tag_value__Z4eaScPfll.501:
..LN1861:
                                # LOE rbx r13 r12d r14d
..B7.27:                        # Preds ..B7.9
..LN1862:
        addq      $16, %rsp                                     #88.5
	.cfi_def_cfa_offset 96
..LN1863:
                                # LOE rbx r13 r12d r14d
..B7.10:                        # Preds ..B7.27
..LN1864:
	.loc    1  96  is_stmt 1
        vmovss    .L_2il0floatpacket.11(%rip), %xmm0            #96.28
..LN1865:
	.loc    1  88  is_stmt 1
        lea       64(%rsp), %rdx                                #88.5
..LN1866:
        movq      %rbx, (%rsp)                                  #88.5
..LN1867:
        lea       -8(%rdx), %rbp                                #88.5
..LN1868:
        movq      %rdx, %rbx                                    #88.5
..LN1869:
        lea       4(%rdx), %r15                                 #88.5
..LN1870:
                                # LOE rbx rbp r13 r15 r12d r14d
..B7.11:                        # Preds ..B7.21 ..B7.19 ..B7.10
..L503:         # optimization report
                # %s was not vectorized: loop control variable was not identified. Explicitly compute the iteration count before executing the loop or try using canonical loop form
..LN1871:
        lea       60(%rsp), %r8                                 #88.5
..LN1872:
        movl      $.2.53_2_kmpc_loc_struct_pack.20, %edi        #88.5
..LN1873:
        movl      %r14d, %esi                                   #88.5
..LN1874:
        movq      %rbx, %rdx                                    #88.5
..LN1875:
        movq      %rbp, %rcx                                    #88.5
..LN1876:
        movq      %r15, %r9                                     #88.5
..LN1877:
        xorl      %eax, %eax                                    #88.5
..___tag_value__Z4eaScPfll.504:
..LN1878:
        call      __kmpc_dispatch_next_4                        #88.5
..___tag_value__Z4eaScPfll.505:
..LN1879:
                                # LOE rbx rbp r13 r15 eax r12d r14d
..B7.12:                        # Preds ..B7.11
..LN1880:
        movl      56(%rsp), %r10d                               #88.5
..LN1881:
        movl      60(%rsp), %r8d                                #88.5
..LN1882:
        testl     %eax, %eax                                    #88.5
..LN1883:
        jne       ..B7.15       # Prob 50%                      #88.5
..LN1884:
                                # LOE rbx rbp r13 r15 r8d r10d r12d r14d
..B7.14:                        # Preds ..B7.12 ..B7.8
..LN1885:
        movq      8(%rsp), %r15                                 #88.5
	.cfi_restore 15
..LN1886:
        movq      16(%rsp), %r14                                #88.5
	.cfi_restore 14
..LN1887:
        movq      24(%rsp), %r13                                #88.5
	.cfi_restore 13
..LN1888:
        movq      32(%rsp), %r12                                #88.5
	.cfi_restore 12
..LN1889:
        movq      40(%rsp), %rbx                                #88.5
	.cfi_restore 3
..LN1890:
        movq      48(%rsp), %rbp                                #88.5
	.cfi_restore 6
..LN1891:
	.loc    1  88  epilogue_begin  is_stmt 1
        addq      $88, %rsp                                     #88.5
	.cfi_def_cfa_offset 8
..LN1892:
        ret                                                     #88.5
	.cfi_def_cfa_offset 96
	.cfi_offset 3, -56
	.cfi_offset 6, -48
	.cfi_offset 12, -64
	.cfi_offset 13, -72
	.cfi_offset 14, -80
	.cfi_offset 15, -88
..LN1893:
                                # LOE
..B7.15:                        # Preds ..B7.12
..LN1894:
        movl      %r8d, %eax                                    #88.5
..LN1895:
	.loc    1  89  is_stmt 1
        movl      %r12d, %edi                                   #89.5
..LN1896:
	.loc    1  88  is_stmt 1
        subl      %r10d, %eax                                   #88.5
..LN1897:
        addl      $8, %eax                                      #88.5
..LN1898:
        sarl      $2, %eax                                      #88.5
..LN1899:
        shrl      $29, %eax                                     #88.5
..LN1900:
        subl      %r10d, %eax                                   #88.5
..LN1901:
	.loc    1  95  is_stmt 1
        movslq    %r10d, %r10                                   #95.21
..LN1902:
        vmovss    .L_2il0floatpacket.11(%rip), %xmm0            #95.21
..LN1903:
        movq      (%rsp), %rdx                                  #95.21
..LN1904:
	.loc    1  88  is_stmt 1
        lea       8(%rax,%r8), %eax                             #88.5
..LN1905:
        sarl      $3, %eax                                      #88.5
..LN1906:
	.loc    1  95  is_stmt 1
        lea       (%r13,%r10,4), %r8                            #95.21
..LN1907:
                                # LOE rdx rbx rbp r8 r13 r15 eax edi r12d r14d xmm0
..B7.16:                        # Preds ..B7.21 ..B7.19 ..B7.15
..L521:         # optimization report
                # OPENMP LOOP
                # %s was not vectorized: novector directive used
                # VECTOR TRIP COUNT IS ESTIMATED CONSTANT
..LN1908:
	.loc    1  91  is_stmt 1
        xorl      %r10d, %r10d                                  #91.9
..LN1909:
        testq     %rdx, %rdx                                    #91.38
..LN1910:
        jle       ..B7.21       # Prob 10%                      #91.38
..LN1911:
                                # LOE rdx rbx rbp r8 r10 r13 r15 eax edi r12d r14d xmm0
..B7.17:                        # Preds ..B7.16
..LN1912:
	.loc    1  95  is_stmt 1
        lea       (,%rdi,8), %r11d                              #95.21
..LN1913:
        movslq    %r11d, %r11                                   #95.21
..LN1914:
        vmovss    28(%r8,%r11,4), %xmm8                         #95.21
..LN1915:
        vmovss    24(%r8,%r11,4), %xmm7                         #95.21
..LN1916:
        vmovss    20(%r8,%r11,4), %xmm6                         #95.21
..LN1917:
        vmovss    16(%r8,%r11,4), %xmm5                         #95.21
..LN1918:
        vmovss    12(%r8,%r11,4), %xmm4                         #95.21
..LN1919:
        vmovss    8(%r8,%r11,4), %xmm3                          #95.21
..LN1920:
        vmovss    4(%r8,%r11,4), %xmm2                          #95.21
..LN1921:
        vmovss    (%r8,%r11,4), %xmm1                           #95.21
        .align    16,0x90
..LN1922:
                                # LOE rdx rbx rbp r8 r10 r11 r13 r15 eax edi r12d r14d xmm0 xmm1 xmm2 xmm3 xmm4 xmm5 xmm6 xmm7 xmm8
..B7.18:                        # Preds ..B7.18 ..B7.17
..L523:         # optimization report
                # LOOP WAS COMPLETELY UNROLLED BY 8
                # %s was not vectorized: novector directive used
                # VECTOR TRIP COUNT IS KNOWN CONSTANT
..L522:         # optimization report
                # %s was not vectorized: novector directive used
                # VECTOR TRIP COUNT IS ESTIMATED CONSTANT
..LN1923:
	.loc    1  96  is_stmt 1
        vmulss    %xmm1, %xmm1, %xmm1                           #96.25
..LN1924:
	.loc    1  91  is_stmt 1
        incl      %r10d                                         #91.9
..LN1925:
	.loc    1  96  is_stmt 1
        vmulss    %xmm2, %xmm2, %xmm2                           #96.25
..LN1926:
        vmulss    %xmm3, %xmm3, %xmm3                           #96.25
..LN1927:
        vmulss    %xmm4, %xmm4, %xmm4                           #96.25
..LN1928:
        vmulss    %xmm5, %xmm5, %xmm5                           #96.25
..LN1929:
        vsubss    %xmm0, %xmm1, %xmm1                           #96.28
..LN1930:
        vsubss    %xmm0, %xmm2, %xmm2                           #96.28
..LN1931:
        vsubss    %xmm0, %xmm3, %xmm3                           #96.28
..LN1932:
        vsubss    %xmm0, %xmm4, %xmm4                           #96.28
..LN1933:
        vsubss    %xmm0, %xmm5, %xmm5                           #96.28
..LN1934:
        vmulss    %xmm6, %xmm6, %xmm6                           #96.25
..LN1935:
        vmulss    %xmm7, %xmm7, %xmm7                           #96.25
..LN1936:
        vmulss    %xmm8, %xmm8, %xmm8                           #96.25
..LN1937:
        vsubss    %xmm0, %xmm6, %xmm6                           #96.28
..LN1938:
        vsubss    %xmm0, %xmm7, %xmm7                           #96.28
..LN1939:
        vsubss    %xmm0, %xmm8, %xmm8                           #96.28
..LN1940:
	.loc    1  91  is_stmt 1
        cmpq      %rdx, %r10                                    #91.9
..LN1941:
        jb        ..B7.18       # Prob 82%                      #91.9
..LN1942:
                                # LOE rdx rbx rbp r8 r10 r11 r13 r15 eax edi r12d r14d xmm0 xmm1 xmm2 xmm3 xmm4 xmm5 xmm6 xmm7 xmm8
..B7.19:                        # Preds ..B7.18
..LN1943:
	.loc    1  89  is_stmt 1
        incl      %edi                                          #89.5
..LN1944:
	.loc    1  97  is_stmt 1
        vmovss    %xmm8, 28(%r8,%r11,4)                         #97.17
..LN1945:
        vmovss    %xmm7, 24(%r8,%r11,4)                         #97.17
..LN1946:
        vmovss    %xmm6, 20(%r8,%r11,4)                         #97.17
..LN1947:
        vmovss    %xmm5, 16(%r8,%r11,4)                         #97.17
..LN1948:
        vmovss    %xmm4, 12(%r8,%r11,4)                         #97.17
..LN1949:
        vmovss    %xmm3, 8(%r8,%r11,4)                          #97.17
..LN1950:
        vmovss    %xmm2, 4(%r8,%r11,4)                          #97.17
..LN1951:
        vmovss    %xmm1, (%r8,%r11,4)                           #97.17
..LN1952:
	.loc    1  89  is_stmt 1
        cmpl      %eax, %edi                                    #89.5
..LN1953:
        jb        ..B7.16       # Prob 82%                      #89.5
..LN1954:
        jmp       ..B7.11       # Prob 100%                     #89.5
..LN1955:
                                # LOE rdx rbx rbp r8 r13 r15 eax edi r12d r14d xmm0
..B7.21:                        # Preds ..B7.16                 # Infreq
..LN1956:
        incl      %edi                                          #89.5
..LN1957:
        cmpl      %eax, %edi                                    #89.5
..LN1958:
        jb        ..B7.16       # Prob 82%                      #89.5
..LN1959:
        jmp       ..B7.11       # Prob 100%                     #89.5
        .align    16,0x90
	.cfi_endproc
..LN1960:
                                # LOE rdx rbx rbp r8 r13 r15 eax edi r12d r14d xmm0
..LN1961:
# mark_end;
	.type	_Z4eaScPfll,@function
	.size	_Z4eaScPfll,.-_Z4eaScPfll
..LN_Z4eaScPfll.1962:
.LN_Z4eaScPfll:
	.data
	.align 4
.2.53_2_kmpc_loc_struct_pack.12:
	.long	0
	.long	2
	.long	0
	.long	0
	.quad	.2.53_2__kmpc_loc_pack.11
	.align 4
.2.53_2__kmpc_loc_pack.11:
	.byte	59
	.byte	117
	.byte	110
	.byte	107
	.byte	110
	.byte	111
	.byte	119
	.byte	110
	.byte	59
	.byte	101
	.byte	97
	.byte	83
	.byte	99
	.byte	59
	.byte	56
	.byte	56
	.byte	59
	.byte	56
	.byte	56
	.byte	59
	.byte	59
	.space 3, 0x00 	# pad
	.align 4
.2.53_2_kmpc_loc_struct_pack.20:
	.long	0
	.long	2
	.long	0
	.long	0
	.quad	.2.53_2__kmpc_loc_pack.19
	.align 4
.2.53_2__kmpc_loc_pack.19:
	.byte	59
	.byte	117
	.byte	110
	.byte	107
	.byte	110
	.byte	111
	.byte	119
	.byte	110
	.byte	59
	.byte	101
	.byte	97
	.byte	83
	.byte	99
	.byte	59
	.byte	56
	.byte	56
	.byte	59
	.byte	49
	.byte	48
	.byte	48
	.byte	59
	.byte	59
	.data
# -- End  _Z4eaScPfll, L__Z4eaScPfll_88__par_loop0_2.13
	.text
.L_2__routine_start__Z6callEaPfll_7:
# -- Begin  _Z6callEaPfll
	.text
# mark_begin;
       .align    16,0x90
	.globl _Z6callEaPfll
# --- callEa(float *, long, long)
_Z6callEaPfll:
# parameter 1(A): %rdi
# parameter 2(N): %rsi
# parameter 3(M): %rdx
..B8.1:                         # Preds ..B8.0
	.cfi_startproc
	.cfi_personality 0x3,__gxx_personality_v0
..___tag_value__Z6callEaPfll.529:
..L530:
                                                        #72.66
..LN1963:
	.loc    1  72  is_stmt 1
        subq      $360, %rsp                                    #72.66
	.cfi_def_cfa_offset 368
..LN1964:
	.loc    1  75  prologue_end  is_stmt 1
        movl      $__sd_2inst_string.25, %r8d                   #75.5
..LN1965:
	.loc    1  72  is_stmt 1
        movq      %rsi, 328(%rsp)                               #72.66
..LN1966:
	.loc    1  75  is_stmt 1
        xorl      %esi, %esi                                    #75.5
..LN1967:
	.loc    1  72  is_stmt 1
        movq      %rdi, 320(%rsp)                               #72.66
..LN1968:
	.loc    1  73  is_stmt 1
        lea       320(%rsp), %rax                               #73.37
..LN1969:
	.loc    1  72  is_stmt 1
        movq      %rdx, 16(%rax)                                #72.66
..LN1970:
	.loc    1  75  is_stmt 1
        movl      $2, %edi                                      #75.5
..LN1971:
	.loc    1  73  is_stmt 1
        movq      %rax, 24(%rax)                                #73.34
..LN1972:
	.loc    1  75  is_stmt 1
        xorl      %edx, %edx                                    #75.5
..LN1973:
        xorl      %ecx, %ecx                                    #75.5
..LN1974:
        movl      $75, %r9d                                     #75.5
..LN1975:
        xorl      %eax, %eax                                    #75.5
..LN1976:
	.loc    1  74  is_stmt 1
        movq      $0, 352(%rsp)                                 #74.16
..___tag_value__Z6callEaPfll.533:
..LN1977:
	.loc    1  75  is_stmt 1
        call      __offload_target_acquire                      #75.5
..___tag_value__Z6callEaPfll.534:
..LN1978:
                                # LOE rax rbx rbp r12 r13 r14 r15
..B8.2:                         # Preds ..B8.1
..LN1979:
        testq     %rax, %rax                                    #75.5
..LN1980:
        je        ..B8.4        # Prob 50%                      #75.5
..LN1981:
                                # LOE rax rbx rbp r12 r13 r14 r15
..B8.3:                         # Preds ..B8.2
..LN1982:
        movl      $256, %edx                                    #75.5
..LN1983:
        lea       64(%rsp), %r8                                 #75.5
..LN1984:
                                # LOE rax rdx rbx rbp r8 r12 r13 r14 r15
..B8.8:                         # Preds ..B8.8 ..B8.3
..LN1985:
        lea       -16+.2.54_2__offload_var_desc1_p.28(%rdx), %rcx #75.5
..LN1986:
        vmovups   (%rcx), %xmm0                                 #75.5
..LN1987:
        vmovups   -16(%rcx), %xmm1                              #75.5
..LN1988:
        vmovups   -32(%rcx), %xmm2                              #75.5
..LN1989:
        vmovups   -48(%rcx), %xmm3                              #75.5
..LN1990:
        lea       -16(%r8,%rdx), %rsi                           #75.5
..LN1991:
        vmovups   %xmm0, (%rsi)                                 #75.5
..LN1992:
        vmovups   %xmm1, -16(%rsi)                              #75.5
..LN1993:
        vmovups   %xmm2, -32(%rsi)                              #75.5
..LN1994:
        vmovups   %xmm3, -48(%rsi)                              #75.5
..LN1995:
        subq      $64, %rdx                                     #75.5
..LN1996:
        jne       ..B8.8        # Prob 75%                      #75.5
..LN1997:
                                # LOE rax rdx rbx rbp r8 r12 r13 r14 r15
..B8.7:                         # Preds ..B8.8
..LN1998:
        vmovups   .2.54_2__offload_var_desc2_p.33(%rip), %xmm0  #75.5
..LN1999:
        lea       352(%rsp), %r11                               #75.5
..LN2000:
        movq      %r11, -168(%r11)                              #75.5
..LN2001:
        lea       -24(%r11), %rdx                               #75.5
..LN2002:
        movq      %rdx, -80(%rdx)                               #75.5
..LN2003:
        lea       8(%rdx), %rcx                                 #75.5
..LN2004:
        movq      %rcx, -16(%rdx)                               #75.5
..LN2005:
        lea       (%rsp), %r9                                   #75.5
..LN2006:
        lea       16+.2.54_2__offload_var_desc2_p.33(%rip), %rcx #75.5
..LN2007:
        vmovups   (%rcx), %xmm1                                 #75.5
..LN2008:
        lea       16(%rdx), %r10                                #75.5
..LN2009:
        addq      $-32, %rsp                                    #75.5
	.cfi_def_cfa_offset 400
..LN2010:
        movl      $__sd_2inst_string.26, %esi                   #75.5
..LN2011:
        movq      %r10, 56(%r8)                                 #75.5
..LN2012:
        xorl      %r10d, %r10d                                  #75.5
..LN2013:
        vmovups   16(%rcx), %xmm2                               #75.5
..LN2014:
        movq      %rax, %rdi                                    #75.5
..LN2015:
        vmovups   32(%rcx), %xmm3                               #75.5
..LN2016:
        xorl      %edx, %edx                                    #75.5
..LN2017:
        movl      $4, %ecx                                      #75.5
..LN2018:
        xorl      %eax, %eax                                    #75.5
..LN2019:
        movq      %r10, (%rsp)                                  #75.5
..LN2020:
        movq      %r10, 8(%rsp)                                 #75.5
..LN2021:
        vmovups   %xmm0, (%r9)                                  #75.5
..LN2022:
        vmovups   %xmm1, 16(%r9)                                #75.5
..LN2023:
        vmovups   %xmm2, 32(%r9)                                #75.5
..LN2024:
        vmovups   %xmm3, 48(%r9)                                #75.5
..LN2025:
        movq      $1, 32(%r8)                                   #75.5
..LN2026:
        movq      %r10, 16(%rsp)                                #75.5
..___tag_value__Z6callEaPfll.536:
..LN2027:
        call      __offload_offload1                            #75.5
..___tag_value__Z6callEaPfll.537:
..LN2028:
                                # LOE rbx rbp r12 r13 r14 r15
..B8.10:                        # Preds ..B8.7
..LN2029:
        addq      $32, %rsp                                     #75.5
	.cfi_def_cfa_offset 368
..LN2030:
                                # LOE rbx rbp r12 r13 r14 r15
..B8.4:                         # Preds ..B8.2 ..B8.10
..LN2031:
	.loc    1  82  is_stmt 1
        vmovsd    352(%rsp), %xmm0                              #82.12
..LN2032:
	.loc    1  82  epilogue_begin  is_stmt 1
        addq      $360, %rsp                                    #82.12
	.cfi_def_cfa_offset 8
..LN2033:
        ret                                                     #82.12
        .align    16,0x90
	.cfi_endproc
..LN2034:
                                # LOE
..LN2035:
# mark_end;
	.type	_Z6callEaPfll,@function
	.size	_Z6callEaPfll,.-_Z6callEaPfll
..LN_Z6callEaPfll.2036:
.LN_Z6callEaPfll:
	.data
	.space 2, 0x00 	# pad
	.align 16
.2.54_2__offload_var_desc1_p.28:
	.byte	34
	.byte	1
	.byte	1
	.byte	1
	.long	8
	.long	0
	.long	0
	.long	0x00000000,0x00000000
	.long	0x00000008,0x00000000
	.long	0x00000001,0x00000000
	.long	0x00000000,0x00000000
	.long	0x00000000,0x00000000
	.long	0x00000000,0x00000000
	.byte	17
	.byte	3
	.byte	1
	.byte	1
	.long	8
	.long	0
	.long	0
	.long	0x00000000,0x00000000
	.long	0x00000008,0x00000000
	.long	0x00000001,0x00000000
	.long	0x00000000,0x00000000
	.long	0x00000000,0x00000000
	.long	0x00000000,0x00000000
	.byte	17
	.byte	3
	.byte	1
	.byte	1
	.long	8
	.long	0
	.long	0
	.long	0x00000000,0x00000000
	.long	0x00000008,0x00000000
	.long	0x00000001,0x00000000
	.long	0x00000000,0x00000000
	.long	0x00000000,0x00000000
	.long	0x00000000,0x00000000
	.byte	17
	.byte	3
	.byte	1
	.byte	1
	.long	8
	.long	0
	.long	0
	.long	0x00000000,0x00000000
	.long	0x00000008,0x00000000
	.long	0x00000001,0x00000000
	.long	0x00000000,0x00000000
	.long	0x00000000,0x00000000
	.long	0x00000000,0x00000000
	.align 16
.2.54_2__offload_var_desc2_p.33:
	.quad	__sd_2inst_string.27
	.long	0x00000000,0x00000000
	.quad	__sd_2inst_string.28
	.long	0x00000000,0x00000000
	.quad	__sd_2inst_string.29
	.long	0x00000000,0x00000000
	.quad	__sd_2inst_string.30
	.long	0x00000000,0x00000000
	.section .rodata, "a"
	.space 2, 0x00 	# pad
	.align 4
__sd_2inst_string.24:
	.byte	95
	.byte	95
	.byte	111
	.byte	102
	.byte	102
	.byte	108
	.byte	111
	.byte	97
	.byte	100
	.byte	95
	.byte	101
	.byte	110
	.byte	116
	.byte	114
	.byte	121
	.byte	95
	.byte	99
	.byte	111
	.byte	109
	.byte	112
	.byte	117
	.byte	116
	.byte	101
	.byte	98
	.byte	111
	.byte	117
	.byte	110
	.byte	100
	.byte	95
	.byte	99
	.byte	97
	.byte	108
	.byte	117
	.byte	95
	.byte	99
	.byte	112
	.byte	112
	.byte	95
	.byte	55
	.byte	53
	.byte	99
	.byte	97
	.byte	108
	.byte	108
	.byte	69
	.byte	97
	.byte	95
	.byte	51
	.byte	98
	.byte	54
	.byte	48
	.byte	57
	.byte	102
	.byte	49
	.byte	99
	.byte	51
	.byte	56
	.byte	56
	.byte	48
	.byte	57
	.byte	99
	.byte	101
	.byte	100
	.byte	49
	.byte	50
	.byte	54
	.byte	99
	.byte	51
	.byte	55
	.byte	97
	.byte	98
	.byte	52
	.byte	56
	.byte	50
	.byte	49
	.byte	55
	.byte	53
	.byte	102
	.byte	101
	.byte	105
	.byte	99
	.byte	99
	.byte	48
	.byte	49
	.byte	48
	.byte	55
	.byte	54
	.byte	54
	.byte	50
	.byte	56
	.byte	55
	.byte	52
	.byte	55
	.byte	53
	.byte	84
	.byte	56
	.byte	108
	.byte	100
	.byte	117
	.byte	48
	.byte	0
	.space 3, 0x00 	# pad
	.align 4
__sd_2inst_string.25:
	.byte	99
	.byte	111
	.byte	109
	.byte	112
	.byte	117
	.byte	116
	.byte	101
	.byte	98
	.byte	111
	.byte	117
	.byte	110
	.byte	100
	.byte	95
	.byte	99
	.byte	97
	.byte	108
	.byte	117
	.byte	46
	.byte	99
	.byte	112
	.byte	112
	.byte	0
	.space 2, 0x00 	# pad
	.align 4
__sd_2inst_string.27:
	.byte	112
	.byte	65
	.byte	95
	.byte	109
	.byte	105
	.byte	99
	.byte	0
	.space 1, 0x00 	# pad
	.align 4
__sd_2inst_string.28:
	.byte	116
	.byte	105
	.byte	109
	.byte	101
	.byte	0
	.space 3, 0x00 	# pad
	.align 4
__sd_2inst_string.29:
	.byte	78
	.byte	0
	.space 2, 0x00 	# pad
	.align 4
__sd_2inst_string.30:
	.byte	77
	.byte	0
	.space 2, 0x00 	# pad
	.align 4
__sd_2inst_string.26:
	.byte	95
	.byte	95
	.byte	111
	.byte	102
	.byte	102
	.byte	108
	.byte	111
	.byte	97
	.byte	100
	.byte	95
	.byte	101
	.byte	110
	.byte	116
	.byte	114
	.byte	121
	.byte	95
	.byte	99
	.byte	111
	.byte	109
	.byte	112
	.byte	117
	.byte	116
	.byte	101
	.byte	98
	.byte	111
	.byte	117
	.byte	110
	.byte	100
	.byte	95
	.byte	99
	.byte	97
	.byte	108
	.byte	117
	.byte	95
	.byte	99
	.byte	112
	.byte	112
	.byte	95
	.byte	55
	.byte	53
	.byte	99
	.byte	97
	.byte	108
	.byte	108
	.byte	69
	.byte	97
	.byte	95
	.byte	51
	.byte	98
	.byte	54
	.byte	48
	.byte	57
	.byte	102
	.byte	49
	.byte	99
	.byte	51
	.byte	56
	.byte	56
	.byte	48
	.byte	57
	.byte	99
	.byte	101
	.byte	100
	.byte	49
	.byte	50
	.byte	54
	.byte	99
	.byte	51
	.byte	55
	.byte	97
	.byte	98
	.byte	52
	.byte	56
	.byte	50
	.byte	49
	.byte	55
	.byte	53
	.byte	102
	.byte	101
	.byte	105
	.byte	99
	.byte	99
	.byte	48
	.byte	49
	.byte	48
	.byte	55
	.byte	54
	.byte	54
	.byte	50
	.byte	56
	.byte	55
	.byte	52
	.byte	55
	.byte	53
	.byte	84
	.byte	56
	.byte	108
	.byte	100
	.byte	117
	.byte	48
	.byte	0
	.section .OffloadEntryTable., "waG",@progbits,__offload_entry_computebound_calu_cpp_75callEa_3b609f1c38809ced126c37ab482175feicc010766287475T8ldu0_$entry,comdat
	.align 16
__offload_entry_computebound_calu_cpp_75callEa_3b609f1c38809ced126c37ab482175feicc010766287475T8ldu0_$entry:
	.type	__offload_entry_computebound_calu_cpp_75callEa_3b609f1c38809ced126c37ab482175feicc010766287475T8ldu0_$entry,@object
	.size	__offload_entry_computebound_calu_cpp_75callEa_3b609f1c38809ced126c37ab482175feicc010766287475T8ldu0_$entry,16
	.quad	__sd_2inst_string.24
	.quad	__sd_2inst_string.24
	.data
# -- End  _Z6callEaPfll
	.text
.L_2__routine_start__Z4easyPfll_8:
# -- Begin  _Z4easyPfll, L__Z4easyPfll_57__par_loop0_2.15
	.text
# mark_begin;
       .align    16,0x90
	.globl _Z4easyPfll
# --- easy(float *, long, long)
_Z4easyPfll:
# parameter 1(A): %rdi
# parameter 2(N): %rsi
# parameter 3(M): %rdx
..B9.1:                         # Preds ..B9.0
	.cfi_startproc
	.cfi_personality 0x3,__gxx_personality_v0
..___tag_value__Z4easyPfll.544:
..L545:
                                                        #56.1
..LN2037:
	.loc    1  56  is_stmt 1
        pushq     %rbp                                          #56.1
	.cfi_def_cfa_offset 16
..LN2038:
        movq      %rsp, %rbp                                    #56.1
	.cfi_def_cfa 6, 16
	.cfi_offset 6, -16
..LN2039:
        andq      $-32, %rsp                                    #56.1
..LN2040:
        subq      $96, %rsp                                     #56.1
