	.section .text
.LNDBG_TX:
# mark_description "Intel(R) C Intel(R) 64 Compiler for applications running on Intel(R) MIC Architecture, Version 16.0.0.109 Bu";
# mark_description "ild 20150815";
# mark_description " -I.. -I../pngwriter/include -qoffload -S -g -O3 -opt-gather-scatter-unroll=8 -fopenmp -fimf-domain-exclusio";
# mark_description "n=8 -mkl -mavx -qopt-report=5 -qopt-report-phase=vec -qopt-report-file=stdout -opt-report-routine=simd";
	.file "computebound_calu.cpp"
	.text
..TXTST0:
.L_2__routine_start_main_0:
# -- Begin  main
	.text
# mark_begin;
# Threads 4
        .align    16,0x90
	.globl main
# --- main(int, char **)
main:
# parameter 1(argc): %edi
# parameter 2(argv): %rsi
..B1.1:                         # Preds ..B1.0 Latency 9
	.cfi_startproc
	.cfi_personality 0x3,__gxx_personality_v0
..___tag_value_main.2:
..L3:
                                                          #309.1
..LN0:
	.file   1 "computebound_calu.cpp"
	.loc    1  309  is_stmt 1
        pushq     %rbp                                          #309.1
	.cfi_def_cfa_offset 16
..LN1:
        movq      %rsp, %rbp                                    #309.1
	.cfi_def_cfa 6, 16
	.cfi_offset 6, -16
..LN2:
        andq      $-128, %rsp                                   #309.1
..LN3:
        subq      $128, %rsp                                    #309.1 c1
..LN4:
        xorl      %esi, %esi                                    #309.1 c1
..LN5:
        movl      $3, %edi                                      #309.1 c5
..LN6:
        call      __intel_new_feature_proc_init                 #309.1 c9
..LN7:
                                # LOE rbx r12 r13 r14 r15
..B1.5:                         # Preds ..B1.1 Latency 7
..LN8:
        stmxcsr   (%rsp)                                        #309.1 c1
..LN9:
        xorl      %eax, %eax                                    #309.1 c2
..LN10:
        orl       $32832, (%rsp)                                #309.1 c2
..LN11:
        ldmxcsr   (%rsp)                                        #309.1 c6
..___tag_value_main.8:
..LN12:
        call      __offload_target_main                         #309.1
..___tag_value_main.9:
..LN13:
                                # LOE rbx r12 r13 r14 r15
..B1.2:                         # Preds ..B1.5 Latency 5
..LN14:
        xorl      %eax, %eax                                    #309.1 c1
..LN15:
	.loc    1  309  epilogue_begin  is_stmt 1
        movq      %rbp, %rsp                                    #309.1 c5
..LN16:
        popq      %rbp                                          #309.1
	.cfi_def_cfa 7, 8
	.cfi_restore 6
..LN17:
        ret                                                     #309.1
        .align    16,0x90
	.cfi_endproc
..LN18:
                                # LOE
..LN19:
# mark_end;
	.type	main,@function
	.size	main,.-main
..LNmain.20:
.LNmain:
	.data
	.file   2 "helper_mic.h"
	.file   3 "/zdata/groups/nfsopt/intel/2016/compilers_and_libraries_2016.0.109/linux/compiler/include/stddef.h"
# -- End  main
	.text
.L_2__routine_start__ZN3mic5allocElPPf_1:
# -- Begin  _ZN3mic5allocElPPf, __offload_entry_helper_mic_h_34alloc_6e52945d3c539e3b55349cb0be18b178icc010766287475T8ldu0
	.text
# mark_begin;
# Threads 4
        .align    16,0x90
__offload_entry_helper_mic_h_34alloc_6e52945d3c539e3b55349cb0be18b178icc010766287475T8ldu0:
# parameter 1: %rdi
..B2.1:                         # Preds ..B2.0 Latency 57
	.cfi_startproc
	.cfi_personality 0x3,__gxx_personality_v0
..___tag_value__ZN3mic5allocElPPf.17:
..L18:
                                                         #34.9
..LN21:
	.loc    2  34  is_stmt 1
        pushq     %rbp                                          #34.9
	.cfi_def_cfa_offset 16
..LN22:
        movq      %rsp, %rbp                                    #34.9
	.cfi_def_cfa 6, 16
	.cfi_offset 6, -16
..LN23:
        andq      $-64, %rsp                                    #34.9
..LN24:
        pushq     %r15                                          #34.9 c1
..LN25:
        pushq     %rbx                                          #34.9 c5
..LN26:
        subq      $176, %rsp                                    #34.9 c5
..LN27:
        vmovaps   .2.34_2__offload_var_desc1_p.28(%rip), %zmm0  #34.9 c9
..LN28:
        vmovaps   64+.2.34_2__offload_var_desc1_p.28(%rip), %zmm1 #34.9 c13
..LN29:
        lea       (%rsp), %rdx                                  #34.9 c17
..LN30:
        lea       128(%rsp), %rcx                               #34.9 c17
..LN31:
        vmovaps   %zmm0, (%rdx)                                 #34.9 c21
..LN32:
        movq      .2.34_2__offload_var_desc2_p.33(%rip), %r8    #34.9 c21
..LN33:
        vmovaps   %zmm1, 64(%rdx)                               #34.9 c25
..LN34:
        lea       160(%rsp), %rsi                               #34.9 c25
..LN35:
        movq      %r8, (%rcx)                                   #34.9 c29
..LN36:
        lea       168(%rsp), %r8                                #34.9 c29
..LN37:
        movq      8+.2.34_2__offload_var_desc2_p.33(%rip), %r9  #34.9 c33
..LN38:
        movq      16+.2.34_2__offload_var_desc2_p.33(%rip), %r10 #34.9 c33
..LN39:
        movq      24+.2.34_2__offload_var_desc2_p.33(%rip), %r11 #34.9 c37
..LN40:
        movq      %rsi, 56(%rdx)                                #34.9 c37
..LN41:
        movl      $2, %esi                                      #34.9 c41
..LN42:
        xorl      %eax, %eax                                    #34.9 c41
	.cfi_escape 0x10, 0x03, 0x0e, 0x38, 0x1c, 0x0d, 0xc0, 0xff, 0xff, 0xff, 0x1a, 0x0d, 0xf0, 0xff, 0xff, 0xff, 0x22
	.cfi_escape 0x10, 0x0f, 0x0e, 0x38, 0x1c, 0x0d, 0xc0, 0xff, 0xff, 0xff, 0x1a, 0x0d, 0xf8, 0xff, 0xff, 0xff, 0x22
..LN43:
        movq      %rdi, %rbx                                    #34.9 c45
..LN44:
        movq      %r9, 8(%rcx)                                  #34.9 c45
..LN45:
        movq      %r10, 16(%rcx)                                #34.9 c49
..LN46:
        movq      %r11, 24(%rcx)                                #34.9 c49
..LN47:
        movq      %r8, 120(%rdx)                                #34.9 c53
..___tag_value__ZN3mic5allocElPPf.25:
..LN48:
        call      __offload_target_enter                        #34.9
..___tag_value__ZN3mic5allocElPPf.26:
..LN49:
                                # LOE rbx r12 r13 r14
..B2.2:                         # Preds ..B2.1 Latency 9
..LN50:
	.loc    2  34  prologue_end  is_stmt 1
        movq      160(%rsp), %r15                               #34.9 c1
..LN51:
	.loc    2  36  is_stmt 1
        movl      $64, %esi                                     #36.29 c1
..LN52:
        movq      %r15, %rdi                                    #36.29 c5
..LN53:
        call      _mm_malloc                                    #36.29 c9
..LN54:
                                # LOE rax rbx r12 r13 r14 r15
..B2.3:                         # Preds ..B2.2 Latency 13
..LN55:
        movq      168(%rsp), %rdx                               #36.14 c1
..LN56:
	.loc    2  34  is_stmt 1
        movq      %rbx, %rdi                                    #34.9 c1
..LN57:
	.loc    2  36  is_stmt 1
        movq      %rax, (%rdx)                                  #36.14 c5
..LN58:
	.loc    2  34  is_stmt 1
        xorl      %eax, %eax                                    #34.9 c5
..LN59:
        movq      %r15, 160(%rsp)                               #34.9 c9
..___tag_value__ZN3mic5allocElPPf.27:
..LN60:
        call      __offload_target_leave                        #34.9
..___tag_value__ZN3mic5allocElPPf.28:
..LN61:
                                # LOE r12 r13 r14
..B2.4:                         # Preds ..B2.3 Latency 13
..LN62:
	.loc    2  34  epilogue_begin  is_stmt 1
        addq      $176, %rsp                                    #34.9
	.cfi_restore 3
..LN63:
        popq      %rbx                                          #34.9
	.cfi_restore 15
..LN64:
        popq      %r15                                          #34.9
..LN65:
        movq      %rbp, %rsp                                    #34.9 c13
..LN66:
        popq      %rbp                                          #34.9
	.cfi_def_cfa 7, 8
	.cfi_restore 6
..LN67:
        ret                                                     #34.9
	.cfi_def_cfa 6, 16
..LN68:
                                # LOE
	.type	__offload_entry_helper_mic_h_34alloc_6e52945d3c539e3b55349cb0be18b178icc010766287475T8ldu0,@function
	.size	__offload_entry_helper_mic_h_34alloc_6e52945d3c539e3b55349cb0be18b178icc010766287475T8ldu0,.-__offload_entry_helper_mic_h_34alloc_6e52945d3c539e3b55349cb0be18b178icc010766287475T8ldu0
	.globl _ZN3mic5allocElPPf
_ZN3mic5allocElPPf:
# parameter 1(size): %rdi
# parameter 2(mem): %rsi
..B2.5:                         # Preds ..B2.0 Latency 21
..LN69:
	.loc    2  33  is_stmt 1
        pushq     %rbp                                          #33.5
	.cfi_def_cfa 7, 16
..LN70:
        movq      %rsp, %rbp                                    #33.5
	.cfi_def_cfa 6, 16
	.cfi_offset 6, -16
..LN71:
        andq      $-64, %rsp                                    #33.5
..LN72:
        pushq     %r15                                          #33.5 c1
..LN73:
        pushq     %rbx                                          #33.5 c5
..LN74:
        subq      $176, %rsp                                    #33.5 c5
..LN75:
	.loc    2  33  epilogue_begin  is_stmt 1
        addq      $176, %rsp                                    #33.5
	.cfi_escape 0x10, 0x03, 0x0e, 0x38, 0x1c, 0x0d, 0xc0, 0xff, 0xff, 0xff, 0x1a, 0x0d, 0xf0, 0xff, 0xff, 0xff, 0x22
	.cfi_escape 0x10, 0x0f, 0x0e, 0x38, 0x1c, 0x0d, 0xc0, 0xff, 0xff, 0xff, 0x1a, 0x0d, 0xf8, 0xff, 0xff, 0xff, 0x22
	.cfi_restore 3
..LN76:
        popq      %rbx                                          #33.5
	.cfi_restore 15
..LN77:
        popq      %r15                                          #33.5
..LN78:
        movq      %rbp, %rsp                                    #33.5 c21
..LN79:
        popq      %rbp                                          #33.5
	.cfi_def_cfa 7, 8
	.cfi_restore 6
..LN80:
        ret                                                     #33.5
        .align    16,0x90
	.cfi_endproc
..LN81:
                                # LOE
..LN82:
# mark_end;
	.type	_ZN3mic5allocElPPf,@function
	.size	_ZN3mic5allocElPPf,.-_ZN3mic5allocElPPf
..LN_ZN3mic5allocElPPf.83:
.LN_ZN3mic5allocElPPf:
	.data
	.align 64
	.align 64
.2.34_2__offload_var_desc1_p.28:
	.byte	17
	.byte	1
	.byte	1
	.byte	1
	.long	8
	.long	0
	.long	0
	.long	0x00000000,0x00000000
	.long	0x00000008,0x00000000
	.long	0x00000001,0x00000000
	.long	0x00000000,0x00000000
	.long	0x00000000,0x00000000
	.long	0x00000000,0x00000000
	.byte	34
	.byte	2
	.byte	1
	.byte	1
	.long	8
	.long	0
	.long	0
	.long	0x00000000,0x00000000
	.long	0x00000008,0x00000000
	.long	0x00000001,0x00000000
	.long	0x00000000,0x00000000
	.long	0x00000000,0x00000000
	.long	0x00000000,0x00000000
	.align 8
.2.34_2__offload_var_desc2_p.33:
	.quad	__sd_2inst_string.1
	.long	0x00000000,0x00000000
	.quad	__sd_2inst_string.2
	.long	0x00000000,0x00000000
	.section .rodata, "a"
	.align 4
	.align 4
__sd_2inst_string.0:
	.byte	95
	.byte	95
	.byte	111
	.byte	102
	.byte	102
	.byte	108
	.byte	111
	.byte	97
	.byte	100
	.byte	95
	.byte	101
	.byte	110
	.byte	116
	.byte	114
	.byte	121
	.byte	95
	.byte	104
	.byte	101
	.byte	108
	.byte	112
	.byte	101
	.byte	114
	.byte	95
	.byte	109
	.byte	105
	.byte	99
	.byte	95
	.byte	104
	.byte	95
	.byte	51
	.byte	52
	.byte	97
	.byte	108
	.byte	108
	.byte	111
	.byte	99
	.byte	95
	.byte	54
	.byte	101
	.byte	53
	.byte	50
	.byte	57
	.byte	52
	.byte	53
	.byte	100
	.byte	51
	.byte	99
	.byte	53
	.byte	51
	.byte	57
	.byte	101
	.byte	51
	.byte	98
	.byte	53
	.byte	53
	.byte	51
	.byte	52
	.byte	57
	.byte	99
	.byte	98
	.byte	48
	.byte	98
	.byte	101
	.byte	49
	.byte	56
	.byte	98
	.byte	49
	.byte	55
	.byte	56
	.byte	105
	.byte	99
	.byte	99
	.byte	48
	.byte	49
	.byte	48
	.byte	55
	.byte	54
	.byte	54
	.byte	50
	.byte	56
	.byte	55
	.byte	52
	.byte	55
	.byte	53
	.byte	84
	.byte	56
	.byte	108
	.byte	100
	.byte	117
	.byte	48
	.byte	0
	.space 1, 0x00 	# pad
	.align 4
__sd_2inst_string.1:
	.byte	115
	.byte	105
	.byte	122
	.byte	101
	.byte	0
	.space 3, 0x00 	# pad
	.align 4
__sd_2inst_string.2:
	.byte	109
	.byte	101
	.byte	109
	.byte	0
	.section .OffloadEntryTable., "waG",@progbits,__offload_entry_helper_mic_h_34alloc_6e52945d3c539e3b55349cb0be18b178icc010766287475T8ldu0_$entry,comdat
	.align 16
__offload_entry_helper_mic_h_34alloc_6e52945d3c539e3b55349cb0be18b178icc010766287475T8ldu0_$entry:
	.type	__offload_entry_helper_mic_h_34alloc_6e52945d3c539e3b55349cb0be18b178icc010766287475T8ldu0_$entry,@object
	.size	__offload_entry_helper_mic_h_34alloc_6e52945d3c539e3b55349cb0be18b178icc010766287475T8ldu0_$entry,16
	.quad	__sd_2inst_string.0
	.quad	__offload_entry_helper_mic_h_34alloc_6e52945d3c539e3b55349cb0be18b178icc010766287475T8ldu0
	.data
# -- End  _ZN3mic5allocElPPf, __offload_entry_helper_mic_h_34alloc_6e52945d3c539e3b55349cb0be18b178icc010766287475T8ldu0
	.text
.L_2__routine_start__Z6callScPfll_2:
# -- Begin  _Z6callScPfll, __offload_entry_computebound_calu_cpp_121callSc_bab59b5da7e3f2bf4ba579c0a4048ae8icc010766287475T8ldu0
	.text
# mark_begin;
# Threads 4
        .align    16,0x90
__offload_entry_computebound_calu_cpp_121callSc_bab59b5da7e3f2bf4ba579c0a4048ae8icc010766287475T8ldu0:
# parameter 1: %rdi
..B3.1:                         # Preds ..B3.0 Latency 77
	.cfi_startproc
	.cfi_personality 0x3,__gxx_personality_v0
..___tag_value__Z6callScPfll.52:
..L53:
                                                         #121.5
..LN84:
	.loc    1  121  is_stmt 1
        pushq     %rbp                                          #121.5
	.cfi_def_cfa_offset 16
..LN85:
        movq      %rsp, %rbp                                    #121.5
	.cfi_def_cfa 6, 16
	.cfi_offset 6, -16
..LN86:
        andq      $-64, %rsp                                    #121.5
..LN87:
        pushq     %r12                                          #121.5 c1
..LN88:
        pushq     %r13                                          #121.5 c5
..LN89:
        pushq     %r14                                          #121.5 c9
..LN90:
        pushq     %rbx                                          #121.5 c13
..LN91:
        subq      $416, %rsp                                    #121.5 c13
..LN92:
        vmovaps   .2.35_2__offload_var_desc1_p.30(%rip), %zmm0  #121.5 c17
..LN93:
        vmovaps   64+.2.35_2__offload_var_desc1_p.30(%rip), %zmm1 #121.5 c21
..LN94:
        vmovaps   128+.2.35_2__offload_var_desc1_p.30(%rip), %zmm2 #121.5 c25
..LN95:
        vmovaps   192+.2.35_2__offload_var_desc1_p.30(%rip), %zmm3 #121.5 c29
..LN96:
        vmovaps   .2.35_2__offload_var_desc2_p.35(%rip), %zmm4  #121.5 c33
..LN97:
        lea       64(%rsp), %rdx                                #121.5 c37
..LN98:
        lea       320(%rsp), %rcx                               #121.5 c37
..LN99:
        vmovaps   %zmm0, (%rdx)                                 #121.5 c41
..LN100:
        lea       16(%rsp), %r8                                 #121.5 c41
..LN101:
        vmovaps   %zmm1, 64(%rdx)                               #121.5 c45
..LN102:
        lea       (%rsp), %r9                                   #121.5 c45
..LN103:
        vmovaps   %zmm2, 128(%rdx)                              #121.5 c49
..LN104:
        lea       24(%rsp), %r10                                #121.5 c49
..LN105:
        vmovaps   %zmm3, 192(%rdx)                              #121.5 c53
..LN106:
        lea       32(%rsp), %r11                                #121.5 c53
..LN107:
        vmovaps   %zmm4, (%rcx)                                 #121.5 c57
..LN108:
        movl      $4, %esi                                      #121.5 c57
..LN109:
        xorl      %eax, %eax                                    #121.5 c61
	.cfi_escape 0x10, 0x03, 0x0e, 0x38, 0x1c, 0x0d, 0xc0, 0xff, 0xff, 0xff, 0x1a, 0x0d, 0xe0, 0xff, 0xff, 0xff, 0x22
	.cfi_escape 0x10, 0x0c, 0x0e, 0x38, 0x1c, 0x0d, 0xc0, 0xff, 0xff, 0xff, 0x1a, 0x0d, 0xf8, 0xff, 0xff, 0xff, 0x22
	.cfi_escape 0x10, 0x0d, 0x0e, 0x38, 0x1c, 0x0d, 0xc0, 0xff, 0xff, 0xff, 0x1a, 0x0d, 0xf0, 0xff, 0xff, 0xff, 0x22
	.cfi_escape 0x10, 0x0e, 0x0e, 0x38, 0x1c, 0x0d, 0xc0, 0xff, 0xff, 0xff, 0x1a, 0x0d, 0xe8, 0xff, 0xff, 0xff, 0x22
..LN110:
        movq      %rdi, %r14                                    #121.5 c61
..LN111:
        movq      %r8, 56(%rdx)                                 #121.5 c65
..LN112:
        movq      %r9, 120(%rdx)                                #121.5 c65
..LN113:
        movq      %r10, 184(%rdx)                               #121.5 c69
..LN114:
        movb      %bl, %bl                                      #121.5 c69
..LN115:
        movq      %r11, 248(%rdx)                               #121.5 c73
..___tag_value__Z6callScPfll.62:
..LN116:
        call      __offload_target_enter                        #121.5
..___tag_value__Z6callScPfll.63:
..LN117:
                                # LOE r14 r15
..B3.2:                         # Preds ..B3.1 Latency 9
..LN118:
	.loc    1  123  prologue_end  is_stmt 1
        movq      16(%rsp), %rax                                #123.35 c1
..LN119:
	.loc    1  121  is_stmt 1
        movq      24(%rsp), %r13                                #121.5 c1
..LN120:
        movq      32(%rsp), %r12                                #121.5 c5
..LN121:
	.loc    1  123  is_stmt 1
        movq      (%rax), %rbx                                  #123.35 c5
..___tag_value__Z6callScPfll.64:
..LN122:
	.loc    1  124  is_stmt 1
        call      omp_get_wtime                                 #124.14
..___tag_value__Z6callScPfll.65:
..LN123:
                                # LOE rbx r12 r13 r14 r15 zmm0
..B3.10:                        # Preds ..B3.2 Latency 9
..LN124:
        movl      $1, %eax                                      #124.14 c1
..LN125:
        kmov      %eax, %k1                                     #124.14 c5
..LN126:
        vpackstorelpd %zmm0, 8(%rsp){%k1}                       #124.14 c9
..LN127:
                                # LOE rbx r12 r13 r14 r15
..B3.3:                         # Preds ..B3.10 Latency 21
..LN128:
	.loc    1  125  is_stmt 1
        movq      %r12, %rdx                                    #125.9 c1
..LN129:
        movq      %rbx, %rdi                                    #125.9 c1
..LN130:
        sarq      $2, %rdx                                      #125.9 c5
..LN131:
        movq      %r13, %rsi                                    #125.9 c5
..LN132:
        shrq      $61, %rdx                                     #125.9 c9
..LN133:
        addq      %r12, %rdx                                    #125.9 c13
..LN134:
        sarq      $3, %rdx                                      #125.9 c17
..___tag_value__Z6callScPfll.66:
..LN135:
#       scalar(float *, long, long)
        call      _Z6scalarPfll                                 #125.9
..___tag_value__Z6callScPfll.67:
..LN136:
                                # LOE r12 r13 r14 r15
..B3.4:                         # Preds ..B3.3 Latency 1
..___tag_value__Z6callScPfll.68:
..LN137:
	.loc    1  126  is_stmt 1
        call      omp_get_wtime                                 #126.14
..___tag_value__Z6callScPfll.69:
..LN138:
                                # LOE r12 r13 r14 r15 zmm0
..B3.5:                         # Preds ..B3.4 Latency 21
..LN139:
        movl      $1, %eax                                      #126.30 c1
..LN140:
	.loc    1  121  is_stmt 1
        movq      %r14, %rdi                                    #121.5 c1
..LN141:
	.loc    1  126  is_stmt 1
        kmov      %eax, %k1                                     #126.30 c5
..LN142:
	.loc    1  121  is_stmt 1
        xorl      %eax, %eax                                    #121.5 c5
..LN143:
	.loc    1  126  is_stmt 1
        vsubpd    8(%rsp){1to8}, %zmm0, %zmm0{%k1}              #126.30 c9
..LN144:
	.loc    1  121  is_stmt 1
        movq      %r12, 32(%rsp)                                #121.5 c9
..LN145:
        movq      %r13, 24(%rsp)                                #121.5 c13
..LN146:
        movb      %dl, %dl                                      #121.5 c13
..LN147:
        vpackstorelpd %zmm0, (%rsp){%k1}                        #121.5 c17
..___tag_value__Z6callScPfll.70:
..LN148:
        call      __offload_target_leave                        #121.5
..___tag_value__Z6callScPfll.71:
..LN149:
                                # LOE r15
..B3.6:                         # Preds ..B3.5 Latency 21
..LN150:
	.loc    1  121  epilogue_begin  is_stmt 1
        addq      $416, %rsp                                    #121.5
	.cfi_restore 3
..LN151:
        popq      %rbx                                          #121.5
	.cfi_restore 14
..LN152:
        popq      %r14                                          #121.5
	.cfi_restore 13
..LN153:
        popq      %r13                                          #121.5
	.cfi_restore 12
..LN154:
        popq      %r12                                          #121.5
..LN155:
        movq      %rbp, %rsp                                    #121.5 c21
..LN156:
        popq      %rbp                                          #121.5
	.cfi_def_cfa 7, 8
	.cfi_restore 6
..LN157:
        ret                                                     #121.5
	.cfi_def_cfa 6, 16
..LN158:
                                # LOE
	.type	__offload_entry_computebound_calu_cpp_121callSc_bab59b5da7e3f2bf4ba579c0a4048ae8icc010766287475T8ldu0,@function
	.size	__offload_entry_computebound_calu_cpp_121callSc_bab59b5da7e3f2bf4ba579c0a4048ae8icc010766287475T8ldu0,.-__offload_entry_computebound_calu_cpp_121callSc_bab59b5da7e3f2bf4ba579c0a4048ae8icc010766287475T8ldu0
	.globl _Z6callScPfll
_Z6callScPfll:
# parameter 1(A): %rdi
# parameter 2(N): %rsi
# parameter 3(M): %rdx
..B3.7:                         # Preds ..B3.0 Latency 37
..LN159:
	.loc    1  118  is_stmt 1
        pushq     %rbp                                          #118.66
	.cfi_def_cfa 7, 16
..LN160:
        movq      %rsp, %rbp                                    #118.66
	.cfi_def_cfa 6, 16
	.cfi_offset 6, -16
..LN161:
        andq      $-64, %rsp                                    #118.66
..LN162:
        pushq     %r12                                          #118.66 c1
..LN163:
        pushq     %r13                                          #118.66 c5
..LN164:
        pushq     %r14                                          #118.66 c9
..LN165:
        pushq     %rbx                                          #118.66 c13
..LN166:
        subq      $416, %rsp                                    #118.66 c13
..LN167:
	.loc    1  118  epilogue_begin  is_stmt 1
        addq      $416, %rsp                                    #118.66
	.cfi_escape 0x10, 0x03, 0x0e, 0x38, 0x1c, 0x0d, 0xc0, 0xff, 0xff, 0xff, 0x1a, 0x0d, 0xe0, 0xff, 0xff, 0xff, 0x22
	.cfi_escape 0x10, 0x0c, 0x0e, 0x38, 0x1c, 0x0d, 0xc0, 0xff, 0xff, 0xff, 0x1a, 0x0d, 0xf8, 0xff, 0xff, 0xff, 0x22
	.cfi_escape 0x10, 0x0d, 0x0e, 0x38, 0x1c, 0x0d, 0xc0, 0xff, 0xff, 0xff, 0x1a, 0x0d, 0xf0, 0xff, 0xff, 0xff, 0x22
	.cfi_escape 0x10, 0x0e, 0x0e, 0x38, 0x1c, 0x0d, 0xc0, 0xff, 0xff, 0xff, 0x1a, 0x0d, 0xe8, 0xff, 0xff, 0xff, 0x22
	.cfi_restore 3
..LN168:
        popq      %rbx                                          #118.66
	.cfi_restore 14
..LN169:
        popq      %r14                                          #118.66
	.cfi_restore 13
..LN170:
        popq      %r13                                          #118.66
	.cfi_restore 12
..LN171:
        popq      %r12                                          #118.66
..LN172:
        movq      %rbp, %rsp                                    #118.66 c37
..LN173:
        popq      %rbp                                          #118.66
	.cfi_def_cfa 7, 8
	.cfi_restore 6
..LN174:
        ret                                                     #118.66
        .align    16,0x90
	.cfi_endproc
..LN175:
                                # LOE
..LN176:
# mark_end;
	.type	_Z6callScPfll,@function
	.size	_Z6callScPfll,.-_Z6callScPfll
..LN_Z6callScPfll.177:
.LN_Z6callScPfll:
	.data
	.space 32, 0x00 	# pad
	.align 64
.2.35_2__offload_var_desc1_p.30:
	.byte	34
	.byte	1
	.byte	1
	.byte	1
	.long	8
	.long	0
	.long	0
	.long	0x00000000,0x00000000
	.long	0x00000008,0x00000000
	.long	0x00000001,0x00000000
	.long	0x00000000,0x00000000
	.long	0x00000000,0x00000000
	.long	0x00000000,0x00000000
	.byte	17
	.byte	3
	.byte	1
	.byte	1
	.long	8
	.long	0
	.long	0
	.long	0x00000000,0x00000000
	.long	0x00000008,0x00000000
	.long	0x00000001,0x00000000
	.long	0x00000000,0x00000000
	.long	0x00000000,0x00000000
	.long	0x00000000,0x00000000
	.byte	17
	.byte	3
	.byte	1
	.byte	1
	.long	8
	.long	0
	.long	0
	.long	0x00000000,0x00000000
	.long	0x00000008,0x00000000
	.long	0x00000001,0x00000000
	.long	0x00000000,0x00000000
	.long	0x00000000,0x00000000
	.long	0x00000000,0x00000000
	.byte	17
	.byte	3
	.byte	1
	.byte	1
	.long	8
	.long	0
	.long	0
	.long	0x00000000,0x00000000
	.long	0x00000008,0x00000000
	.long	0x00000001,0x00000000
	.long	0x00000000,0x00000000
	.long	0x00000000,0x00000000
	.long	0x00000000,0x00000000
	.align 64
.2.35_2__offload_var_desc2_p.35:
	.quad	__sd_2inst_string.4
	.long	0x00000000,0x00000000
	.quad	__sd_2inst_string.5
	.long	0x00000000,0x00000000
	.quad	__sd_2inst_string.6
	.long	0x00000000,0x00000000
	.quad	__sd_2inst_string.7
	.long	0x00000000,0x00000000
	.section .rodata, "a"
	.align 4
__sd_2inst_string.3:
	.byte	95
	.byte	95
	.byte	111
	.byte	102
	.byte	102
	.byte	108
	.byte	111
	.byte	97
	.byte	100
	.byte	95
	.byte	101
	.byte	110
	.byte	116
	.byte	114
	.byte	121
	.byte	95
	.byte	99
	.byte	111
	.byte	109
	.byte	112
	.byte	117
	.byte	116
	.byte	101
	.byte	98
	.byte	111
	.byte	117
	.byte	110
	.byte	100
	.byte	95
	.byte	99
	.byte	97
	.byte	108
	.byte	117
	.byte	95
	.byte	99
	.byte	112
	.byte	112
	.byte	95
	.byte	49
	.byte	50
	.byte	49
	.byte	99
	.byte	97
	.byte	108
	.byte	108
	.byte	83
	.byte	99
	.byte	95
	.byte	98
	.byte	97
	.byte	98
	.byte	53
	.byte	57
	.byte	98
	.byte	53
	.byte	100
	.byte	97
	.byte	55
	.byte	101
	.byte	51
	.byte	102
	.byte	50
	.byte	98
	.byte	102
	.byte	52
	.byte	98
	.byte	97
	.byte	53
	.byte	55
	.byte	57
	.byte	99
	.byte	48
	.byte	97
	.byte	52
	.byte	48
	.byte	52
	.byte	56
	.byte	97
	.byte	101
	.byte	56
	.byte	105
	.byte	99
	.byte	99
	.byte	48
	.byte	49
	.byte	48
	.byte	55
	.byte	54
	.byte	54
	.byte	50
	.byte	56
	.byte	55
	.byte	52
	.byte	55
	.byte	53
	.byte	84
	.byte	56
	.byte	108
	.byte	100
	.byte	117
	.byte	48
	.byte	0
	.space 2, 0x00 	# pad
	.align 4
__sd_2inst_string.4:
	.byte	112
	.byte	65
	.byte	95
	.byte	109
	.byte	105
	.byte	99
	.byte	0
	.space 1, 0x00 	# pad
	.align 4
__sd_2inst_string.5:
	.byte	116
	.byte	105
	.byte	109
	.byte	101
	.byte	0
	.space 3, 0x00 	# pad
	.align 4
__sd_2inst_string.6:
	.byte	78
	.byte	0
	.space 2, 0x00 	# pad
	.align 4
__sd_2inst_string.7:
	.byte	77
	.byte	0
	.section .OffloadEntryTable., "waG",@progbits,__offload_entry_computebound_calu_cpp_121callSc_bab59b5da7e3f2bf4ba579c0a4048ae8icc010766287475T8ldu0_$entry,comdat
	.align 16
__offload_entry_computebound_calu_cpp_121callSc_bab59b5da7e3f2bf4ba579c0a4048ae8icc010766287475T8ldu0_$entry:
	.type	__offload_entry_computebound_calu_cpp_121callSc_bab59b5da7e3f2bf4ba579c0a4048ae8icc010766287475T8ldu0_$entry,@object
	.size	__offload_entry_computebound_calu_cpp_121callSc_bab59b5da7e3f2bf4ba579c0a4048ae8icc010766287475T8ldu0_$entry,16
	.quad	__sd_2inst_string.3
	.quad	__offload_entry_computebound_calu_cpp_121callSc_bab59b5da7e3f2bf4ba579c0a4048ae8icc010766287475T8ldu0
	.data
# -- End  _Z6callScPfll, __offload_entry_computebound_calu_cpp_121callSc_bab59b5da7e3f2bf4ba579c0a4048ae8icc010766287475T8ldu0
	.text
.L_2__routine_start__Z6scalarPfll_3:
# -- Begin  _Z6scalarPfll, L__Z6scalarPfll_26__par_loop0_2.2
	.text
# mark_begin;
# Threads 4
        .align    16,0x90
	.globl _Z6scalarPfll
# --- scalar(float *, long, long)
_Z6scalarPfll:
# parameter 1(A): %rdi
# parameter 2(N): %rsi
# parameter 3(M): %rdx
..B4.1:                         # Preds ..B4.0 Latency 21
	.cfi_startproc
	.cfi_personality 0x3,__gxx_personality_v0
..___tag_value__Z6scalarPfll.101:
..L102:
                                                        #23.1
..LN178:
	.loc    1  23  is_stmt 1
        subq      $88, %rsp                                     #23.1 c1
	.cfi_def_cfa_offset 96
..LN179:
        movq      %rbp, 56(%rsp)                                #23.1 c5
..LN180:
        movq      %rbx, 48(%rsp)                                #23.1 c5
..LN181:
        movq      %r15, 16(%rsp)                                #23.1 c9
..LN182:
        movq      %r14, 24(%rsp)                                #23.1 c9
..LN183:
        movq      %r13, 32(%rsp)                                #23.1 c13
..LN184:
        movq      %r12, 40(%rsp)                                #23.1 c13
..LN185:
        movq      %rdi, (%rsp)                                  #23.1 c17
..LN186:
        movq      %rsi, 8(%rsp)                                 #23.1 c17
..LN187:
        movq      %rdx, 64(%rsp)                                #23.1 c21
	.cfi_offset 3, -48
	.cfi_offset 6, -40
	.cfi_offset 12, -56
	.cfi_offset 13, -64
	.cfi_offset 14, -72
	.cfi_offset 15, -80
..LN188:
                                # LOE
..B4.3:                         # Preds ..B4.1 Latency 5
..LN189:
	.loc    1  26  prologue_end  is_stmt 1
        movl      $.2.36_2_kmpc_loc_struct_pack.12, %edi        #26.5 c1
..LN190:
        call      __kmpc_global_thread_num                      #26.5 c5
..LN191:
                                # LOE eax
..B4.31:                        # Preds ..B4.3 Latency 9
..LN192:
        movl      %eax, 72(%rsp)                                #26.5 c1
..LN193:
        movl      $.2.36_2_kmpc_loc_struct_pack.20, %edi        #26.5 c1
..LN194:
        xorl      %eax, %eax                                    #26.5 c5
..___tag_value__Z6scalarPfll.111:
..LN195:
        call      __kmpc_ok_to_fork                             #26.5
..___tag_value__Z6scalarPfll.112:
..LN196:
                                # LOE eax
..B4.4:                         # Preds ..B4.31 Latency 1
..LN197:
        testl     %eax, %eax                                    #26.5 c1
..LN198:
        je        ..B4.6        # Prob 50%                      #26.5 c1
..LN199:
                                # LOE
..B4.5:                         # Preds ..B4.4 Latency 18
..LN200:
        lea       8(%rsp), %rcx                                 #26.5 c1
..LN201:
        movl      $L__Z6scalarPfll_26__par_loop0_2.2, %edx      #26.5 c1
..LN202:
        lea       56(%rcx), %r8                                 #26.5 c5
..LN203:
        lea       (%rsp), %r9                                   #26.5 c5
..LN204:
        movl      $.2.36_2_kmpc_loc_struct_pack.20, %edi        #26.5 c9
..LN205:
        movl      $3, %esi                                      #26.5 c9
..LN206:
        xorl      %eax, %eax                                    #26.5 c13
..___tag_value__Z6scalarPfll.113:
..LN207:
        call      __kmpc_fork_call                              #26.5
..___tag_value__Z6scalarPfll.114:
..LN208:
        jmp       ..B4.9        # Prob 100%                     #26.5 c17
..LN209:
                                # LOE
..B4.6:                         # Preds ..B4.4 Latency 9
..LN210:
        movl      72(%rsp), %esi                                #26.5 c1
..LN211:
        movl      $.2.36_2_kmpc_loc_struct_pack.20, %edi        #26.5 c1
..LN212:
        xorl      %eax, %eax                                    #26.5 c5
..___tag_value__Z6scalarPfll.115:
..LN213:
        call      __kmpc_serialized_parallel                    #26.5
..___tag_value__Z6scalarPfll.116:
..LN214:
                                # LOE
..B4.7:                         # Preds ..B4.6 Latency 13
..LN215:
        lea       72(%rsp), %rdi                                #26.5 c1
..LN216:
        movl      $___kmpv_zero_Z6scalarPfll_0, %esi            #26.5 c1
..LN217:
        lea       -64(%rdi), %rdx                               #26.5 c5
..LN218:
        lea       (%rsp), %r8                                   #26.5 c5
..LN219:
        lea       56(%rdx), %rcx                                #26.5 c9
..___tag_value__Z6scalarPfll.117:
..LN220:
        call      L__Z6scalarPfll_26__par_loop0_2.2             #26.5
..___tag_value__Z6scalarPfll.118:
..LN221:
                                # LOE
..B4.8:                         # Preds ..B4.7 Latency 9
..LN222:
        movl      72(%rsp), %esi                                #26.5 c1
..LN223:
        movl      $.2.36_2_kmpc_loc_struct_pack.20, %edi        #26.5 c1
..LN224:
        xorl      %eax, %eax                                    #26.5 c5
..___tag_value__Z6scalarPfll.119:
..LN225:
        call      __kmpc_end_serialized_parallel                #26.5
..___tag_value__Z6scalarPfll.120:
..LN226:
                                # LOE
..B4.9:                         # Preds ..B4.5 ..B4.8 Latency 17
..LN227:
	.loc    1  53  is_stmt 1
        movq      16(%rsp), %r15                                #53.1 c1
	.cfi_restore 15
..LN228:
        movq      24(%rsp), %r14                                #53.1 c1
	.cfi_restore 14
..LN229:
        movq      32(%rsp), %r13                                #53.1 c5
	.cfi_restore 13
..LN230:
        movq      40(%rsp), %r12                                #53.1 c5
	.cfi_restore 12
..LN231:
        movq      48(%rsp), %rbx                                #53.1 c9
	.cfi_restore 3
..LN232:
        movq      56(%rsp), %rbp                                #53.1 c9
	.cfi_restore 6
..LN233:
	.loc    1  53  epilogue_begin  is_stmt 1
        addq      $88, %rsp                                     #53.1
	.cfi_def_cfa_offset 8
..LN234:
        ret                                                     #53.1 c17
	.cfi_def_cfa_offset 96
..LN235:
                                # LOE
L__Z6scalarPfll_26__par_loop0_2.2:
# parameter 1: %rdi
# parameter 2: %rsi
# parameter 3: %rdx
# parameter 4: %rcx
# parameter 5: %r8
..B4.10:                        # Preds ..B4.0 Latency 25
..LN236:
	.loc    1  26  is_stmt 1
        subq      $88, %rsp                                     #26.5 c1
..LN237:
        movq      %r13, 32(%rsp)                                #26.5 c5
	.cfi_offset 13, -64
..LN238:
        movq      (%r8), %r13                                   #26.5 c5
..LN239:
        movq      (%rdx), %r8                                   #26.5 c9
..LN240:
        movq      %rbp, 56(%rsp)                                #26.5 c9
..LN241:
        movq      %rbx, 48(%rsp)                                #26.5 c13
..LN242:
	.loc    1  27  prologue_end  is_stmt 1
        testq     %r8, %r8                                      #27.39 c13
..LN243:
	.loc    1  26  is_stmt 1
        movq      %r15, 16(%rsp)                                #26.5 c17
	.cfi_offset 3, -48
	.cfi_offset 6, -40
	.cfi_offset 15, -80
..LN244:
        movq      (%rcx), %rbx                                  #26.5 c17
..LN245:
        movq      %r14, 24(%rsp)                                #26.5 c21
	.cfi_offset 14, -72
..LN246:
        movl      (%rdi), %r14d                                 #26.5 c21
..LN247:
        movq      %r12, 40(%rsp)                                #26.5 c25
..LN248:
	.loc    1  27  is_stmt 1
        jle       ..B4.18       # Prob 10%                      #27.39 c25
	.cfi_offset 12, -56
..LN249:
                                # LOE rbx r8 r13 r14d
..B4.11:                        # Preds ..B4.10 Latency 33
..LN250:
	.loc    1  26  is_stmt 1
        movl      $8, 76(%rsp)                                  #26.5 c1
..LN251:
        xorl      %r12d, %r12d                                  #26.5 c5
..LN252:
        decq      %r8                                           #26.5 c5
..LN253:
        movl      %r12d, 64(%rsp)                               #26.5 c9
..LN254:
        movl      $.2.36_2_kmpc_loc_struct_pack.20, %edi        #26.5 c9
..LN255:
        movl      %r8d, 68(%rsp)                                #26.5 c13
..LN256:
        movl      %r14d, %esi                                   #26.5 c13
..LN257:
        movl      %r12d, 72(%rsp)                               #26.5 c17
..LN258:
        addq      $-16, %rsp                                    #26.5 c17
	.cfi_def_cfa_offset 112
..LN259:
        movl      $35, %edx                                     #26.5 c21
..LN260:
        xorl      %ecx, %ecx                                    #26.5 c21
..LN261:
        movl      $8, %r9d                                      #26.5 c25
..LN262:
        xorl      %eax, %eax                                    #26.5 c25
..LN263:
        movl      $1, (%rsp)                                    #26.5 c29
..___tag_value__Z6scalarPfll.139:
..LN264:
        call      __kmpc_dispatch_init_4                        #26.5
..___tag_value__Z6scalarPfll.140:
..LN265:
                                # LOE rbx r13 r12d r14d
..B4.32:                        # Preds ..B4.11 Latency 1
..LN266:
        addq      $16, %rsp                                     #26.5 c1
	.cfi_def_cfa_offset 96
..LN267:
                                # LOE rbx r13 r12d r14d
..B4.14:                        # Preds ..B4.32 Latency 17
..LN268:
	.loc    1  40  is_stmt 1
        xorl      %eax, %eax                                    #40.28 c1
..LN269:
        incl      %eax                                          #40.28
..LN270:
	.loc    1  26  is_stmt 1
        lea       72(%rsp), %rdx                                #26.5 c1
..LN271:
	.loc    1  40  is_stmt 1
        kmov      %eax, %k1                                     #40.28 c5
..LN272:
	.loc    1  26  is_stmt 1
        lea       -4(%rdx), %rbp                                #26.5 c5
..LN273:
	.loc    1  40  is_stmt 1
        vbroadcastss .L_2il0floatpacket.3(%rip), %zmm0{%k1}     #40.28 c9
..LN274:
	.loc    1  26  is_stmt 1
        lea       4(%rdx), %r15                                 #26.5 c13
..LN275:
        movq      %rbx, -64(%rdx)                               #26.5 c13
..LN276:
        vpackstorelps %zmm0, (%rsp){%k1}                        #26.5 c17
..LN277:
        movq      %rdx, %rbx                                    #26.5 c17
..LN278:
                                # LOE rbx rbp r13 r15 r12d r14d
..B4.15:                        # Preds ..B4.26 ..B4.14 Latency 17
..L142:         # optimization report
                # %s was not vectorized: loop control variable was not identified. Explicitly compute the iteration count before executing the loop or try using canonical loop form
..LN279:
        movl      $.2.36_2_kmpc_loc_struct_pack.20, %edi        #26.5 c1
..LN280:
        movl      %r14d, %esi                                   #26.5 c5
..LN281:
        movq      %rbx, %rdx                                    #26.5 c5
..LN282:
        lea       64(%rsp), %rcx                                #26.5 c9
..LN283:
        movq      %rbp, %r8                                     #26.5 c9
..LN284:
        movq      %r15, %r9                                     #26.5 c13
..LN285:
        xorl      %eax, %eax                                    #26.5 c13
..___tag_value__Z6scalarPfll.143:
..LN286:
        call      __kmpc_dispatch_next_4                        #26.5
..___tag_value__Z6scalarPfll.144:
..LN287:
                                # LOE rbx rbp r13 r15 eax r12d r14d
..B4.16:                        # Preds ..B4.15 Latency 5
..LN288:
        movl      64(%rsp), %r10d                               #26.5 c1
..LN289:
        testl     %eax, %eax                                    #26.5 c1
..LN290:
        movl      68(%rsp), %edi                                #26.5 c5
..LN291:
        jne       ..B4.19       # Prob 50%                      #26.5 c5
..LN292:
                                # LOE rbx rbp r13 r15 edi r10d r12d r14d
..B4.18:                        # Preds ..B4.16 ..B4.10 Latency 17
..LN293:
        movq      16(%rsp), %r15                                #26.5 c1
	.cfi_restore 15
..LN294:
        movq      24(%rsp), %r14                                #26.5 c1
	.cfi_restore 14
..LN295:
        movq      32(%rsp), %r13                                #26.5 c5
	.cfi_restore 13
..LN296:
        movq      40(%rsp), %r12                                #26.5 c5
	.cfi_restore 12
..LN297:
        movq      48(%rsp), %rbx                                #26.5 c9
	.cfi_restore 3
..LN298:
        movq      56(%rsp), %rbp                                #26.5 c9
	.cfi_restore 6
..LN299:
	.loc    1  26  epilogue_begin  is_stmt 1
        addq      $88, %rsp                                     #26.5
	.cfi_def_cfa_offset 8
..LN300:
        ret                                                     #26.5 c17
	.cfi_def_cfa_offset 96
	.cfi_offset 3, -48
	.cfi_offset 6, -40
	.cfi_offset 12, -56
	.cfi_offset 13, -64
	.cfi_offset 14, -72
	.cfi_offset 15, -80
..LN301:
                                # LOE
..B4.19:                        # Preds ..B4.16 Latency 29
..LN302:
	.loc    1  39  is_stmt 1
        vbroadcastss (%rsp), %zmm8                              #39.21 c1
..LN303:
	.loc    1  26  is_stmt 1
        movl      %edi, %eax                                    #26.5 c1
..LN304:
        subl      %r10d, %eax                                   #26.5 c5
..LN305:
	.loc    1  39  is_stmt 1
        movl      $1, %edx                                      #39.21 c5
..LN306:
	.loc    1  26  is_stmt 1
        addl      $8, %eax                                      #26.5 c9
..LN307:
	.loc    1  27  is_stmt 1
        movl      %r12d, %ecx                                   #27.5 c9
..LN308:
	.loc    1  26  is_stmt 1
        sarl      $2, %eax                                      #26.5 c13
..LN309:
	.loc    1  39  is_stmt 1
        kmov      %edx, %k1                                     #39.21 c13
..LN310:
	.loc    1  26  is_stmt 1
        shrl      $29, %eax                                     #26.5 c17
..LN311:
	.loc    1  39  is_stmt 1
        movq      8(%rsp), %rdx                                 #39.21 c17
..LN312:
	.loc    1  26  is_stmt 1
        subl      %r10d, %eax                                   #26.5 c21
..LN313:
	.loc    1  39  is_stmt 1
        movslq    %r10d, %r10                                   #39.21 c21
..LN314:
	.loc    1  26  is_stmt 1
        lea       8(%rax,%rdi), %eax                            #26.5 c25
..LN315:
	.loc    1  39  is_stmt 1
        lea       (%r13,%r10,4), %rdi                           #39.21 c25
..LN316:
	.loc    1  26  is_stmt 1
        sarl      $3, %eax                                      #26.5 c29
..LN317:
                                # LOE rdx rbx rbp rdi r13 r15 eax ecx r12d r14d zmm8 k1
..B4.20:                        # Preds ..B4.26 ..B4.19 Latency 1
..L160:         # optimization report
                # OPENMP LOOP
                # %s was not vectorized: novector directive used
                # VECTOR TRIP COUNT IS ESTIMATED CONSTANT
..LN318:
                                # LOE rdx rbx rbp rdi r13 r15 eax ecx r12d r14d zmm8 k1
..B4.22:                        # Preds ..B4.20 Latency 5
..LN319:
	.loc    1  34  is_stmt 1
        xorl      %r10d, %r10d                                  #34.9 c1
..LN320:
        testq     %rdx, %rdx                                    #34.38 c1
..LN321:
        jle       ..B4.26       # Prob 10%                      #34.38 c5
..LN322:
                                # LOE rdx rbx rbp rdi r10 r13 r15 eax ecx r12d r14d zmm8 k1
..B4.23:                        # Preds ..B4.22 Latency 37
..LN323:
	.loc    1  39  is_stmt 1
        lea       (,%rcx,8), %r11d                              #39.21 c1
..LN324:
        movslq    %r11d, %r11                                   #39.21 c5
..LN325:
        vbroadcastss 28(%rdi,%r11,4), %zmm7{%k1}                #39.21 c9
..LN326:
        vbroadcastss 24(%rdi,%r11,4), %zmm6{%k1}                #39.21 c13
..LN327:
        vbroadcastss 20(%rdi,%r11,4), %zmm5{%k1}                #39.21 c17
..LN328:
        vbroadcastss 16(%rdi,%r11,4), %zmm4{%k1}                #39.21 c21
..LN329:
        vbroadcastss 12(%rdi,%r11,4), %zmm3{%k1}                #39.21 c25
..LN330:
        vbroadcastss 8(%rdi,%r11,4), %zmm2{%k1}                 #39.21 c29
..LN331:
        vbroadcastss 4(%rdi,%r11,4), %zmm1{%k1}                 #39.21 c33
..LN332:
        vbroadcastss (%rdi,%r11,4), %zmm0{%k1}                  #39.21 c37
..LN333:
                                # LOE rdx rbx rbp rdi r10 r11 r13 r15 eax ecx r12d r14d zmm0 zmm1 zmm2 zmm3 zmm4 zmm5 zmm6 zmm7 zmm8 k1
..B4.24:                        # Preds ..B4.24 ..B4.23 Latency 257
..L162:         # optimization report
                # LOOP WAS COMPLETELY UNROLLED BY 8
                # %s was not vectorized: novector directive used
                # VECTOR TRIP COUNT IS KNOWN CONSTANT
..L161:         # optimization report
                # %s was not vectorized: novector directive used
                # VECTOR TRIP COUNT IS ESTIMATED CONSTANT
..LN334:
	.loc    1  40  is_stmt 1
        vfmsub213ps %zmm8, %zmm0, %zmm0{%k1}                    #40.17 c5
..LN335:
	.loc    1  34  is_stmt 1
        incl      %r10d                                         #34.9 c5
..LN336:
	.loc    1  40  is_stmt 1
        vfmsub213ps %zmm8, %zmm1, %zmm1{%k1}                    #40.17 c9
..LN337:
	.loc    1  34  is_stmt 1
        cmpq      %rdx, %r10                                    #34.9 c9
..LN338:
	.loc    1  40  is_stmt 1
        vfmsub213ps %zmm8, %zmm2, %zmm2{%k1}                    #40.17 c13
..LN339:
        vfmsub213ps %zmm8, %zmm3, %zmm3{%k1}                    #40.17 c17
..LN340:
        vfmsub213ps %zmm8, %zmm4, %zmm4{%k1}                    #40.17 c21
..LN341:
        vfmsub213ps %zmm8, %zmm5, %zmm5{%k1}                    #40.17 c25
..LN342:
        vfmsub213ps %zmm8, %zmm6, %zmm6{%k1}                    #40.17 c29
..LN343:
        vfmsub213ps %zmm8, %zmm7, %zmm7{%k1}                    #40.17 c33
..LN344:
	.loc    1  41  is_stmt 1
        vfmsub213ps %zmm8, %zmm0, %zmm0{%k1}                    #41.17 c37
..LN345:
        vfmsub213ps %zmm8, %zmm1, %zmm1{%k1}                    #41.17 c41
..LN346:
        vfmsub213ps %zmm8, %zmm2, %zmm2{%k1}                    #41.17 c45
..LN347:
        vfmsub213ps %zmm8, %zmm3, %zmm3{%k1}                    #41.17 c49
..LN348:
        vfmsub213ps %zmm8, %zmm4, %zmm4{%k1}                    #41.17 c53
..LN349:
        vfmsub213ps %zmm8, %zmm5, %zmm5{%k1}                    #41.17 c57
..LN350:
        vfmsub213ps %zmm8, %zmm6, %zmm6{%k1}                    #41.17 c61
..LN351:
        vfmsub213ps %zmm8, %zmm7, %zmm7{%k1}                    #41.17 c65
..LN352:
	.loc    1  42  is_stmt 1
        vfmsub213ps %zmm8, %zmm0, %zmm0{%k1}                    #42.17 c69
..LN353:
        vfmsub213ps %zmm8, %zmm1, %zmm1{%k1}                    #42.17 c73
..LN354:
        vfmsub213ps %zmm8, %zmm2, %zmm2{%k1}                    #42.17 c77
..LN355:
        vfmsub213ps %zmm8, %zmm3, %zmm3{%k1}                    #42.17 c81
..LN356:
        vfmsub213ps %zmm8, %zmm4, %zmm4{%k1}                    #42.17 c85
..LN357:
        vfmsub213ps %zmm8, %zmm5, %zmm5{%k1}                    #42.17 c89
..LN358:
        vfmsub213ps %zmm8, %zmm6, %zmm6{%k1}                    #42.17 c93
..LN359:
        vfmsub213ps %zmm8, %zmm7, %zmm7{%k1}                    #42.17 c97
..LN360:
	.loc    1  43  is_stmt 1
        vfmsub213ps %zmm8, %zmm0, %zmm0{%k1}                    #43.17 c101
..LN361:
        vfmsub213ps %zmm8, %zmm1, %zmm1{%k1}                    #43.17 c105
..LN362:
        vfmsub213ps %zmm8, %zmm2, %zmm2{%k1}                    #43.17 c109
..LN363:
        vfmsub213ps %zmm8, %zmm3, %zmm3{%k1}                    #43.17 c113
..LN364:
        vfmsub213ps %zmm8, %zmm4, %zmm4{%k1}                    #43.17 c117
..LN365:
        vfmsub213ps %zmm8, %zmm5, %zmm5{%k1}                    #43.17 c121
..LN366:
        vfmsub213ps %zmm8, %zmm6, %zmm6{%k1}                    #43.17 c125
..LN367:
        vfmsub213ps %zmm8, %zmm7, %zmm7{%k1}                    #43.17 c129
..LN368:
	.loc    1  44  is_stmt 1
        vfmsub213ps %zmm8, %zmm0, %zmm0{%k1}                    #44.17 c133
..LN369:
        vfmsub213ps %zmm8, %zmm1, %zmm1{%k1}                    #44.17 c137
..LN370:
        vfmsub213ps %zmm8, %zmm2, %zmm2{%k1}                    #44.17 c141
..LN371:
        vfmsub213ps %zmm8, %zmm3, %zmm3{%k1}                    #44.17 c145
..LN372:
        vfmsub213ps %zmm8, %zmm4, %zmm4{%k1}                    #44.17 c149
..LN373:
        vfmsub213ps %zmm8, %zmm5, %zmm5{%k1}                    #44.17 c153
..LN374:
        vfmsub213ps %zmm8, %zmm6, %zmm6{%k1}                    #44.17 c157
..LN375:
        vfmsub213ps %zmm8, %zmm7, %zmm7{%k1}                    #44.17 c161
..LN376:
	.loc    1  45  is_stmt 1
        vfmsub213ps %zmm8, %zmm0, %zmm0{%k1}                    #45.17 c165
..LN377:
        vfmsub213ps %zmm8, %zmm1, %zmm1{%k1}                    #45.17 c169
..LN378:
        vfmsub213ps %zmm8, %zmm2, %zmm2{%k1}                    #45.17 c173
..LN379:
        vfmsub213ps %zmm8, %zmm3, %zmm3{%k1}                    #45.17 c177
..LN380:
        vfmsub213ps %zmm8, %zmm4, %zmm4{%k1}                    #45.17 c181
..LN381:
        vfmsub213ps %zmm8, %zmm5, %zmm5{%k1}                    #45.17 c185
..LN382:
        vfmsub213ps %zmm8, %zmm6, %zmm6{%k1}                    #45.17 c189
..LN383:
        vfmsub213ps %zmm8, %zmm7, %zmm7{%k1}                    #45.17 c193
..LN384:
	.loc    1  46  is_stmt 1
        vfmsub213ps %zmm8, %zmm0, %zmm0{%k1}                    #46.17 c197
..LN385:
        vfmsub213ps %zmm8, %zmm1, %zmm1{%k1}                    #46.17 c201
..LN386:
        vfmsub213ps %zmm8, %zmm2, %zmm2{%k1}                    #46.17 c205
..LN387:
        vfmsub213ps %zmm8, %zmm3, %zmm3{%k1}                    #46.17 c209
..LN388:
        vfmsub213ps %zmm8, %zmm4, %zmm4{%k1}                    #46.17 c213
..LN389:
        vfmsub213ps %zmm8, %zmm5, %zmm5{%k1}                    #46.17 c217
..LN390:
        vfmsub213ps %zmm8, %zmm6, %zmm6{%k1}                    #46.17 c221
..LN391:
        vfmsub213ps %zmm8, %zmm7, %zmm7{%k1}                    #46.17 c225
..LN392:
	.loc    1  49  is_stmt 1
        vfmsub213ps %zmm8, %zmm0, %zmm0{%k1}                    #49.17 c229
..LN393:
        vfmsub213ps %zmm8, %zmm1, %zmm1{%k1}                    #49.17 c233
..LN394:
        vfmsub213ps %zmm8, %zmm2, %zmm2{%k1}                    #49.17 c237
..LN395:
        vfmsub213ps %zmm8, %zmm3, %zmm3{%k1}                    #49.17 c241
..LN396:
        vfmsub213ps %zmm8, %zmm4, %zmm4{%k1}                    #49.17 c245
..LN397:
        vfmsub213ps %zmm8, %zmm5, %zmm5{%k1}                    #49.17 c249
..LN398:
        vfmsub213ps %zmm8, %zmm6, %zmm6{%k1}                    #49.17 c253
..LN399:
        vfmsub213ps %zmm8, %zmm7, %zmm7{%k1}                    #49.17 c257
..LN400:
	.loc    1  34  is_stmt 1
        jb        ..B4.24       # Prob 82%                      #34.9 c257
..LN401:
                                # LOE rdx rbx rbp rdi r10 r11 r13 r15 eax ecx r12d r14d zmm0 zmm1 zmm2 zmm3 zmm4 zmm5 zmm6 zmm7 zmm8 k1
..B4.25:                        # Preds ..B4.24 Latency 29
..LN402:
	.loc    1  49  is_stmt 1
        vpackstorelps %zmm6, 24(%rdi,%r11,4){%k1}               #49.17 c1
..LN403:
        vpackstorelps %zmm7, 28(%rdi,%r11,4){%k1}               #49.17 c5
..LN404:
        vpackstorelps %zmm5, 20(%rdi,%r11,4){%k1}               #49.17 c9
..LN405:
        vpackstorelps %zmm4, 16(%rdi,%r11,4){%k1}               #49.17 c13
..LN406:
        vpackstorelps %zmm3, 12(%rdi,%r11,4){%k1}               #49.17 c17
..LN407:
        vpackstorelps %zmm2, 8(%rdi,%r11,4){%k1}                #49.17 c21
..LN408:
        vpackstorelps %zmm1, 4(%rdi,%r11,4){%k1}                #49.17 c25
..LN409:
        vpackstorelps %zmm0, (%rdi,%r11,4){%k1}                 #49.17 c29
..LN410:
                                # LOE rdx rbx rbp rdi r13 r15 eax ecx r12d r14d zmm8 k1
..B4.26:                        # Preds ..B4.22 ..B4.25 Latency 5
..LN411:
	.loc    1  27  is_stmt 1
        incl      %ecx                                          #27.5 c1
..LN412:
        cmpl      %eax, %ecx                                    #27.5 c5
..LN413:
        jb        ..B4.20       # Prob 82%                      #27.5 c5
..LN414:
        jmp       ..B4.15       # Prob 100%                     #27.5 c5
        .align    16,0x90
	.cfi_endproc
..LN415:
                                # LOE rdx rbx rbp rdi r13 r15 eax ecx r12d r14d zmm8 k1
..LN416:
# mark_end;
	.type	_Z6scalarPfll,@function
	.size	_Z6scalarPfll,.-_Z6scalarPfll
..LN_Z6scalarPfll.417:
.LN_Z6scalarPfll:
	.data
	.align 4
.2.36_2_kmpc_loc_struct_pack.12:
	.long	0
	.long	2
	.long	0
	.long	0
	.quad	.2.36_2__kmpc_loc_pack.11
	.align 4
.2.36_2__kmpc_loc_pack.11:
	.byte	59
	.byte	117
	.byte	110
	.byte	107
	.byte	110
	.byte	111
	.byte	119
	.byte	110
	.byte	59
	.byte	115
	.byte	99
	.byte	97
	.byte	108
	.byte	97
	.byte	114
	.byte	59
	.byte	50
	.byte	54
	.byte	59
	.byte	50
	.byte	54
	.byte	59
	.byte	59
	.space 1, 0x00 	# pad
	.align 4
.2.36_2_kmpc_loc_struct_pack.20:
	.long	0
	.long	2
	.long	0
	.long	0
	.quad	.2.36_2__kmpc_loc_pack.19
	.align 4
.2.36_2__kmpc_loc_pack.19:
	.byte	59
	.byte	117
	.byte	110
	.byte	107
	.byte	110
	.byte	111
	.byte	119
	.byte	110
	.byte	59
	.byte	115
	.byte	99
	.byte	97
	.byte	108
	.byte	97
	.byte	114
	.byte	59
	.byte	50
	.byte	54
	.byte	59
	.byte	53
	.byte	50
	.byte	59
	.byte	59
	.data
# -- End  _Z6scalarPfll, L__Z6scalarPfll_26__par_loop0_2.2
	.text
.L_2__routine_start__Z6callEsPfll_4:
# -- Begin  _Z6callEsPfll, __offload_entry_computebound_calu_cpp_108callEs_1ce099debd8b3a2952e2c38fd77c4f3dicc010766287475T8ldu0
	.text
# mark_begin;
# Threads 4
        .align    16,0x90
__offload_entry_computebound_calu_cpp_108callEs_1ce099debd8b3a2952e2c38fd77c4f3dicc010766287475T8ldu0:
# parameter 1: %rdi
..B5.1:                         # Preds ..B5.0 Latency 77
	.cfi_startproc
	.cfi_personality 0x3,__gxx_personality_v0
..___tag_value__Z6callEsPfll.168:
..L169:
                                                        #108.5
..LN418:
	.loc    1  108  is_stmt 1
        pushq     %rbp                                          #108.5
	.cfi_def_cfa_offset 16
..LN419:
        movq      %rsp, %rbp                                    #108.5
	.cfi_def_cfa 6, 16
	.cfi_offset 6, -16
..LN420:
        andq      $-64, %rsp                                    #108.5
..LN421:
        pushq     %r12                                          #108.5 c1
..LN422:
        pushq     %r13                                          #108.5 c5
..LN423:
        pushq     %r14                                          #108.5 c9
..LN424:
        pushq     %r15                                          #108.5 c13
..LN425:
        subq      $416, %rsp                                    #108.5 c13
..LN426:
        vmovaps   .2.37_2__offload_var_desc1_p.30(%rip), %zmm0  #108.5 c17
..LN427:
        vmovaps   64+.2.37_2__offload_var_desc1_p.30(%rip), %zmm1 #108.5 c21
..LN428:
        vmovaps   128+.2.37_2__offload_var_desc1_p.30(%rip), %zmm2 #108.5 c25
..LN429:
        vmovaps   192+.2.37_2__offload_var_desc1_p.30(%rip), %zmm3 #108.5 c29
..LN430:
        vmovaps   .2.37_2__offload_var_desc2_p.35(%rip), %zmm4  #108.5 c33
..LN431:
        lea       64(%rsp), %rdx                                #108.5 c37
..LN432:
        lea       320(%rsp), %rcx                               #108.5 c37
..LN433:
        vmovaps   %zmm0, (%rdx)                                 #108.5 c41
..LN434:
        lea       16(%rsp), %r8                                 #108.5 c41
..LN435:
        vmovaps   %zmm1, 64(%rdx)                               #108.5 c45
..LN436:
        lea       (%rsp), %r9                                   #108.5 c45
..LN437:
        vmovaps   %zmm2, 128(%rdx)                              #108.5 c49
..LN438:
        lea       24(%rsp), %r10                                #108.5 c49
..LN439:
        vmovaps   %zmm3, 192(%rdx)                              #108.5 c53
..LN440:
        lea       32(%rsp), %r11                                #108.5 c53
..LN441:
        vmovaps   %zmm4, (%rcx)                                 #108.5 c57
..LN442:
        movl      $4, %esi                                      #108.5 c57
..LN443:
        xorl      %eax, %eax                                    #108.5 c61
	.cfi_escape 0x10, 0x0c, 0x0e, 0x38, 0x1c, 0x0d, 0xc0, 0xff, 0xff, 0xff, 0x1a, 0x0d, 0xf8, 0xff, 0xff, 0xff, 0x22
	.cfi_escape 0x10, 0x0d, 0x0e, 0x38, 0x1c, 0x0d, 0xc0, 0xff, 0xff, 0xff, 0x1a, 0x0d, 0xf0, 0xff, 0xff, 0xff, 0x22
	.cfi_escape 0x10, 0x0e, 0x0e, 0x38, 0x1c, 0x0d, 0xc0, 0xff, 0xff, 0xff, 0x1a, 0x0d, 0xe8, 0xff, 0xff, 0xff, 0x22
	.cfi_escape 0x10, 0x0f, 0x0e, 0x38, 0x1c, 0x0d, 0xc0, 0xff, 0xff, 0xff, 0x1a, 0x0d, 0xe0, 0xff, 0xff, 0xff, 0x22
..LN444:
        movq      %rdi, %r14                                    #108.5 c61
..LN445:
        movq      %r8, 56(%rdx)                                 #108.5 c65
..LN446:
        movq      %r9, 120(%rdx)                                #108.5 c65
..LN447:
        movq      %r10, 184(%rdx)                               #108.5 c69
..LN448:
        movb      %bl, %bl                                      #108.5 c69
..LN449:
        movq      %r11, 248(%rdx)                               #108.5 c73
..___tag_value__Z6callEsPfll.178:
..LN450:
        call      __offload_target_enter                        #108.5
..___tag_value__Z6callEsPfll.179:
..LN451:
                                # LOE rbx r14
..B5.2:                         # Preds ..B5.1 Latency 9
..LN452:
	.loc    1  110  prologue_end  is_stmt 1
        movq      16(%rsp), %rax                                #110.35 c1
..LN453:
	.loc    1  108  is_stmt 1
        movq      24(%rsp), %r13                                #108.5 c1
..LN454:
        movq      32(%rsp), %r12                                #108.5 c5
..LN455:
	.loc    1  110  is_stmt 1
        movq      (%rax), %r15                                  #110.35 c5
..___tag_value__Z6callEsPfll.180:
..LN456:
	.loc    1  111  is_stmt 1
        call      omp_get_wtime                                 #111.14
..___tag_value__Z6callEsPfll.181:
..LN457:
                                # LOE rbx r12 r13 r14 r15 zmm0
..B5.10:                        # Preds ..B5.2 Latency 9
..LN458:
        movl      $1, %eax                                      #111.14 c1
..LN459:
        kmov      %eax, %k1                                     #111.14 c5
..LN460:
        vpackstorelpd %zmm0, 8(%rsp){%k1}                       #111.14 c9
..LN461:
                                # LOE rbx r12 r13 r14 r15
..B5.3:                         # Preds ..B5.10 Latency 9
..LN462:
	.loc    1  112  is_stmt 1
        movq      %r15, %rdi                                    #112.9 c1
..LN463:
        movq      %r13, %rsi                                    #112.9 c1
..LN464:
        movq      %r12, %rdx                                    #112.9 c5
..___tag_value__Z6callEsPfll.182:
..LN465:
#       eaSc(float *, long, long)
        call      _Z4eaScPfll                                   #112.9
..___tag_value__Z6callEsPfll.183:
..LN466:
                                # LOE rbx r12 r13 r14
..B5.4:                         # Preds ..B5.3 Latency 1
..___tag_value__Z6callEsPfll.184:
..LN467:
	.loc    1  113  is_stmt 1
        call      omp_get_wtime                                 #113.14
..___tag_value__Z6callEsPfll.185:
..LN468:
                                # LOE rbx r12 r13 r14 zmm0
..B5.5:                         # Preds ..B5.4 Latency 21
..LN469:
        movl      $1, %eax                                      #113.30 c1
..LN470:
	.loc    1  108  is_stmt 1
        movq      %r14, %rdi                                    #108.5 c1
..LN471:
	.loc    1  113  is_stmt 1
        kmov      %eax, %k1                                     #113.30 c5
..LN472:
	.loc    1  108  is_stmt 1
        xorl      %eax, %eax                                    #108.5 c5
..LN473:
	.loc    1  113  is_stmt 1
        vsubpd    8(%rsp){1to8}, %zmm0, %zmm0{%k1}              #113.30 c9
..LN474:
	.loc    1  108  is_stmt 1
        movq      %r12, 32(%rsp)                                #108.5 c9
..LN475:
        movq      %r13, 24(%rsp)                                #108.5 c13
..LN476:
        movb      %dl, %dl                                      #108.5 c13
..LN477:
        vpackstorelpd %zmm0, (%rsp){%k1}                        #108.5 c17
..___tag_value__Z6callEsPfll.186:
..LN478:
        call      __offload_target_leave                        #108.5
..___tag_value__Z6callEsPfll.187:
..LN479:
                                # LOE rbx
..B5.6:                         # Preds ..B5.5 Latency 21
..LN480:
	.loc    1  108  epilogue_begin  is_stmt 1
        addq      $416, %rsp                                    #108.5
	.cfi_restore 15
..LN481:
        popq      %r15                                          #108.5
	.cfi_restore 14
..LN482:
        popq      %r14                                          #108.5
	.cfi_restore 13
..LN483:
        popq      %r13                                          #108.5
	.cfi_restore 12
..LN484:
        popq      %r12                                          #108.5
..LN485:
        movq      %rbp, %rsp                                    #108.5 c21
..LN486:
        popq      %rbp                                          #108.5
	.cfi_def_cfa 7, 8
	.cfi_restore 6
..LN487:
        ret                                                     #108.5
	.cfi_def_cfa 6, 16
..LN488:
                                # LOE
	.type	__offload_entry_computebound_calu_cpp_108callEs_1ce099debd8b3a2952e2c38fd77c4f3dicc010766287475T8ldu0,@function
	.size	__offload_entry_computebound_calu_cpp_108callEs_1ce099debd8b3a2952e2c38fd77c4f3dicc010766287475T8ldu0,.-__offload_entry_computebound_calu_cpp_108callEs_1ce099debd8b3a2952e2c38fd77c4f3dicc010766287475T8ldu0
	.globl _Z6callEsPfll
_Z6callEsPfll:
# parameter 1(A): %rdi
# parameter 2(N): %rsi
# parameter 3(M): %rdx
..B5.7:                         # Preds ..B5.0 Latency 37
..LN489:
	.loc    1  105  is_stmt 1
        pushq     %rbp                                          #105.66
	.cfi_def_cfa 7, 16
..LN490:
        movq      %rsp, %rbp                                    #105.66
	.cfi_def_cfa 6, 16
	.cfi_offset 6, -16
..LN491:
        andq      $-64, %rsp                                    #105.66
..LN492:
        pushq     %r12                                          #105.66 c1
..LN493:
        pushq     %r13                                          #105.66 c5
..LN494:
        pushq     %r14                                          #105.66 c9
..LN495:
        pushq     %r15                                          #105.66 c13
..LN496:
        subq      $416, %rsp                                    #105.66 c13
..LN497:
	.loc    1  105  epilogue_begin  is_stmt 1
        addq      $416, %rsp                                    #105.66
	.cfi_escape 0x10, 0x0c, 0x0e, 0x38, 0x1c, 0x0d, 0xc0, 0xff, 0xff, 0xff, 0x1a, 0x0d, 0xf8, 0xff, 0xff, 0xff, 0x22
	.cfi_escape 0x10, 0x0d, 0x0e, 0x38, 0x1c, 0x0d, 0xc0, 0xff, 0xff, 0xff, 0x1a, 0x0d, 0xf0, 0xff, 0xff, 0xff, 0x22
	.cfi_escape 0x10, 0x0e, 0x0e, 0x38, 0x1c, 0x0d, 0xc0, 0xff, 0xff, 0xff, 0x1a, 0x0d, 0xe8, 0xff, 0xff, 0xff, 0x22
	.cfi_escape 0x10, 0x0f, 0x0e, 0x38, 0x1c, 0x0d, 0xc0, 0xff, 0xff, 0xff, 0x1a, 0x0d, 0xe0, 0xff, 0xff, 0xff, 0x22
	.cfi_restore 15
..LN498:
        popq      %r15                                          #105.66
	.cfi_restore 14
..LN499:
        popq      %r14                                          #105.66
	.cfi_restore 13
..LN500:
        popq      %r13                                          #105.66
	.cfi_restore 12
..LN501:
        popq      %r12                                          #105.66
..LN502:
        movq      %rbp, %rsp                                    #105.66 c37
..LN503:
        popq      %rbp                                          #105.66
	.cfi_def_cfa 7, 8
	.cfi_restore 6
..LN504:
        ret                                                     #105.66
        .align    16,0x90
	.cfi_endproc
..LN505:
                                # LOE
..LN506:
# mark_end;
	.type	_Z6callEsPfll,@function
	.size	_Z6callEsPfll,.-_Z6callEsPfll
..LN_Z6callEsPfll.507:
.LN_Z6callEsPfll:
	.data
	.space 33, 0x00 	# pad
	.align 64
.2.37_2__offload_var_desc1_p.30:
	.byte	34
	.byte	1
	.byte	1
	.byte	1
	.long	8
	.long	0
	.long	0
	.long	0x00000000,0x00000000
	.long	0x00000008,0x00000000
	.long	0x00000001,0x00000000
	.long	0x00000000,0x00000000
	.long	0x00000000,0x00000000
	.long	0x00000000,0x00000000
	.byte	17
	.byte	3
	.byte	1
	.byte	1
	.long	8
	.long	0
	.long	0
	.long	0x00000000,0x00000000
	.long	0x00000008,0x00000000
	.long	0x00000001,0x00000000
	.long	0x00000000,0x00000000
	.long	0x00000000,0x00000000
	.long	0x00000000,0x00000000
	.byte	17
	.byte	3
	.byte	1
	.byte	1
	.long	8
	.long	0
	.long	0
	.long	0x00000000,0x00000000
	.long	0x00000008,0x00000000
	.long	0x00000001,0x00000000
	.long	0x00000000,0x00000000
	.long	0x00000000,0x00000000
	.long	0x00000000,0x00000000
	.byte	17
	.byte	3
	.byte	1
	.byte	1
	.long	8
	.long	0
	.long	0
	.long	0x00000000,0x00000000
	.long	0x00000008,0x00000000
	.long	0x00000001,0x00000000
	.long	0x00000000,0x00000000
	.long	0x00000000,0x00000000
	.long	0x00000000,0x00000000
	.align 64
.2.37_2__offload_var_desc2_p.35:
	.quad	__sd_2inst_string.9
	.long	0x00000000,0x00000000
	.quad	__sd_2inst_string.10
	.long	0x00000000,0x00000000
	.quad	__sd_2inst_string.11
	.long	0x00000000,0x00000000
	.quad	__sd_2inst_string.12
	.long	0x00000000,0x00000000
	.section .rodata, "a"
	.space 2, 0x00 	# pad
	.align 4
__sd_2inst_string.8:
	.byte	95
	.byte	95
	.byte	111
	.byte	102
	.byte	102
	.byte	108
	.byte	111
	.byte	97
	.byte	100
	.byte	95
	.byte	101
	.byte	110
	.byte	116
	.byte	114
	.byte	121
	.byte	95
	.byte	99
	.byte	111
	.byte	109
	.byte	112
	.byte	117
	.byte	116
	.byte	101
	.byte	98
	.byte	111
	.byte	117
	.byte	110
	.byte	100
	.byte	95
	.byte	99
	.byte	97
	.byte	108
	.byte	117
	.byte	95
	.byte	99
	.byte	112
	.byte	112
	.byte	95
	.byte	49
	.byte	48
	.byte	56
	.byte	99
	.byte	97
	.byte	108
	.byte	108
	.byte	69
	.byte	115
	.byte	95
	.byte	49
	.byte	99
	.byte	101
	.byte	48
	.byte	57
	.byte	57
	.byte	100
	.byte	101
	.byte	98
	.byte	100
	.byte	56
	.byte	98
	.byte	51
	.byte	97
	.byte	50
	.byte	57
	.byte	53
	.byte	50
	.byte	101
	.byte	50
	.byte	99
	.byte	51
	.byte	56
	.byte	102
	.byte	100
	.byte	55
	.byte	55
	.byte	99
	.byte	52
	.byte	102
	.byte	51
	.byte	100
	.byte	105
	.byte	99
	.byte	99
	.byte	48
	.byte	49
	.byte	48
	.byte	55
	.byte	54
	.byte	54
	.byte	50
	.byte	56
	.byte	55
	.byte	52
	.byte	55
	.byte	53
	.byte	84
	.byte	56
	.byte	108
	.byte	100
	.byte	117
	.byte	48
	.byte	0
	.space 2, 0x00 	# pad
	.align 4
__sd_2inst_string.9:
	.byte	112
	.byte	65
	.byte	95
	.byte	109
	.byte	105
	.byte	99
	.byte	0
	.space 1, 0x00 	# pad
	.align 4
__sd_2inst_string.10:
	.byte	116
	.byte	105
	.byte	109
	.byte	101
	.byte	0
	.space 3, 0x00 	# pad
	.align 4
__sd_2inst_string.11:
	.byte	78
	.byte	0
	.space 2, 0x00 	# pad
	.align 4
__sd_2inst_string.12:
	.byte	77
	.byte	0
	.section .OffloadEntryTable., "waG",@progbits,__offload_entry_computebound_calu_cpp_108callEs_1ce099debd8b3a2952e2c38fd77c4f3dicc010766287475T8ldu0_$entry,comdat
	.align 16
__offload_entry_computebound_calu_cpp_108callEs_1ce099debd8b3a2952e2c38fd77c4f3dicc010766287475T8ldu0_$entry:
	.type	__offload_entry_computebound_calu_cpp_108callEs_1ce099debd8b3a2952e2c38fd77c4f3dicc010766287475T8ldu0_$entry,@object
	.size	__offload_entry_computebound_calu_cpp_108callEs_1ce099debd8b3a2952e2c38fd77c4f3dicc010766287475T8ldu0_$entry,16
	.quad	__sd_2inst_string.8
	.quad	__offload_entry_computebound_calu_cpp_108callEs_1ce099debd8b3a2952e2c38fd77c4f3dicc010766287475T8ldu0
	.data
# -- End  _Z6callEsPfll, __offload_entry_computebound_calu_cpp_108callEs_1ce099debd8b3a2952e2c38fd77c4f3dicc010766287475T8ldu0
	.text
.L_2__routine_start__Z4eaScPfll_5:
# -- Begin  _Z4eaScPfll, L__Z4eaScPfll_88__par_loop0_2.5
	.text
# mark_begin;
# Threads 4
        .align    16,0x90
	.globl _Z4eaScPfll
# --- eaSc(float *, long, long)
_Z4eaScPfll:
# parameter 1(A): %rdi
# parameter 2(N): %rsi
# parameter 3(M): %rdx
..B6.1:                         # Preds ..B6.0 Latency 25
	.cfi_startproc
	.cfi_personality 0x3,__gxx_personality_v0
..___tag_value__Z4eaScPfll.217:
..L218:
                                                        #86.1
..LN508:
	.loc    1  86  is_stmt 1
        subq      $88, %rsp                                     #86.1 c1
	.cfi_def_cfa_offset 96
..LN509:
        movq      %rdi, (%rsp)                                  #86.1 c5
..LN510:
	.loc    1  88  prologue_end  is_stmt 1
        movl      $.2.38_2_kmpc_loc_struct_pack.12, %edi        #88.5 c5
..LN511:
	.loc    1  86  is_stmt 1
        movq      %rbp, 56(%rsp)                                #86.1 c9
..LN512:
        movq      %rbx, 48(%rsp)                                #86.1 c9
..LN513:
        movq      %r15, 16(%rsp)                                #86.1 c13
..LN514:
        movq      %r14, 24(%rsp)                                #86.1 c13
..LN515:
        movq      %r13, 32(%rsp)                                #86.1 c17
..LN516:
        movq      %r12, 40(%rsp)                                #86.1 c17
..LN517:
        movq      %rsi, 8(%rsp)                                 #86.1 c21
..LN518:
        movq      %rdx, 64(%rsp)                                #86.1 c21
..LN519:
	.loc    1  88  is_stmt 1
        call      __kmpc_global_thread_num                      #88.5 c25
	.cfi_offset 3, -48
	.cfi_offset 6, -40
	.cfi_offset 12, -56
	.cfi_offset 13, -64
	.cfi_offset 14, -72
	.cfi_offset 15, -80
..LN520:
                                # LOE eax
..B6.26:                        # Preds ..B6.1 Latency 9
..LN521:
        movl      %eax, 72(%rsp)                                #88.5 c1
..LN522:
        movl      $.2.38_2_kmpc_loc_struct_pack.20, %edi        #88.5 c1
..LN523:
        xorl      %eax, %eax                                    #88.5 c5
..___tag_value__Z4eaScPfll.227:
..LN524:
        call      __kmpc_ok_to_fork                             #88.5
..___tag_value__Z4eaScPfll.228:
..LN525:
                                # LOE eax
..B6.2:                         # Preds ..B6.26 Latency 1
..LN526:
        testl     %eax, %eax                                    #88.5 c1
..LN527:
        je        ..B6.4        # Prob 50%                      #88.5 c1
..LN528:
                                # LOE
..B6.3:                         # Preds ..B6.2 Latency 18
..LN529:
        lea       8(%rsp), %rcx                                 #88.5 c1
..LN530:
        movl      $L__Z4eaScPfll_88__par_loop0_2.5, %edx        #88.5 c1
..LN531:
        lea       56(%rcx), %r8                                 #88.5 c5
..LN532:
        lea       (%rsp), %r9                                   #88.5 c5
..LN533:
        movl      $.2.38_2_kmpc_loc_struct_pack.20, %edi        #88.5 c9
..LN534:
        movl      $3, %esi                                      #88.5 c9
..LN535:
        xorl      %eax, %eax                                    #88.5 c13
..___tag_value__Z4eaScPfll.229:
..LN536:
        call      __kmpc_fork_call                              #88.5
..___tag_value__Z4eaScPfll.230:
..LN537:
        jmp       ..B6.7        # Prob 100%                     #88.5 c17
..LN538:
                                # LOE
..B6.4:                         # Preds ..B6.2 Latency 9
..LN539:
        movl      72(%rsp), %esi                                #88.5 c1
..LN540:
        movl      $.2.38_2_kmpc_loc_struct_pack.20, %edi        #88.5 c1
..LN541:
        xorl      %eax, %eax                                    #88.5 c5
..___tag_value__Z4eaScPfll.231:
..LN542:
        call      __kmpc_serialized_parallel                    #88.5
..___tag_value__Z4eaScPfll.232:
..LN543:
                                # LOE
..B6.5:                         # Preds ..B6.4 Latency 13
..LN544:
        lea       72(%rsp), %rdi                                #88.5 c1
..LN545:
        movl      $___kmpv_zero_Z4eaScPfll_0, %esi              #88.5 c1
..LN546:
        lea       -64(%rdi), %rdx                               #88.5 c5
..LN547:
        lea       (%rsp), %r8                                   #88.5 c5
..LN548:
        lea       56(%rdx), %rcx                                #88.5 c9
..___tag_value__Z4eaScPfll.233:
..LN549:
        call      L__Z4eaScPfll_88__par_loop0_2.5               #88.5
..___tag_value__Z4eaScPfll.234:
..LN550:
                                # LOE
..B6.6:                         # Preds ..B6.5 Latency 9
..LN551:
        movl      72(%rsp), %esi                                #88.5 c1
..LN552:
        movl      $.2.38_2_kmpc_loc_struct_pack.20, %edi        #88.5 c1
..LN553:
        xorl      %eax, %eax                                    #88.5 c5
..___tag_value__Z4eaScPfll.235:
..LN554:
        call      __kmpc_end_serialized_parallel                #88.5
..___tag_value__Z4eaScPfll.236:
..LN555:
                                # LOE
..B6.7:                         # Preds ..B6.3 ..B6.6 Latency 17
..LN556:
	.loc    1  101  is_stmt 1
        movq      16(%rsp), %r15                                #101.1 c1
	.cfi_restore 15
..LN557:
        movq      24(%rsp), %r14                                #101.1 c1
	.cfi_restore 14
..LN558:
        movq      32(%rsp), %r13                                #101.1 c5
	.cfi_restore 13
..LN559:
        movq      40(%rsp), %r12                                #101.1 c5
	.cfi_restore 12
..LN560:
        movq      48(%rsp), %rbx                                #101.1 c9
	.cfi_restore 3
..LN561:
        movq      56(%rsp), %rbp                                #101.1 c9
	.cfi_restore 6
..LN562:
	.loc    1  101  epilogue_begin  is_stmt 1
        addq      $88, %rsp                                     #101.1
	.cfi_def_cfa_offset 8
..LN563:
        ret                                                     #101.1 c17
	.cfi_def_cfa_offset 96
..LN564:
                                # LOE
L__Z4eaScPfll_88__par_loop0_2.5:
# parameter 1: %rdi
# parameter 2: %rsi
# parameter 3: %rdx
# parameter 4: %rcx
# parameter 5: %r8
..B6.8:                         # Preds ..B6.0 Latency 25
..LN565:
	.loc    1  88  is_stmt 1
        subq      $88, %rsp                                     #88.5 c1
..LN566:
        movq      %r13, 32(%rsp)                                #88.5 c5
	.cfi_offset 13, -64
..LN567:
        movq      (%r8), %r13                                   #88.5 c5
..LN568:
        movq      (%rdx), %r8                                   #88.5 c9
..LN569:
        movq      %rbp, 56(%rsp)                                #88.5 c9
..LN570:
        movq      %rbx, 48(%rsp)                                #88.5 c13
..LN571:
	.loc    1  89  prologue_end  is_stmt 1
        testq     %r8, %r8                                      #89.39 c13
..LN572:
	.loc    1  88  is_stmt 1
        movq      %r15, 16(%rsp)                                #88.5 c17
	.cfi_offset 3, -48
	.cfi_offset 6, -40
	.cfi_offset 15, -80
..LN573:
        movq      (%rcx), %rbx                                  #88.5 c17
..LN574:
        movq      %r14, 24(%rsp)                                #88.5 c21
	.cfi_offset 14, -72
..LN575:
        movl      (%rdi), %r14d                                 #88.5 c21
..LN576:
        movq      %r12, 40(%rsp)                                #88.5 c25
..LN577:
	.loc    1  89  is_stmt 1
        jle       ..B6.14       # Prob 10%                      #89.39 c25
	.cfi_offset 12, -56
..LN578:
                                # LOE rbx r8 r13 r14d
..B6.9:                         # Preds ..B6.8 Latency 33
..LN579:
	.loc    1  88  is_stmt 1
        movl      $8, 76(%rsp)                                  #88.5 c1
..LN580:
        xorl      %r12d, %r12d                                  #88.5 c5
..LN581:
        decq      %r8                                           #88.5 c5
..LN582:
        movl      %r12d, 64(%rsp)                               #88.5 c9
..LN583:
        movl      $.2.38_2_kmpc_loc_struct_pack.20, %edi        #88.5 c9
..LN584:
        movl      %r8d, 68(%rsp)                                #88.5 c13
..LN585:
        movl      %r14d, %esi                                   #88.5 c13
..LN586:
        movl      %r12d, 72(%rsp)                               #88.5 c17
..LN587:
        addq      $-16, %rsp                                    #88.5 c17
	.cfi_def_cfa_offset 112
..LN588:
        movl      $35, %edx                                     #88.5 c21
..LN589:
        xorl      %ecx, %ecx                                    #88.5 c21
..LN590:
        movl      $8, %r9d                                      #88.5 c25
..LN591:
        xorl      %eax, %eax                                    #88.5 c25
..LN592:
        movl      $1, (%rsp)                                    #88.5 c29
..___tag_value__Z4eaScPfll.255:
..LN593:
        call      __kmpc_dispatch_init_4                        #88.5
..___tag_value__Z4eaScPfll.256:
..LN594:
                                # LOE rbx r13 r12d r14d
..B6.27:                        # Preds ..B6.9 Latency 1
..LN595:
        addq      $16, %rsp                                     #88.5 c1
	.cfi_def_cfa_offset 96
..LN596:
                                # LOE rbx r13 r12d r14d
..B6.10:                        # Preds ..B6.27 Latency 17
..LN597:
	.loc    1  96  is_stmt 1
        xorl      %eax, %eax                                    #96.28 c1
..LN598:
        incl      %eax                                          #96.28
..LN599:
	.loc    1  88  is_stmt 1
        lea       72(%rsp), %rdx                                #88.5 c1
..LN600:
	.loc    1  96  is_stmt 1
        kmov      %eax, %k1                                     #96.28 c5
..LN601:
	.loc    1  88  is_stmt 1
        lea       -4(%rdx), %rbp                                #88.5 c5
..LN602:
	.loc    1  96  is_stmt 1
        vbroadcastss .L_2il0floatpacket.3(%rip), %zmm0{%k1}     #96.28 c9
..LN603:
	.loc    1  88  is_stmt 1
        lea       4(%rdx), %r15                                 #88.5 c13
..LN604:
        movq      %rbx, -64(%rdx)                               #88.5 c13
..LN605:
        vpackstorelps %zmm0, (%rsp){%k1}                        #88.5 c17
..LN606:
        movq      %rdx, %rbx                                    #88.5 c17
..LN607:
                                # LOE rbx rbp r13 r15 r12d r14d
..B6.11:                        # Preds ..B6.21 ..B6.19 ..B6.10 Latency 17
..L258:         # optimization report
                # %s was not vectorized: loop control variable was not identified. Explicitly compute the iteration count before executing the loop or try using canonical loop form
..LN608:
        movl      $.2.38_2_kmpc_loc_struct_pack.20, %edi        #88.5 c1
..LN609:
        movl      %r14d, %esi                                   #88.5 c5
..LN610:
        movq      %rbx, %rdx                                    #88.5 c5
..LN611:
        lea       64(%rsp), %rcx                                #88.5 c9
..LN612:
        movq      %rbp, %r8                                     #88.5 c9
..LN613:
        movq      %r15, %r9                                     #88.5 c13
..LN614:
        xorl      %eax, %eax                                    #88.5 c13
..___tag_value__Z4eaScPfll.259:
..LN615:
        call      __kmpc_dispatch_next_4                        #88.5
..___tag_value__Z4eaScPfll.260:
..LN616:
                                # LOE rbx rbp r13 r15 eax r12d r14d
..B6.12:                        # Preds ..B6.11 Latency 5
..LN617:
        movl      64(%rsp), %r10d                               #88.5 c1
..LN618:
        testl     %eax, %eax                                    #88.5 c1
..LN619:
        movl      68(%rsp), %edi                                #88.5 c5
..LN620:
        jne       ..B6.15       # Prob 50%                      #88.5 c5
..LN621:
                                # LOE rbx rbp r13 r15 edi r10d r12d r14d
..B6.14:                        # Preds ..B6.12 ..B6.8 Latency 17
..LN622:
        movq      16(%rsp), %r15                                #88.5 c1
	.cfi_restore 15
..LN623:
        movq      24(%rsp), %r14                                #88.5 c1
	.cfi_restore 14
..LN624:
        movq      32(%rsp), %r13                                #88.5 c5
	.cfi_restore 13
..LN625:
        movq      40(%rsp), %r12                                #88.5 c5
	.cfi_restore 12
..LN626:
        movq      48(%rsp), %rbx                                #88.5 c9
	.cfi_restore 3
..LN627:
        movq      56(%rsp), %rbp                                #88.5 c9
	.cfi_restore 6
..LN628:
	.loc    1  88  epilogue_begin  is_stmt 1
        addq      $88, %rsp                                     #88.5
	.cfi_def_cfa_offset 8
..LN629:
        ret                                                     #88.5 c17
	.cfi_def_cfa_offset 96
	.cfi_offset 3, -48
	.cfi_offset 6, -40
	.cfi_offset 12, -56
	.cfi_offset 13, -64
	.cfi_offset 14, -72
	.cfi_offset 15, -80
..LN630:
                                # LOE
..B6.15:                        # Preds ..B6.12 Latency 29
..LN631:
	.loc    1  95  is_stmt 1
        vbroadcastss (%rsp), %zmm8                              #95.21 c1
..LN632:
	.loc    1  88  is_stmt 1
        movl      %edi, %eax                                    #88.5 c1
..LN633:
        subl      %r10d, %eax                                   #88.5 c5
..LN634:
	.loc    1  95  is_stmt 1
        movl      $1, %edx                                      #95.21 c5
..LN635:
	.loc    1  88  is_stmt 1
        addl      $8, %eax                                      #88.5 c9
..LN636:
	.loc    1  89  is_stmt 1
        movl      %r12d, %ecx                                   #89.5 c9
..LN637:
	.loc    1  88  is_stmt 1
        sarl      $2, %eax                                      #88.5 c13
..LN638:
	.loc    1  95  is_stmt 1
        kmov      %edx, %k1                                     #95.21 c13
..LN639:
	.loc    1  88  is_stmt 1
        shrl      $29, %eax                                     #88.5 c17
..LN640:
	.loc    1  95  is_stmt 1
        movq      8(%rsp), %rdx                                 #95.21 c17
..LN641:
	.loc    1  88  is_stmt 1
        subl      %r10d, %eax                                   #88.5 c21
..LN642:
	.loc    1  95  is_stmt 1
        movslq    %r10d, %r10                                   #95.21 c21
..LN643:
	.loc    1  88  is_stmt 1
        lea       8(%rax,%rdi), %eax                            #88.5 c25
..LN644:
	.loc    1  95  is_stmt 1
        lea       (%r13,%r10,4), %rdi                           #95.21 c25
..LN645:
	.loc    1  88  is_stmt 1
        sarl      $3, %eax                                      #88.5 c29
..LN646:
                                # LOE rdx rbx rbp rdi r13 r15 eax ecx r12d r14d zmm8 k1
..B6.16:                        # Preds ..B6.21 ..B6.19 ..B6.15 Latency 5
..L276:         # optimization report
                # OPENMP LOOP
                # %s was not vectorized: novector directive used
                # VECTOR TRIP COUNT IS ESTIMATED CONSTANT
..LN647:
	.loc    1  91  is_stmt 1
        xorl      %r10d, %r10d                                  #91.9 c1
..LN648:
        testq     %rdx, %rdx                                    #91.38 c5
..LN649:
        jle       ..B6.21       # Prob 10%                      #91.38 c5
..LN650:
                                # LOE rdx rbx rbp rdi r10 r13 r15 eax ecx r12d r14d zmm8 k1
..B6.17:                        # Preds ..B6.16 Latency 37
..LN651:
	.loc    1  95  is_stmt 1
        lea       (,%rcx,8), %r11d                              #95.21 c1
..LN652:
        movslq    %r11d, %r11                                   #95.21 c5
..LN653:
        vbroadcastss 28(%rdi,%r11,4), %zmm7{%k1}                #95.21 c9
..LN654:
        vbroadcastss 24(%rdi,%r11,4), %zmm6{%k1}                #95.21 c13
..LN655:
        vbroadcastss 20(%rdi,%r11,4), %zmm5{%k1}                #95.21 c17
..LN656:
        vbroadcastss 16(%rdi,%r11,4), %zmm4{%k1}                #95.21 c21
..LN657:
        vbroadcastss 12(%rdi,%r11,4), %zmm3{%k1}                #95.21 c25
..LN658:
        vbroadcastss 8(%rdi,%r11,4), %zmm2{%k1}                 #95.21 c29
..LN659:
        vbroadcastss 4(%rdi,%r11,4), %zmm1{%k1}                 #95.21 c33
..LN660:
        vbroadcastss (%rdi,%r11,4), %zmm0{%k1}                  #95.21 c37
..LN661:
                                # LOE rdx rbx rbp rdi r10 r11 r13 r15 eax ecx r12d r14d zmm0 zmm1 zmm2 zmm3 zmm4 zmm5 zmm6 zmm7 zmm8 k1
..B6.18:                        # Preds ..B6.18 ..B6.17 Latency 33
..L278:         # optimization report
                # LOOP WAS COMPLETELY UNROLLED BY 8
                # %s was not vectorized: novector directive used
                # VECTOR TRIP COUNT IS KNOWN CONSTANT
..L277:         # optimization report
                # %s was not vectorized: novector directive used
                # VECTOR TRIP COUNT IS ESTIMATED CONSTANT
..LN662:
	.loc    1  97  is_stmt 1
        vfmsub213ps %zmm8, %zmm0, %zmm0{%k1}                    #97.17 c5
..LN663:
	.loc    1  91  is_stmt 1
        incl      %r10d                                         #91.9 c5
..LN664:
	.loc    1  97  is_stmt 1
        vfmsub213ps %zmm8, %zmm1, %zmm1{%k1}                    #97.17 c9
..LN665:
	.loc    1  91  is_stmt 1
        cmpq      %rdx, %r10                                    #91.9 c9
..LN666:
	.loc    1  97  is_stmt 1
        vfmsub213ps %zmm8, %zmm2, %zmm2{%k1}                    #97.17 c13
..LN667:
        vfmsub213ps %zmm8, %zmm3, %zmm3{%k1}                    #97.17 c17
..LN668:
        vfmsub213ps %zmm8, %zmm4, %zmm4{%k1}                    #97.17 c21
..LN669:
        vfmsub213ps %zmm8, %zmm5, %zmm5{%k1}                    #97.17 c25
..LN670:
        vfmsub213ps %zmm8, %zmm6, %zmm6{%k1}                    #97.17 c29
..LN671:
        vfmsub213ps %zmm8, %zmm7, %zmm7{%k1}                    #97.17 c33
..LN672:
	.loc    1  91  is_stmt 1
        jb        ..B6.18       # Prob 82%                      #91.9 c33
..LN673:
                                # LOE rdx rbx rbp rdi r10 r11 r13 r15 eax ecx r12d r14d zmm0 zmm1 zmm2 zmm3 zmm4 zmm5 zmm6 zmm7 zmm8 k1
..B6.19:                        # Preds ..B6.18 Latency 29
..LN674:
	.loc    1  97  is_stmt 1
        vpackstorelps %zmm6, 24(%rdi,%r11,4){%k1}               #97.17 c1
..LN675:
	.loc    1  89  is_stmt 1
        incl      %ecx                                          #89.5 c1
..LN676:
	.loc    1  97  is_stmt 1
        vpackstorelps %zmm7, 28(%rdi,%r11,4){%k1}               #97.17 c5
..LN677:
	.loc    1  89  is_stmt 1
        cmpl      %eax, %ecx                                    #89.5 c5
..LN678:
	.loc    1  97  is_stmt 1
        vpackstorelps %zmm5, 20(%rdi,%r11,4){%k1}               #97.17 c9
..LN679:
        vpackstorelps %zmm4, 16(%rdi,%r11,4){%k1}               #97.17 c13
..LN680:
        vpackstorelps %zmm3, 12(%rdi,%r11,4){%k1}               #97.17 c17
..LN681:
        vpackstorelps %zmm2, 8(%rdi,%r11,4){%k1}                #97.17 c21
..LN682:
        vpackstorelps %zmm1, 4(%rdi,%r11,4){%k1}                #97.17 c25
..LN683:
        vpackstorelps %zmm0, (%rdi,%r11,4){%k1}                 #97.17 c29
..LN684:
	.loc    1  89  is_stmt 1
        jb        ..B6.16       # Prob 82%                      #89.5 c29
..LN685:
        jmp       ..B6.11       # Prob 100%                     #89.5 c29
..LN686:
                                # LOE rdx rbx rbp rdi r13 r15 eax ecx r12d r14d zmm8 k1
..B6.21:                        # Preds ..B6.16                 # Infreq Latency 5
..LN687:
        incl      %ecx                                          #89.5 c1
..LN688:
        cmpl      %eax, %ecx                                    #89.5 c5
..LN689:
        jb        ..B6.16       # Prob 82%                      #89.5 c5
..LN690:
        jmp       ..B6.11       # Prob 100%                     #89.5 c5
        .align    16,0x90
	.cfi_endproc
..LN691:
                                # LOE rdx rbx rbp rdi r13 r15 eax ecx r12d r14d zmm8 k1
..LN692:
# mark_end;
	.type	_Z4eaScPfll,@function
	.size	_Z4eaScPfll,.-_Z4eaScPfll
..LN_Z4eaScPfll.693:
.LN_Z4eaScPfll:
	.data
	.align 4
.2.38_2_kmpc_loc_struct_pack.12:
	.long	0
	.long	2
	.long	0
	.long	0
	.quad	.2.38_2__kmpc_loc_pack.11
	.align 4
.2.38_2__kmpc_loc_pack.11:
	.byte	59
	.byte	117
	.byte	110
	.byte	107
	.byte	110
	.byte	111
	.byte	119
	.byte	110
	.byte	59
	.byte	101
	.byte	97
	.byte	83
	.byte	99
	.byte	59
	.byte	56
	.byte	56
	.byte	59
	.byte	56
	.byte	56
	.byte	59
	.byte	59
	.space 3, 0x00 	# pad
	.align 4
.2.38_2_kmpc_loc_struct_pack.20:
	.long	0
	.long	2
	.long	0
	.long	0
	.quad	.2.38_2__kmpc_loc_pack.19
	.align 4
.2.38_2__kmpc_loc_pack.19:
	.byte	59
	.byte	117
	.byte	110
	.byte	107
	.byte	110
	.byte	111
	.byte	119
	.byte	110
	.byte	59
	.byte	101
	.byte	97
	.byte	83
	.byte	99
	.byte	59
	.byte	56
	.byte	56
	.byte	59
	.byte	49
	.byte	48
	.byte	48
	.byte	59
	.byte	59
	.data
# -- End  _Z4eaScPfll, L__Z4eaScPfll_88__par_loop0_2.5
	.text
.L_2__routine_start__Z6callEaPfll_6:
# -- Begin  _Z6callEaPfll, __offload_entry_computebound_calu_cpp_75callEa_3b609f1c38809ced126c37ab482175feicc010766287475T8ldu0
	.text
# mark_begin;
# Threads 4
        .align    16,0x90
__offload_entry_computebound_calu_cpp_75callEa_3b609f1c38809ced126c37ab482175feicc010766287475T8ldu0:
# parameter 1: %rdi
..B7.1:                         # Preds ..B7.0 Latency 77
	.cfi_startproc
	.cfi_personality 0x3,__gxx_personality_v0
..___tag_value__Z6callEaPfll.284:
..L285:
                                                        #75.5
..LN694:
	.loc    1  75  is_stmt 1
        pushq     %rbp                                          #75.5
	.cfi_def_cfa_offset 16
..LN695:
        movq      %rsp, %rbp                                    #75.5
	.cfi_def_cfa 6, 16
	.cfi_offset 6, -16
..LN696:
        andq      $-64, %rsp                                    #75.5
..LN697:
        pushq     %r12                                          #75.5 c1
..LN698:
        pushq     %r13                                          #75.5 c5
..LN699:
        pushq     %r14                                          #75.5 c9
..LN700:
        pushq     %r15                                          #75.5 c13
..LN701:
        subq      $416, %rsp                                    #75.5 c13
..LN702:
        vmovaps   .2.39_2__offload_var_desc1_p.30(%rip), %zmm0  #75.5 c17
..LN703:
        vmovaps   64+.2.39_2__offload_var_desc1_p.30(%rip), %zmm1 #75.5 c21
..LN704:
        vmovaps   128+.2.39_2__offload_var_desc1_p.30(%rip), %zmm2 #75.5 c25
..LN705:
        vmovaps   192+.2.39_2__offload_var_desc1_p.30(%rip), %zmm3 #75.5 c29
..LN706:
        vmovaps   .2.39_2__offload_var_desc2_p.35(%rip), %zmm4  #75.5 c33
..LN707:
        lea       64(%rsp), %rdx                                #75.5 c37
..LN708:
        lea       320(%rsp), %rcx                               #75.5 c37
..LN709:
        vmovaps   %zmm0, (%rdx)                                 #75.5 c41
..LN710:
        lea       16(%rsp), %r8                                 #75.5 c41
..LN711:
        vmovaps   %zmm1, 64(%rdx)                               #75.5 c45
..LN712:
        lea       (%rsp), %r9                                   #75.5 c45
..LN713:
        vmovaps   %zmm2, 128(%rdx)                              #75.5 c49
..LN714:
        lea       24(%rsp), %r10                                #75.5 c49
..LN715:
        vmovaps   %zmm3, 192(%rdx)                              #75.5 c53
..LN716:
        lea       32(%rsp), %r11                                #75.5 c53
..LN717:
        vmovaps   %zmm4, (%rcx)                                 #75.5 c57
..LN718:
        movl      $4, %esi                                      #75.5 c57
..LN719:
        xorl      %eax, %eax                                    #75.5 c61
	.cfi_escape 0x10, 0x0c, 0x0e, 0x38, 0x1c, 0x0d, 0xc0, 0xff, 0xff, 0xff, 0x1a, 0x0d, 0xf8, 0xff, 0xff, 0xff, 0x22
	.cfi_escape 0x10, 0x0d, 0x0e, 0x38, 0x1c, 0x0d, 0xc0, 0xff, 0xff, 0xff, 0x1a, 0x0d, 0xf0, 0xff, 0xff, 0xff, 0x22
	.cfi_escape 0x10, 0x0e, 0x0e, 0x38, 0x1c, 0x0d, 0xc0, 0xff, 0xff, 0xff, 0x1a, 0x0d, 0xe8, 0xff, 0xff, 0xff, 0x22
	.cfi_escape 0x10, 0x0f, 0x0e, 0x38, 0x1c, 0x0d, 0xc0, 0xff, 0xff, 0xff, 0x1a, 0x0d, 0xe0, 0xff, 0xff, 0xff, 0x22
..LN720:
        movq      %rdi, %r14                                    #75.5 c61
..LN721:
        movq      %r8, 56(%rdx)                                 #75.5 c65
..LN722:
        movq      %r9, 120(%rdx)                                #75.5 c65
..LN723:
        movq      %r10, 184(%rdx)                               #75.5 c69
..LN724:
        movb      %bl, %bl                                      #75.5 c69
..LN725:
        movq      %r11, 248(%rdx)                               #75.5 c73
..___tag_value__Z6callEaPfll.294:
..LN726:
        call      __offload_target_enter                        #75.5
..___tag_value__Z6callEaPfll.295:
..LN727:
                                # LOE rbx r14
..B7.2:                         # Preds ..B7.1 Latency 9
..LN728:
	.loc    1  77  prologue_end  is_stmt 1
        movq      16(%rsp), %rax                                #77.35 c1
..LN729:
	.loc    1  75  is_stmt 1
        movq      24(%rsp), %r13                                #75.5 c1
..LN730:
        movq      32(%rsp), %r12                                #75.5 c5
..LN731:
	.loc    1  77  is_stmt 1
        movq      (%rax), %r15                                  #77.35 c5
..___tag_value__Z6callEaPfll.296:
..LN732:
	.loc    1  78  is_stmt 1
        call      omp_get_wtime                                 #78.14
..___tag_value__Z6callEaPfll.297:
..LN733:
                                # LOE rbx r12 r13 r14 r15 zmm0
..B7.10:                        # Preds ..B7.2 Latency 9
..LN734:
        movl      $1, %eax                                      #78.14 c1
..LN735:
        kmov      %eax, %k1                                     #78.14 c5
..LN736:
        vpackstorelpd %zmm0, 8(%rsp){%k1}                       #78.14 c9
..LN737:
                                # LOE rbx r12 r13 r14 r15
..B7.3:                         # Preds ..B7.10 Latency 9
..LN738:
	.loc    1  79  is_stmt 1
        movq      %r15, %rdi                                    #79.9 c1
..LN739:
        movq      %r13, %rsi                                    #79.9 c1
..LN740:
        movq      %r12, %rdx                                    #79.9 c5
..___tag_value__Z6callEaPfll.298:
..LN741:
#       easy(float *, long, long)
        call      _Z4easyPfll                                   #79.9
..___tag_value__Z6callEaPfll.299:
..LN742:
                                # LOE rbx r12 r13 r14
..B7.4:                         # Preds ..B7.3 Latency 1
..___tag_value__Z6callEaPfll.300:
..LN743:
	.loc    1  80  is_stmt 1
        call      omp_get_wtime                                 #80.14
..___tag_value__Z6callEaPfll.301:
..LN744:
                                # LOE rbx r12 r13 r14 zmm0
..B7.5:                         # Preds ..B7.4 Latency 21
..LN745:
        movl      $1, %eax                                      #80.30 c1
..LN746:
	.loc    1  75  is_stmt 1
        movq      %r14, %rdi                                    #75.5 c1
..LN747:
	.loc    1  80  is_stmt 1
        kmov      %eax, %k1                                     #80.30 c5
..LN748:
	.loc    1  75  is_stmt 1
        xorl      %eax, %eax                                    #75.5 c5
..LN749:
	.loc    1  80  is_stmt 1
        vsubpd    8(%rsp){1to8}, %zmm0, %zmm0{%k1}              #80.30 c9
..LN750:
	.loc    1  75  is_stmt 1
        movq      %r12, 32(%rsp)                                #75.5 c9
..LN751:
        movq      %r13, 24(%rsp)                                #75.5 c13
..LN752:
        movb      %dl, %dl                                      #75.5 c13
..LN753:
        vpackstorelpd %zmm0, (%rsp){%k1}                        #75.5 c17
..___tag_value__Z6callEaPfll.302:
..LN754:
        call      __offload_target_leave                        #75.5
..___tag_value__Z6callEaPfll.303:
..LN755:
                                # LOE rbx
..B7.6:                         # Preds ..B7.5 Latency 21
..LN756:
	.loc    1  75  epilogue_begin  is_stmt 1
        addq      $416, %rsp                                    #75.5
	.cfi_restore 15
..LN757:
        popq      %r15                                          #75.5
	.cfi_restore 14
..LN758:
        popq      %r14                                          #75.5
	.cfi_restore 13
..LN759:
        popq      %r13                                          #75.5
	.cfi_restore 12
..LN760:
        popq      %r12                                          #75.5
..LN761:
        movq      %rbp, %rsp                                    #75.5 c21
..LN762:
        popq      %rbp                                          #75.5
	.cfi_def_cfa 7, 8
	.cfi_restore 6
..LN763:
        ret                                                     #75.5
	.cfi_def_cfa 6, 16
..LN764:
                                # LOE
	.type	__offload_entry_computebound_calu_cpp_75callEa_3b609f1c38809ced126c37ab482175feicc010766287475T8ldu0,@function
	.size	__offload_entry_computebound_calu_cpp_75callEa_3b609f1c38809ced126c37ab482175feicc010766287475T8ldu0,.-__offload_entry_computebound_calu_cpp_75callEa_3b609f1c38809ced126c37ab482175feicc010766287475T8ldu0
	.globl _Z6callEaPfll
_Z6callEaPfll:
# parameter 1(A): %rdi
# parameter 2(N): %rsi
# parameter 3(M): %rdx
..B7.7:                         # Preds ..B7.0 Latency 37
..LN765:
	.loc    1  72  is_stmt 1
        pushq     %rbp                                          #72.66
	.cfi_def_cfa 7, 16
..LN766:
        movq      %rsp, %rbp                                    #72.66
	.cfi_def_cfa 6, 16
	.cfi_offset 6, -16
..LN767:
        andq      $-64, %rsp                                    #72.66
..LN768:
        pushq     %r12                                          #72.66 c1
..LN769:
        pushq     %r13                                          #72.66 c5
..LN770:
        pushq     %r14                                          #72.66 c9
..LN771:
        pushq     %r15                                          #72.66 c13
..LN772:
        subq      $416, %rsp                                    #72.66 c13
..LN773:
	.loc    1  72  epilogue_begin  is_stmt 1
        addq      $416, %rsp                                    #72.66
	.cfi_escape 0x10, 0x0c, 0x0e, 0x38, 0x1c, 0x0d, 0xc0, 0xff, 0xff, 0xff, 0x1a, 0x0d, 0xf8, 0xff, 0xff, 0xff, 0x22
	.cfi_escape 0x10, 0x0d, 0x0e, 0x38, 0x1c, 0x0d, 0xc0, 0xff, 0xff, 0xff, 0x1a, 0x0d, 0xf0, 0xff, 0xff, 0xff, 0x22
	.cfi_escape 0x10, 0x0e, 0x0e, 0x38, 0x1c, 0x0d, 0xc0, 0xff, 0xff, 0xff, 0x1a, 0x0d, 0xe8, 0xff, 0xff, 0xff, 0x22
	.cfi_escape 0x10, 0x0f, 0x0e, 0x38, 0x1c, 0x0d, 0xc0, 0xff, 0xff, 0xff, 0x1a, 0x0d, 0xe0, 0xff, 0xff, 0xff, 0x22
	.cfi_restore 15
..LN774:
        popq      %r15                                          #72.66
	.cfi_restore 14
..LN775:
        popq      %r14                                          #72.66
	.cfi_restore 13
..LN776:
        popq      %r13                                          #72.66
	.cfi_restore 12
..LN777:
        popq      %r12                                          #72.66
..LN778:
        movq      %rbp, %rsp                                    #72.66 c37
..LN779:
        popq      %rbp                                          #72.66
	.cfi_def_cfa 7, 8
	.cfi_restore 6
..LN780:
        ret                                                     #72.66
        .align    16,0x90
	.cfi_endproc
..LN781:
                                # LOE
..LN782:
# mark_end;
	.type	_Z6callEaPfll,@function
	.size	_Z6callEaPfll,.-_Z6callEaPfll
..LN_Z6callEaPfll.783:
.LN_Z6callEaPfll:
	.data
	.space 34, 0x00 	# pad
	.align 64
.2.39_2__offload_var_desc1_p.30:
	.byte	34
	.byte	1
	.byte	1
	.byte	1
	.long	8
	.long	0
	.long	0
	.long	0x00000000,0x00000000
	.long	0x00000008,0x00000000
	.long	0x00000001,0x00000000
	.long	0x00000000,0x00000000
	.long	0x00000000,0x00000000
	.long	0x00000000,0x00000000
	.byte	17
	.byte	3
	.byte	1
	.byte	1
	.long	8
	.long	0
	.long	0
	.long	0x00000000,0x00000000
	.long	0x00000008,0x00000000
	.long	0x00000001,0x00000000
	.long	0x00000000,0x00000000
	.long	0x00000000,0x00000000
	.long	0x00000000,0x00000000
	.byte	17
	.byte	3
	.byte	1
	.byte	1
	.long	8
	.long	0
	.long	0
	.long	0x00000000,0x00000000
	.long	0x00000008,0x00000000
	.long	0x00000001,0x00000000
	.long	0x00000000,0x00000000
	.long	0x00000000,0x00000000
	.long	0x00000000,0x00000000
	.byte	17
	.byte	3
	.byte	1
	.byte	1
	.long	8
	.long	0
	.long	0
	.long	0x00000000,0x00000000
	.long	0x00000008,0x00000000
	.long	0x00000001,0x00000000
	.long	0x00000000,0x00000000
	.long	0x00000000,0x00000000
	.long	0x00000000,0x00000000
	.align 64
.2.39_2__offload_var_desc2_p.35:
	.quad	__sd_2inst_string.14
	.long	0x00000000,0x00000000
	.quad	__sd_2inst_string.15
	.long	0x00000000,0x00000000
	.quad	__sd_2inst_string.16
	.long	0x00000000,0x00000000
	.quad	__sd_2inst_string.17
	.long	0x00000000,0x00000000
	.section .rodata, "a"
	.space 2, 0x00 	# pad
	.align 4
__sd_2inst_string.13:
	.byte	95
	.byte	95
	.byte	111
	.byte	102
	.byte	102
	.byte	108
	.byte	111
	.byte	97
	.byte	100
	.byte	95
	.byte	101
	.byte	110
	.byte	116
	.byte	114
	.byte	121
	.byte	95
	.byte	99
	.byte	111
	.byte	109
	.byte	112
	.byte	117
	.byte	116
	.byte	101
	.byte	98
	.byte	111
	.byte	117
	.byte	110
	.byte	100
	.byte	95
	.byte	99
	.byte	97
	.byte	108
	.byte	117
	.byte	95
	.byte	99
	.byte	112
	.byte	112
	.byte	95
	.byte	55
	.byte	53
	.byte	99
	.byte	97
	.byte	108
	.byte	108
	.byte	69
	.byte	97
	.byte	95
	.byte	51
	.byte	98
	.byte	54
	.byte	48
	.byte	57
	.byte	102
	.byte	49
	.byte	99
	.byte	51
	.byte	56
	.byte	56
	.byte	48
	.byte	57
	.byte	99
	.byte	101
	.byte	100
	.byte	49
	.byte	50
	.byte	54
	.byte	99
	.byte	51
	.byte	55
	.byte	97
	.byte	98
	.byte	52
	.byte	56
	.byte	50
	.byte	49
	.byte	55
	.byte	53
	.byte	102
	.byte	101
	.byte	105
	.byte	99
	.byte	99
	.byte	48
	.byte	49
	.byte	48
	.byte	55
	.byte	54
	.byte	54
	.byte	50
	.byte	56
	.byte	55
	.byte	52
	.byte	55
	.byte	53
	.byte	84
	.byte	56
	.byte	108
	.byte	100
	.byte	117
	.byte	48
	.byte	0
	.space 3, 0x00 	# pad
	.align 4
__sd_2inst_string.14:
	.byte	112
	.byte	65
	.byte	95
	.byte	109
	.byte	105
	.byte	99
	.byte	0
	.space 1, 0x00 	# pad
	.align 4
__sd_2inst_string.15:
	.byte	116
	.byte	105
	.byte	109
	.byte	101
	.byte	0
	.space 3, 0x00 	# pad
	.align 4
__sd_2inst_string.16:
	.byte	78
	.byte	0
	.space 2, 0x00 	# pad
	.align 4
__sd_2inst_string.17:
	.byte	77
	.byte	0
	.section .OffloadEntryTable., "waG",@progbits,__offload_entry_computebound_calu_cpp_75callEa_3b609f1c38809ced126c37ab482175feicc010766287475T8ldu0_$entry,comdat
	.align 16
__offload_entry_computebound_calu_cpp_75callEa_3b609f1c38809ced126c37ab482175feicc010766287475T8ldu0_$entry:
	.type	__offload_entry_computebound_calu_cpp_75callEa_3b609f1c38809ced126c37ab482175feicc010766287475T8ldu0_$entry,@object
	.size	__offload_entry_computebound_calu_cpp_75callEa_3b609f1c38809ced126c37ab482175feicc010766287475T8ldu0_$entry,16
	.quad	__sd_2inst_string.13
	.quad	__offload_entry_computebound_calu_cpp_75callEa_3b609f1c38809ced126c37ab482175feicc010766287475T8ldu0
	.data
# -- End  _Z6callEaPfll, __offload_entry_computebound_calu_cpp_75callEa_3b609f1c38809ced126c37ab482175feicc010766287475T8ldu0
	.text
.L_2__routine_start__Z4easyPfll_7:
# -- Begin  _Z4easyPfll, L__Z4easyPfll_57__par_loop0_2.7
	.text
# mark_begin;
# Threads 4
        .align    16,0x90
	.globl _Z4easyPfll
# --- easy(float *, long, long)
_Z4easyPfll:
# parameter 1(A): %rdi
# parameter 2(N): %rsi
# parameter 3(M): %rdx
..B8.1:                         # Preds ..B8.0 Latency 25
	.cfi_startproc
	.cfi_personality 0x3,__gxx_personality_v0
..___tag_value__Z4easyPfll.333:
..L334:
                                                        #56.1
..LN784:
	.loc    1  56  is_stmt 1
        pushq     %rbp                                          #56.1
	.cfi_def_cfa_offset 16
..LN785:
        movq      %rsp, %rbp                                    #56.1
	.cfi_def_cfa 6, 16
	.cfi_offset 6, -16
..LN786:
        andq      $-64, %rsp                                    #56.1
..LN787:
        subq      $128, %rsp                                    #56.1 c1
..LN788:
        movq      %rdi, (%rsp)                                  #56.1 c5
..LN789:
	.loc    1  57  prologue_end  is_stmt 1
        movl      $.2.40_2_kmpc_loc_struct_pack.12, %edi        #57.5 c5
..LN790:
	.loc    1  56  is_stmt 1
        movq      %rbx, 48(%rsp)                                #56.1 c9
..LN791:
        movq      %r15, 16(%rsp)                                #56.1 c9
..LN792:
        movq      %r14, 24(%rsp)                                #56.1 c13
..LN793:
        movq      %r13, 32(%rsp)                                #56.1 c13
..LN794:
        movq      %r12, 40(%rsp)                                #56.1 c17
..LN795:
        movq      %rsi, 8(%rsp)                                 #56.1 c17
..LN796:
        movq      %rdx, 56(%rsp)                                #56.1 c21
..LN797:
	.loc    1  57  is_stmt 1
        call      __kmpc_global_thread_num                      #57.5 c25
	.cfi_escape 0x10, 0x03, 0x0e, 0x38, 0x1c, 0x0d, 0xc0, 0xff, 0xff, 0xff, 0x1a, 0x0d, 0xb0, 0xff, 0xff, 0xff, 0x22
	.cfi_escape 0x10, 0x0c, 0x0e, 0x38, 0x1c, 0x0d, 0xc0, 0xff, 0xff, 0xff, 0x1a, 0x0d, 0xa8, 0xff, 0xff, 0xff, 0x22
	.cfi_escape 0x10, 0x0d, 0x0e, 0x38, 0x1c, 0x0d, 0xc0, 0xff, 0xff, 0xff, 0x1a, 0x0d, 0xa0, 0xff, 0xff, 0xff, 0x22
	.cfi_escape 0x10, 0x0e, 0x0e, 0x38, 0x1c, 0x0d, 0xc0, 0xff, 0xff, 0xff, 0x1a, 0x0d, 0x98, 0xff, 0xff, 0xff, 0x22
	.cfi_escape 0x10, 0x0f, 0x0e, 0x38, 0x1c, 0x0d, 0xc0, 0xff, 0xff, 0xff, 0x1a, 0x0d, 0x90, 0xff, 0xff, 0xff, 0x22
..LN798:
                                # LOE eax
..B8.33:                        # Preds ..B8.1 Latency 9
..LN799:
        movl      %eax, 64(%rsp)                                #57.5 c1
..LN800:
        movl      $.2.40_2_kmpc_loc_struct_pack.26, %edi        #57.5 c1
..LN801:
        xorl      %eax, %eax                                    #57.5 c5
..___tag_value__Z4easyPfll.344:
..LN802:
        call      __kmpc_ok_to_fork                             #57.5
..___tag_value__Z4easyPfll.345:
..LN803:
                                # LOE eax
..B8.2:                         # Preds ..B8.33 Latency 1
..LN804:
        testl     %eax, %eax                                    #57.5 c1
..LN805:
        je        ..B8.4        # Prob 50%                      #57.5 c1
..LN806:
                                # LOE
..B8.3:                         # Preds ..B8.2 Latency 18
..LN807:
        lea       8(%rsp), %rcx                                 #57.5 c1
..LN808:
        movl      $L__Z4easyPfll_57__par_loop0_2.7, %edx        #57.5 c1
..LN809:
        lea       48(%rcx), %r8                                 #57.5 c5
..LN810:
        lea       (%rsp), %r9                                   #57.5 c5
..LN811:
        movl      $.2.40_2_kmpc_loc_struct_pack.26, %edi        #57.5 c9
..LN812:
        movl      $3, %esi                                      #57.5 c9
..LN813:
        xorl      %eax, %eax                                    #57.5 c13
..___tag_value__Z4easyPfll.346:
..LN814:
        call      __kmpc_fork_call                              #57.5
..___tag_value__Z4easyPfll.347:
..LN815:
        jmp       ..B8.7        # Prob 100%                     #57.5 c17
..LN816:
                                # LOE
..B8.4:                         # Preds ..B8.2 Latency 9
..LN817:
        movl      64(%rsp), %esi                                #57.5 c1
..LN818:
        movl      $.2.40_2_kmpc_loc_struct_pack.26, %edi        #57.5 c1
..LN819:
        xorl      %eax, %eax                                    #57.5 c5
..___tag_value__Z4easyPfll.348:
..LN820:
        call      __kmpc_serialized_parallel                    #57.5
..___tag_value__Z4easyPfll.349:
..LN821:
                                # LOE
..B8.5:                         # Preds ..B8.4 Latency 13
..LN822:
        lea       64(%rsp), %rdi                                #57.5 c1
..LN823:
        movl      $___kmpv_zero_Z4easyPfll_0, %esi              #57.5 c1
..LN824:
        lea       -56(%rdi), %rdx                               #57.5 c5
..LN825:
        lea       (%rsp), %r8                                   #57.5 c5
..LN826:
        lea       48(%rdx), %rcx                                #57.5 c9
..___tag_value__Z4easyPfll.350:
..LN827:
        call      L__Z4easyPfll_57__par_loop0_2.7               #57.5
..___tag_value__Z4easyPfll.351:
..LN828:
                                # LOE
..B8.6:                         # Preds ..B8.5 Latency 9
..LN829:
        movl      64(%rsp), %esi                                #57.5 c1
..LN830:
        movl      $.2.40_2_kmpc_loc_struct_pack.26, %edi        #57.5 c1
..LN831:
        xorl      %eax, %eax                                    #57.5 c5
..___tag_value__Z4easyPfll.352:
..LN832:
        call      __kmpc_end_serialized_parallel                #57.5
..___tag_value__Z4easyPfll.353:
..LN833:
                                # LOE
..B8.7:                         # Preds ..B8.3 ..B8.6 Latency 13
..LN834:
	.loc    1  68  is_stmt 1
        movq      16(%rsp), %r15                                #68.1 c1
	.cfi_restore 15
..LN835:
        movq      24(%rsp), %r14                                #68.1 c1
	.cfi_restore 14
..LN836:
        movq      32(%rsp), %r13                                #68.1 c5
	.cfi_restore 13
..LN837:
        movq      40(%rsp), %r12                                #68.1 c5
	.cfi_restore 12
..LN838:
        movq      48(%rsp), %rbx                                #68.1 c9
	.cfi_restore 3
..LN839:
	.loc    1  68  epilogue_begin  is_stmt 1
        movq      %rbp, %rsp                                    #68.1 c13
..LN840:
        popq      %rbp                                          #68.1
	.cfi_def_cfa 7, 8
	.cfi_restore 6
..LN841:
        ret                                                     #68.1
	.cfi_def_cfa 6, 16
..LN842:
                                # LOE
L__Z4easyPfll_57__par_loop0_2.7:
# parameter 1: %rdi
# parameter 2: %rsi
# parameter 3: %rdx
# parameter 4: %rcx
# parameter 5: %r8
..B8.8:                         # Preds ..B8.0 Latency 25
..LN843:
	.loc    1  57  is_stmt 1
        pushq     %rbp                                          #57.5
	.cfi_def_cfa 7, 16
..LN844:
        movq      %rsp, %rbp                                    #57.5
	.cfi_def_cfa 6, 16
	.cfi_offset 6, -16
..LN845:
        andq      $-64, %rsp                                    #57.5
..LN846:
        subq      $128, %rsp                                    #57.5 c1
..LN847:
        movq      %r13, 32(%rsp)                                #57.5 c5
	.cfi_escape 0x10, 0x0d, 0x0e, 0x38, 0x1c, 0x0d, 0xc0, 0xff, 0xff, 0xff, 0x1a, 0x0d, 0xa0, 0xff, 0xff, 0xff, 0x22
..LN848:
        movq      (%r8), %r13                                   #57.5 c5
..LN849:
        movq      (%rdx), %r8                                   #57.5 c9
..LN850:
        movq      %rbx, 48(%rsp)                                #57.5 c9
..LN851:
        movq      %r15, 16(%rsp)                                #57.5 c13
..LN852:
	.loc    1  58  prologue_end  is_stmt 1
        testq     %r8, %r8                                      #58.39 c13
..LN853:
	.loc    1  57  is_stmt 1
        movq      %r14, 24(%rsp)                                #57.5 c17
	.cfi_escape 0x10, 0x03, 0x0e, 0x38, 0x1c, 0x0d, 0xc0, 0xff, 0xff, 0xff, 0x1a, 0x0d, 0xb0, 0xff, 0xff, 0xff, 0x22
	.cfi_escape 0x10, 0x0e, 0x0e, 0x38, 0x1c, 0x0d, 0xc0, 0xff, 0xff, 0xff, 0x1a, 0x0d, 0x98, 0xff, 0xff, 0xff, 0x22
	.cfi_escape 0x10, 0x0f, 0x0e, 0x38, 0x1c, 0x0d, 0xc0, 0xff, 0xff, 0xff, 0x1a, 0x0d, 0x90, 0xff, 0xff, 0xff, 0x22
..LN854:
        movl      (%rdi), %ebx                                  #57.5 c17
..LN855:
        movq      %r12, 40(%rsp)                                #57.5 c21
	.cfi_escape 0x10, 0x0c, 0x0e, 0x38, 0x1c, 0x0d, 0xc0, 0xff, 0xff, 0xff, 0x1a, 0x0d, 0xa8, 0xff, 0xff, 0xff, 0x22
..LN856:
        movq      (%rcx), %r15                                  #57.5 c21
..LN857:
	.loc    1  58  is_stmt 1
        jle       ..B8.28       # Prob 10%                      #58.39 c25
..LN858:
                                # LOE r8 r13 r15 ebx
..B8.9:                         # Preds ..B8.8 Latency 33
..LN859:
	.loc    1  57  is_stmt 1
        movl      $8, 68(%rsp)                                  #57.5 c1
..LN860:
        xorl      %r12d, %r12d                                  #57.5 c5
..LN861:
        decq      %r8                                           #57.5 c5
..LN862:
        movl      %r12d, 56(%rsp)                               #57.5 c9
..LN863:
        movl      $.2.40_2_kmpc_loc_struct_pack.26, %edi        #57.5 c9
..LN864:
        movl      %r8d, 60(%rsp)                                #57.5 c13
..LN865:
        movl      %ebx, %esi                                    #57.5 c13
..LN866:
        movl      %r12d, 64(%rsp)                               #57.5 c17
..LN867:
        addq      $-16, %rsp                                    #57.5 c17
..LN868:
        movl      $35, %edx                                     #57.5 c21
..LN869:
        xorl      %ecx, %ecx                                    #57.5 c21
..LN870:
        movl      $8, %r9d                                      #57.5 c25
..LN871:
        xorl      %eax, %eax                                    #57.5 c25
..LN872:
        movl      $1, (%rsp)                                    #57.5 c29
..___tag_value__Z4easyPfll.373:
..LN873:
        call      __kmpc_dispatch_init_4                        #57.5
..___tag_value__Z4easyPfll.374:
..LN874:
                                # LOE r13 r15 ebx r12d
..B8.34:                        # Preds ..B8.9 Latency 1
..LN875:
        addq      $16, %rsp                                     #57.5 c1
..LN876:
                                # LOE r13 r15 ebx r12d
..B8.10:                        # Preds ..B8.34 Latency 21
..LN877:
	.loc    1  63  is_stmt 1
        vmovaps   .L_2il0floatpacket.8(%rip), %zmm1             #63.28 c1
..LN878:
        xorl      %eax, %eax                                    #63.28 c5
..LN879:
        incl      %eax                                          #63.28
..LN880:
	.loc    1  57  is_stmt 1
        lea       64(%rsp), %rdx                                #57.5 c5
..LN881:
	.loc    1  63  is_stmt 1
        kmov      %eax, %k1                                     #63.28 c9
..LN882:
	.loc    1  57  is_stmt 1
        lea       -8(%rdx), %r14                                #57.5 c9
..LN883:
	.loc    1  63  is_stmt 1
        vbroadcastss .L_2il0floatpacket.3(%rip), %zmm0{%k1}     #63.28 c13
..LN884:
	.loc    1  57  is_stmt 1
        movl      %ebx, -56(%rdx)                               #57.5 c17
..LN885:
        movq      %rdx, %rbx                                    #57.5 c17
..LN886:
        vpackstorelps %zmm0, (%rsp){%k1}                        #57.5 c21
..LN887:
                                # LOE rbx r13 r14 r15 r12d
..B8.11:                        # Preds ..B8.25 ..B8.21 ..B8.20 ..B8.10 Latency 17
..L375:         # optimization report
                # %s was not vectorized: inner loop was already vectorized
..LN888:
        lea       60(%rsp), %r8                                 #57.5 c1
..LN889:
        movl      $.2.40_2_kmpc_loc_struct_pack.26, %edi        #57.5 c5
..LN890:
        movl      8(%rsp), %esi                                 #57.5 c5
..LN891:
        movq      %rbx, %rdx                                    #57.5 c9
..LN892:
        movq      %r14, %rcx                                    #57.5 c9
..LN893:
        lea       8(%r8), %r9                                   #57.5 c13
..LN894:
        xorl      %eax, %eax                                    #57.5 c13
..___tag_value__Z4easyPfll.376:
..LN895:
        call      __kmpc_dispatch_next_4                        #57.5
..___tag_value__Z4easyPfll.377:
..LN896:
                                # LOE rbx r13 r14 r15 eax r12d
..B8.12:                        # Preds ..B8.11 Latency 9
..LN897:
        movl      56(%rsp), %r8d                                #57.5 c1
..LN898:
        testl     %eax, %eax                                    #57.5 c1
..LN899:
        movslq    %r8d, %rsi                                    #57.5 c5
..LN900:
        movl      60(%rsp), %r9d                                #57.5 c5
..LN901:
        je        ..B8.28       # Prob 50%                      #57.5 c9
..LN902:
                                # LOE rbx rsi r13 r14 r15 r8d r9d r12d
..B8.13:                        # Preds ..B8.12 Latency 37
..LN903:
	.loc    1  58  is_stmt 1
        movl      %r9d, %eax                                    #58.5 c1
..LN904:
        subl      %r8d, %eax                                    #58.5 c5
..LN905:
        addl      $8, %eax                                      #58.5 c9
..LN906:
        sarl      $2, %eax                                      #58.5 c13
..LN907:
        shrl      $29, %eax                                     #58.5 c17
..LN908:
        addl      %eax, %r9d                                    #58.5 c21
..LN909:
        subl      %r8d, %r9d                                    #58.5 c25
..LN910:
        addl      $8, %r9d                                      #58.5 c29
..LN911:
        sarl      $3, %r9d                                      #58.5 c33
..LN912:
        cmpl      $16, %r9d                                     #58.5 c37
..LN913:
        jl        ..B8.29       # Prob 10%                      #58.5 c37
..LN914:
                                # LOE rbx rsi r13 r14 r15 r8d r9d r12d
..B8.14:                        # Preds ..B8.13 Latency 9
..LN915:
        movl      %r9d, %edi                                    #58.5 c1
..LN916:
        movl      %r12d, %eax                                   #58.5 c1
..LN917:
        andl      $-16, %edi                                    #58.5 c5
..LN918:
	.loc    1  59  is_stmt 1
        testq     %r15, %r15                                    #59.38 c9
..LN919:
        jle       ..B8.20       # Prob 50%                      #59.38 c9
..LN920:
                                # LOE rbx rsi r13 r14 r15 eax edi r8d r9d r12d
..B8.15:                        # Preds ..B8.14 Latency 9
..LN921:
	.loc    1  62  is_stmt 1
        vmovdqa32 .L_2il0floatpacket.9(%rip), %zmm0             #62.21 c1
..LN922:
        vmovaps   .L_2il0floatpacket.8(%rip), %zmm1             #62.21 c5
..LN923:
        lea       (%r13,%rsi,4), %rsi                           #62.21 c9
..LN924:
                                # LOE rbx rsi r13 r14 r15 eax edi r8d r9d r12d zmm0 zmm1
..B8.16:                        # Preds ..B8.18 ..B8.15 Latency 9
..LN925:
        lea       (,%rax,8), %r10d                              #62.21 c1
..LN926:
	.loc    1  59  is_stmt 1
        xorl      %r11d, %r11d                                  #59.9 c1
..LN927:
	.loc    1  62  is_stmt 1
        movslq    %r10d, %r10                                   #62.21 c5
..LN928:
        lea       (%rsi,%r10,4), %r10                           #62.21 c9
..LN929:
                                # LOE rbx rsi r10 r11 r13 r14 r15 eax edi r8d r9d r12d zmm0 zmm1
..B8.17:                        # Preds ..B8.17 ..B8.16 Latency 377
..L379:         # optimization report
                # LOOP WAS COMPLETELY UNROLLED BY 8
..L378:         # optimization report
                # LOOP WAS VECTORIZED
                # loop was vectorized along with the outer loop
..LN930:
        kxnor     %k1, %k1                                      #62.21 c5
..LN931:
	.loc    1  64  is_stmt 1
        kxnor     %k2, %k2                                      #64.17 c5
..LN932:
	.loc    1  62  is_stmt 1
        vgatherpf0hintdps (%r10,%zmm0,8){%k1}                   #62.21 c9
..LN933:
        vgatherpf0hintdps (%r10,%zmm0,8){%k1}                   #62.21
..LN934:
        nop                                                     #62.21
..L381:                                                         #
..LN935:
        vgatherdps (%r10,%zmm0,8), %zmm2{%k1}                   #62.21
..LN936:
        jkzd      ..L380, %k1   # Prob 50%                      #62.21
..LN937:
        vgatherdps (%r10,%zmm0,8), %zmm2{%k1}                   #62.21
..LN938:
        vgatherdps (%r10,%zmm0,8), %zmm2{%k1}                   #62.21
..LN939:
        vgatherdps (%r10,%zmm0,8), %zmm2{%k1}                   #62.21
..LN940:
        vgatherdps (%r10,%zmm0,8), %zmm2{%k1}                   #62.21
..LN941:
        vgatherdps (%r10,%zmm0,8), %zmm2{%k1}                   #62.21
..LN942:
        vgatherdps (%r10,%zmm0,8), %zmm2{%k1}                   #62.21
..LN943:
        vgatherdps (%r10,%zmm0,8), %zmm2{%k1}                   #62.21
..LN944:
        vgatherdps (%r10,%zmm0,8), %zmm2{%k1}                   #62.21
..LN945:
        jknzd     ..L381, %k1   # Prob 50%                      #62.21
..L380:                                                         #
..LN946:
        kxnor     %k3, %k3                                      #62.21 c29
..LN947:
	.loc    1  64  is_stmt 1
        kxnor     %k4, %k4                                      #64.17 c29
..LN948:
	.loc    1  63  is_stmt 1
        vfmsub213ps %zmm1, %zmm2, %zmm2                         #63.28 c33
..LN949:
	.loc    1  62  is_stmt 1
        kxnor     %k5, %k5                                      #62.21 c33
..LN950:
        kxnor     %k7, %k7                                      #62.21 c37
..LN951:
	.loc    1  64  is_stmt 1
        kxnor     %k6, %k6                                      #64.17 c37
..LN952:
        vscatterpf0hintdps (%r10,%zmm0,8){%k2}                  #64.17 c41
..LN953:
        vscatterpf0hintdps (%r10,%zmm0,8){%k2}                  #64.17
..LN954:
        nop                                                     #64.17
..L383:                                                         #
..LN955:
        vscatterdps %zmm2, (%r10,%zmm0,8){%k2}                  #64.17
..LN956:
        jkzd      ..L382, %k2   # Prob 50%                      #64.17
..LN957:
        vscatterdps %zmm2, (%r10,%zmm0,8){%k2}                  #64.17
..LN958:
        vscatterdps %zmm2, (%r10,%zmm0,8){%k2}                  #64.17
..LN959:
        vscatterdps %zmm2, (%r10,%zmm0,8){%k2}                  #64.17
..LN960:
        vscatterdps %zmm2, (%r10,%zmm0,8){%k2}                  #64.17
..LN961:
        vscatterdps %zmm2, (%r10,%zmm0,8){%k2}                  #64.17
..LN962:
        vscatterdps %zmm2, (%r10,%zmm0,8){%k2}                  #64.17
..LN963:
        vscatterdps %zmm2, (%r10,%zmm0,8){%k2}                  #64.17
..LN964:
        vscatterdps %zmm2, (%r10,%zmm0,8){%k2}                  #64.17
..LN965:
        jknzd     ..L383, %k2   # Prob 50%                      #64.17
..L382:                                                         #
..LN966:
	.loc    1  62  is_stmt 1
        vgatherpf0hintdps 4(%r10,%zmm0,8){%k3}                  #62.21 c61
..LN967:
        vgatherpf0hintdps 4(%r10,%zmm0,8){%k3}                  #62.21
..LN968:
        nop                                                     #62.21
..L385:                                                         #
..LN969:
        vgatherdps 4(%r10,%zmm0,8), %zmm3{%k3}                  #62.21
..LN970:
        jkzd      ..L384, %k3   # Prob 50%                      #62.21
..LN971:
        vgatherdps 4(%r10,%zmm0,8), %zmm3{%k3}                  #62.21
..LN972:
        vgatherdps 4(%r10,%zmm0,8), %zmm3{%k3}                  #62.21
..LN973:
        vgatherdps 4(%r10,%zmm0,8), %zmm3{%k3}                  #62.21
..LN974:
        vgatherdps 4(%r10,%zmm0,8), %zmm3{%k3}                  #62.21
..LN975:
        vgatherdps 4(%r10,%zmm0,8), %zmm3{%k3}                  #62.21
..LN976:
        vgatherdps 4(%r10,%zmm0,8), %zmm3{%k3}                  #62.21
..LN977:
        vgatherdps 4(%r10,%zmm0,8), %zmm3{%k3}                  #62.21
..LN978:
        vgatherdps 4(%r10,%zmm0,8), %zmm3{%k3}                  #62.21
..LN979:
        jknzd     ..L385, %k3   # Prob 50%                      #62.21
..L384:                                                         #
..LN980:
        vgatherpf0hintdps 8(%r10,%zmm0,8){%k5}                  #62.21 c81
..LN981:
        vgatherpf0hintdps 8(%r10,%zmm0,8){%k5}                  #62.21
..LN982:
        nop                                                     #62.21
..L387:                                                         #
..LN983:
        vgatherdps 8(%r10,%zmm0,8), %zmm4{%k5}                  #62.21
..LN984:
        jkzd      ..L386, %k5   # Prob 50%                      #62.21
..LN985:
        vgatherdps 8(%r10,%zmm0,8), %zmm4{%k5}                  #62.21
..LN986:
        vgatherdps 8(%r10,%zmm0,8), %zmm4{%k5}                  #62.21
..LN987:
        vgatherdps 8(%r10,%zmm0,8), %zmm4{%k5}                  #62.21
..LN988:
        vgatherdps 8(%r10,%zmm0,8), %zmm4{%k5}                  #62.21
..LN989:
        vgatherdps 8(%r10,%zmm0,8), %zmm4{%k5}                  #62.21
..LN990:
        vgatherdps 8(%r10,%zmm0,8), %zmm4{%k5}                  #62.21
..LN991:
        vgatherdps 8(%r10,%zmm0,8), %zmm4{%k5}                  #62.21
..LN992:
        vgatherdps 8(%r10,%zmm0,8), %zmm4{%k5}                  #62.21
..LN993:
        jknzd     ..L387, %k5   # Prob 50%                      #62.21
..L386:                                                         #
..LN994:
	.loc    1  63  is_stmt 1
        vfmsub213ps %zmm1, %zmm3, %zmm3                         #63.28 c101
..LN995:
	.loc    1  64  is_stmt 1
        kxnor     %k1, %k1                                      #64.17 c101
..LN996:
	.loc    1  63  is_stmt 1
        vfmsub213ps %zmm1, %zmm4, %zmm4                         #63.28 c105
..LN997:
	.loc    1  62  is_stmt 1
        kxnor     %k2, %k2                                      #62.21 c105
..LN998:
	.loc    1  64  is_stmt 1
        vscatterpf0hintdps 4(%r10,%zmm0,8){%k4}                 #64.17 c109
..LN999:
        vscatterpf0hintdps 4(%r10,%zmm0,8){%k4}                 #64.17
..LN1000:
        nop                                                     #64.17
..L389:                                                         #
..LN1001:
        vscatterdps %zmm3, 4(%r10,%zmm0,8){%k4}                 #64.17
..LN1002:
        jkzd      ..L388, %k4   # Prob 50%                      #64.17
..LN1003:
        vscatterdps %zmm3, 4(%r10,%zmm0,8){%k4}                 #64.17
..LN1004:
        vscatterdps %zmm3, 4(%r10,%zmm0,8){%k4}                 #64.17
..LN1005:
        vscatterdps %zmm3, 4(%r10,%zmm0,8){%k4}                 #64.17
..LN1006:
        vscatterdps %zmm3, 4(%r10,%zmm0,8){%k4}                 #64.17
..LN1007:
        vscatterdps %zmm3, 4(%r10,%zmm0,8){%k4}                 #64.17
..LN1008:
        vscatterdps %zmm3, 4(%r10,%zmm0,8){%k4}                 #64.17
..LN1009:
        vscatterdps %zmm3, 4(%r10,%zmm0,8){%k4}                 #64.17
..LN1010:
        vscatterdps %zmm3, 4(%r10,%zmm0,8){%k4}                 #64.17
..LN1011:
        jknzd     ..L389, %k4   # Prob 50%                      #64.17
..L388:                                                         #
..LN1012:
	.loc    1  62  is_stmt 1
        vgatherpf0hintdps 12(%r10,%zmm0,8){%k7}                 #62.21 c129
..LN1013:
        vgatherpf0hintdps 12(%r10,%zmm0,8){%k7}                 #62.21
..LN1014:
        nop                                                     #62.21
..L391:                                                         #
..LN1015:
        vgatherdps 12(%r10,%zmm0,8), %zmm5{%k7}                 #62.21
..LN1016:
        jkzd      ..L390, %k7   # Prob 50%                      #62.21
..LN1017:
        vgatherdps 12(%r10,%zmm0,8), %zmm5{%k7}                 #62.21
..LN1018:
        vgatherdps 12(%r10,%zmm0,8), %zmm5{%k7}                 #62.21
..LN1019:
        vgatherdps 12(%r10,%zmm0,8), %zmm5{%k7}                 #62.21
..LN1020:
        vgatherdps 12(%r10,%zmm0,8), %zmm5{%k7}                 #62.21
..LN1021:
        vgatherdps 12(%r10,%zmm0,8), %zmm5{%k7}                 #62.21
..LN1022:
        vgatherdps 12(%r10,%zmm0,8), %zmm5{%k7}                 #62.21
..LN1023:
        vgatherdps 12(%r10,%zmm0,8), %zmm5{%k7}                 #62.21
..LN1024:
        vgatherdps 12(%r10,%zmm0,8), %zmm5{%k7}                 #62.21
..LN1025:
        jknzd     ..L391, %k7   # Prob 50%                      #62.21
..L390:                                                         #
..LN1026:
	.loc    1  64  is_stmt 1
        vscatterpf0hintdps 8(%r10,%zmm0,8){%k6}                 #64.17 c149
..LN1027:
        vscatterpf0hintdps 8(%r10,%zmm0,8){%k6}                 #64.17
..LN1028:
        nop                                                     #64.17
..L393:                                                         #
..LN1029:
        vscatterdps %zmm4, 8(%r10,%zmm0,8){%k6}                 #64.17
..LN1030:
        jkzd      ..L392, %k6   # Prob 50%                      #64.17
..LN1031:
        vscatterdps %zmm4, 8(%r10,%zmm0,8){%k6}                 #64.17
..LN1032:
        vscatterdps %zmm4, 8(%r10,%zmm0,8){%k6}                 #64.17
..LN1033:
        vscatterdps %zmm4, 8(%r10,%zmm0,8){%k6}                 #64.17
..LN1034:
        vscatterdps %zmm4, 8(%r10,%zmm0,8){%k6}                 #64.17
..LN1035:
        vscatterdps %zmm4, 8(%r10,%zmm0,8){%k6}                 #64.17
..LN1036:
        vscatterdps %zmm4, 8(%r10,%zmm0,8){%k6}                 #64.17
..LN1037:
        vscatterdps %zmm4, 8(%r10,%zmm0,8){%k6}                 #64.17
..LN1038:
        vscatterdps %zmm4, 8(%r10,%zmm0,8){%k6}                 #64.17
..LN1039:
        jknzd     ..L393, %k6   # Prob 50%                      #64.17
..L392:                                                         #
..LN1040:
	.loc    1  63  is_stmt 1
        vfmsub213ps %zmm1, %zmm5, %zmm5                         #63.28 c169
..LN1041:
	.loc    1  62  is_stmt 1
        kxnor     %k4, %k4                                      #62.21 c169
..LN1042:
        vgatherpf0hintdps 16(%r10,%zmm0,8){%k2}                 #62.21 c173
..LN1043:
        vgatherpf0hintdps 16(%r10,%zmm0,8){%k2}                 #62.21
..LN1044:
        nop                                                     #62.21
..L395:                                                         #
..LN1045:
        vgatherdps 16(%r10,%zmm0,8), %zmm6{%k2}                 #62.21
..LN1046:
        jkzd      ..L394, %k2   # Prob 50%                      #62.21
..LN1047:
        vgatherdps 16(%r10,%zmm0,8), %zmm6{%k2}                 #62.21
..LN1048:
        vgatherdps 16(%r10,%zmm0,8), %zmm6{%k2}                 #62.21
..LN1049:
        vgatherdps 16(%r10,%zmm0,8), %zmm6{%k2}                 #62.21
..LN1050:
        vgatherdps 16(%r10,%zmm0,8), %zmm6{%k2}                 #62.21
..LN1051:
        vgatherdps 16(%r10,%zmm0,8), %zmm6{%k2}                 #62.21
..LN1052:
        vgatherdps 16(%r10,%zmm0,8), %zmm6{%k2}                 #62.21
..LN1053:
        vgatherdps 16(%r10,%zmm0,8), %zmm6{%k2}                 #62.21
..LN1054:
        vgatherdps 16(%r10,%zmm0,8), %zmm6{%k2}                 #62.21
..LN1055:
        jknzd     ..L395, %k2   # Prob 50%                      #62.21
..L394:                                                         #
..LN1056:
	.loc    1  64  is_stmt 1
        vscatterpf0hintdps 12(%r10,%zmm0,8){%k1}                #64.17 c193
..LN1057:
        vscatterpf0hintdps 12(%r10,%zmm0,8){%k1}                #64.17
..LN1058:
        nop                                                     #64.17
..L397:                                                         #
..LN1059:
        vscatterdps %zmm5, 12(%r10,%zmm0,8){%k1}                #64.17
..LN1060:
        jkzd      ..L396, %k1   # Prob 50%                      #64.17
..LN1061:
        vscatterdps %zmm5, 12(%r10,%zmm0,8){%k1}                #64.17
..LN1062:
        vscatterdps %zmm5, 12(%r10,%zmm0,8){%k1}                #64.17
..LN1063:
        vscatterdps %zmm5, 12(%r10,%zmm0,8){%k1}                #64.17
..LN1064:
        vscatterdps %zmm5, 12(%r10,%zmm0,8){%k1}                #64.17
..LN1065:
        vscatterdps %zmm5, 12(%r10,%zmm0,8){%k1}                #64.17
..LN1066:
        vscatterdps %zmm5, 12(%r10,%zmm0,8){%k1}                #64.17
..LN1067:
        vscatterdps %zmm5, 12(%r10,%zmm0,8){%k1}                #64.17
..LN1068:
        vscatterdps %zmm5, 12(%r10,%zmm0,8){%k1}                #64.17
..LN1069:
        jknzd     ..L397, %k1   # Prob 50%                      #64.17
..L396:                                                         #
..LN1070:
	.loc    1  62  is_stmt 1
        vgatherpf0hintdps 20(%r10,%zmm0,8){%k4}                 #62.21 c213
..LN1071:
        vgatherpf0hintdps 20(%r10,%zmm0,8){%k4}                 #62.21
..LN1072:
        nop                                                     #62.21
..L399:                                                         #
..LN1073:
        vgatherdps 20(%r10,%zmm0,8), %zmm7{%k4}                 #62.21
..LN1074:
        jkzd      ..L398, %k4   # Prob 50%                      #62.21
..LN1075:
        vgatherdps 20(%r10,%zmm0,8), %zmm7{%k4}                 #62.21
..LN1076:
        vgatherdps 20(%r10,%zmm0,8), %zmm7{%k4}                 #62.21
..LN1077:
        vgatherdps 20(%r10,%zmm0,8), %zmm7{%k4}                 #62.21
..LN1078:
        vgatherdps 20(%r10,%zmm0,8), %zmm7{%k4}                 #62.21
..LN1079:
        vgatherdps 20(%r10,%zmm0,8), %zmm7{%k4}                 #62.21
..LN1080:
        vgatherdps 20(%r10,%zmm0,8), %zmm7{%k4}                 #62.21
..LN1081:
        vgatherdps 20(%r10,%zmm0,8), %zmm7{%k4}                 #62.21
..LN1082:
        vgatherdps 20(%r10,%zmm0,8), %zmm7{%k4}                 #62.21
..LN1083:
        jknzd     ..L399, %k4   # Prob 50%                      #62.21
..L398:                                                         #
..LN1084:
	.loc    1  63  is_stmt 1
        vfmsub213ps %zmm1, %zmm6, %zmm6                         #63.28 c233
..LN1085:
	.loc    1  64  is_stmt 1
        kxnor     %k3, %k3                                      #64.17 c233
..LN1086:
	.loc    1  63  is_stmt 1
        vfmsub213ps %zmm1, %zmm7, %zmm7                         #63.28 c237
..LN1087:
	.loc    1  64  is_stmt 1
        kxnor     %k5, %k5                                      #64.17 c237
..LN1088:
        vscatterpf0hintdps 16(%r10,%zmm0,8){%k3}                #64.17 c241
..LN1089:
        vscatterpf0hintdps 16(%r10,%zmm0,8){%k3}                #64.17
..LN1090:
        nop                                                     #64.17
..L401:                                                         #
..LN1091:
        vscatterdps %zmm6, 16(%r10,%zmm0,8){%k3}                #64.17
..LN1092:
        jkzd      ..L400, %k3   # Prob 50%                      #64.17
..LN1093:
        vscatterdps %zmm6, 16(%r10,%zmm0,8){%k3}                #64.17
..LN1094:
        vscatterdps %zmm6, 16(%r10,%zmm0,8){%k3}                #64.17
..LN1095:
        vscatterdps %zmm6, 16(%r10,%zmm0,8){%k3}                #64.17
..LN1096:
        vscatterdps %zmm6, 16(%r10,%zmm0,8){%k3}                #64.17
..LN1097:
        vscatterdps %zmm6, 16(%r10,%zmm0,8){%k3}                #64.17
..LN1098:
        vscatterdps %zmm6, 16(%r10,%zmm0,8){%k3}                #64.17
..LN1099:
        vscatterdps %zmm6, 16(%r10,%zmm0,8){%k3}                #64.17
..LN1100:
        vscatterdps %zmm6, 16(%r10,%zmm0,8){%k3}                #64.17
..LN1101:
        jknzd     ..L401, %k3   # Prob 50%                      #64.17
..L400:                                                         #
..LN1102:
        vscatterpf0hintdps 20(%r10,%zmm0,8){%k5}                #64.17 c261
..LN1103:
        vscatterpf0hintdps 20(%r10,%zmm0,8){%k5}                #64.17
..LN1104:
        nop                                                     #64.17
..L403:                                                         #
..LN1105:
        vscatterdps %zmm7, 20(%r10,%zmm0,8){%k5}                #64.17
..LN1106:
        jkzd      ..L402, %k5   # Prob 50%                      #64.17
..LN1107:
        vscatterdps %zmm7, 20(%r10,%zmm0,8){%k5}                #64.17
..LN1108:
        vscatterdps %zmm7, 20(%r10,%zmm0,8){%k5}                #64.17
..LN1109:
        vscatterdps %zmm7, 20(%r10,%zmm0,8){%k5}                #64.17
..LN1110:
        vscatterdps %zmm7, 20(%r10,%zmm0,8){%k5}                #64.17
..LN1111:
        vscatterdps %zmm7, 20(%r10,%zmm0,8){%k5}                #64.17
..LN1112:
        vscatterdps %zmm7, 20(%r10,%zmm0,8){%k5}                #64.17
..LN1113:
        vscatterdps %zmm7, 20(%r10,%zmm0,8){%k5}                #64.17
..LN1114:
        vscatterdps %zmm7, 20(%r10,%zmm0,8){%k5}                #64.17
..LN1115:
        jknzd     ..L403, %k5   # Prob 50%                      #64.17
..L402:                                                         #
..LN1116:
	.loc    1  62  is_stmt 1
        kxnor     %k6, %k6                                      #62.21 c281
..LN1117:
        kxnor     %k2, %k2                                      #62.21 c281
..LN1118:
        vgatherpf0hintdps 24(%r10,%zmm0,8){%k6}                 #62.21 c285
..LN1119:
        vgatherpf0hintdps 24(%r10,%zmm0,8){%k6}                 #62.21
..LN1120:
        nop                                                     #62.21
..L405:                                                         #
..LN1121:
        vgatherdps 24(%r10,%zmm0,8), %zmm8{%k6}                 #62.21
..LN1122:
        jkzd      ..L404, %k6   # Prob 50%                      #62.21
..LN1123:
        vgatherdps 24(%r10,%zmm0,8), %zmm8{%k6}                 #62.21
..LN1124:
        vgatherdps 24(%r10,%zmm0,8), %zmm8{%k6}                 #62.21
..LN1125:
        vgatherdps 24(%r10,%zmm0,8), %zmm8{%k6}                 #62.21
..LN1126:
        vgatherdps 24(%r10,%zmm0,8), %zmm8{%k6}                 #62.21
..LN1127:
        vgatherdps 24(%r10,%zmm0,8), %zmm8{%k6}                 #62.21
..LN1128:
        vgatherdps 24(%r10,%zmm0,8), %zmm8{%k6}                 #62.21
..LN1129:
        vgatherdps 24(%r10,%zmm0,8), %zmm8{%k6}                 #62.21
..LN1130:
        vgatherdps 24(%r10,%zmm0,8), %zmm8{%k6}                 #62.21
..LN1131:
        jknzd     ..L405, %k6   # Prob 50%                      #62.21
..L404:                                                         #
..LN1132:
        vgatherpf0hintdps 28(%r10,%zmm0,8){%k2}                 #62.21 c305
..LN1133:
        vgatherpf0hintdps 28(%r10,%zmm0,8){%k2}                 #62.21
..LN1134:
        nop                                                     #62.21
..L407:                                                         #
..LN1135:
        vgatherdps 28(%r10,%zmm0,8), %zmm9{%k2}                 #62.21
..LN1136:
        jkzd      ..L406, %k2   # Prob 50%                      #62.21
..LN1137:
        vgatherdps 28(%r10,%zmm0,8), %zmm9{%k2}                 #62.21
..LN1138:
        vgatherdps 28(%r10,%zmm0,8), %zmm9{%k2}                 #62.21
..LN1139:
        vgatherdps 28(%r10,%zmm0,8), %zmm9{%k2}                 #62.21
..LN1140:
        vgatherdps 28(%r10,%zmm0,8), %zmm9{%k2}                 #62.21
..LN1141:
        vgatherdps 28(%r10,%zmm0,8), %zmm9{%k2}                 #62.21
..LN1142:
        vgatherdps 28(%r10,%zmm0,8), %zmm9{%k2}                 #62.21
..LN1143:
        vgatherdps 28(%r10,%zmm0,8), %zmm9{%k2}                 #62.21
..LN1144:
        vgatherdps 28(%r10,%zmm0,8), %zmm9{%k2}                 #62.21
..LN1145:
        jknzd     ..L407, %k2   # Prob 50%                      #62.21
..L406:                                                         #
..LN1146:
	.loc    1  63  is_stmt 1
        vfmsub213ps %zmm1, %zmm8, %zmm8                         #63.28 c325
..LN1147:
	.loc    1  64  is_stmt 1
        kxnor     %k1, %k1                                      #64.17 c325
..LN1148:
	.loc    1  63  is_stmt 1
        vfmsub213ps %zmm1, %zmm9, %zmm9                         #63.28 c329
..LN1149:
	.loc    1  64  is_stmt 1
        kxnor     %k3, %k3                                      #64.17 c329
..LN1150:
        vscatterpf0hintdps 24(%r10,%zmm0,8){%k1}                #64.17 c333
..LN1151:
        vscatterpf0hintdps 24(%r10,%zmm0,8){%k1}                #64.17
..LN1152:
        nop                                                     #64.17
..L409:                                                         #
..LN1153:
        vscatterdps %zmm8, 24(%r10,%zmm0,8){%k1}                #64.17
..LN1154:
        jkzd      ..L408, %k1   # Prob 50%                      #64.17
..LN1155:
        vscatterdps %zmm8, 24(%r10,%zmm0,8){%k1}                #64.17
..LN1156:
        vscatterdps %zmm8, 24(%r10,%zmm0,8){%k1}                #64.17
..LN1157:
        vscatterdps %zmm8, 24(%r10,%zmm0,8){%k1}                #64.17
..LN1158:
        vscatterdps %zmm8, 24(%r10,%zmm0,8){%k1}                #64.17
..LN1159:
        vscatterdps %zmm8, 24(%r10,%zmm0,8){%k1}                #64.17
..LN1160:
        vscatterdps %zmm8, 24(%r10,%zmm0,8){%k1}                #64.17
..LN1161:
        vscatterdps %zmm8, 24(%r10,%zmm0,8){%k1}                #64.17
..LN1162:
        vscatterdps %zmm8, 24(%r10,%zmm0,8){%k1}                #64.17
..LN1163:
        jknzd     ..L409, %k1   # Prob 50%                      #64.17
..L408:                                                         #
..LN1164:
        vscatterpf0hintdps 28(%r10,%zmm0,8){%k3}                #64.17 c353
..LN1165:
        vscatterpf0hintdps 28(%r10,%zmm0,8){%k3}                #64.17
..LN1166:
        nop                                                     #64.17
..L411:                                                         #
..LN1167:
        vscatterdps %zmm9, 28(%r10,%zmm0,8){%k3}                #64.17
..LN1168:
        jkzd      ..L410, %k3   # Prob 50%                      #64.17
..LN1169:
        vscatterdps %zmm9, 28(%r10,%zmm0,8){%k3}                #64.17
..LN1170:
        vscatterdps %zmm9, 28(%r10,%zmm0,8){%k3}                #64.17
..LN1171:
        vscatterdps %zmm9, 28(%r10,%zmm0,8){%k3}                #64.17
..LN1172:
        vscatterdps %zmm9, 28(%r10,%zmm0,8){%k3}                #64.17
..LN1173:
        vscatterdps %zmm9, 28(%r10,%zmm0,8){%k3}                #64.17
..LN1174:
        vscatterdps %zmm9, 28(%r10,%zmm0,8){%k3}                #64.17
..LN1175:
        vscatterdps %zmm9, 28(%r10,%zmm0,8){%k3}                #64.17
..LN1176:
        vscatterdps %zmm9, 28(%r10,%zmm0,8){%k3}                #64.17
..LN1177:
        jknzd     ..L411, %k3   # Prob 50%                      #64.17
..L410:                                                         #
..LN1178:
	.loc    1  59  is_stmt 1
        incl      %r11d                                         #59.9 c373
..LN1179:
        cmpq      %r15, %r11                                    #59.9 c377
..LN1180:
        jb        ..B8.17       # Prob 82%                      #59.9 c377
..LN1181:
                                # LOE rbx rsi r10 r11 r13 r14 r15 eax edi r8d r9d r12d zmm0 zmm1
..B8.18:                        # Preds ..B8.17 Latency 5
..LN1182:
	.loc    1  58  is_stmt 1
        addl      $16, %eax                                     #58.5 c1
..LN1183:
        cmpl      %edi, %eax                                    #58.5 c5
..LN1184:
        jb        ..B8.16       # Prob 82%                      #58.5 c5
..LN1185:
                                # LOE rbx rsi r13 r14 r15 eax edi r8d r9d r12d zmm0 zmm1
..B8.20:                        # Preds ..B8.18 ..B8.14 ..B8.29 Latency 5
..LN1186:
        lea       1(%rdi), %esi                                 #58.5 c1
..LN1187:
        movl      %r12d, %eax                                   #58.5 c1
..LN1188:
        cmpl      %esi, %r9d                                    #58.5 c5
..LN1189:
        jb        ..B8.11       # Prob 0%                       #58.5 c5
..LN1190:
                                # LOE rbx r13 r14 r15 eax edi r8d r9d r12d
..B8.21:                        # Preds ..B8.20 Latency 5
..LN1191:
        subl      %edi, %r9d                                    #58.5 c1
..LN1192:
	.loc    1  62  is_stmt 1
        lea       (%r8,%rdi,8), %esi                            #62.21 c1
..LN1193:
	.loc    1  59  is_stmt 1
        testq     %r15, %r15                                    #59.38 c5
..LN1194:
        jle       ..B8.11       # Prob 50%                      #59.38 c5
..LN1195:
                                # LOE rbx r13 r14 r15 eax esi r9d r12d
..B8.22:                        # Preds ..B8.21 Latency 5
..LN1196:
        vbroadcastss (%rsp), %zmm8                              # c1
..LN1197:
        movl      $1, %edx                                      # c1
..LN1198:
        kmov      %edx, %k1                                     # c5
..LN1199:
                                # LOE rbx r13 r14 r15 eax esi r9d r12d zmm8 k1
..B8.23:                        # Preds ..B8.25 ..B8.22 Latency 37
..LN1200:
	.loc    1  62  is_stmt 1
        lea       (%rsi,%rax,8), %r8d                           #62.21 c1
..LN1201:
	.loc    1  59  is_stmt 1
        xorl      %edi, %edi                                    #59.9 c1
..LN1202:
	.loc    1  62  is_stmt 1
        movslq    %r8d, %r8                                     #62.21 c5
..LN1203:
        vbroadcastss 28(%r13,%r8,4), %zmm7{%k1}                 #62.21 c9
..LN1204:
        vbroadcastss 24(%r13,%r8,4), %zmm6{%k1}                 #62.21 c13
..LN1205:
        vbroadcastss 20(%r13,%r8,4), %zmm5{%k1}                 #62.21 c17
..LN1206:
        vbroadcastss 16(%r13,%r8,4), %zmm4{%k1}                 #62.21 c21
..LN1207:
        vbroadcastss 12(%r13,%r8,4), %zmm3{%k1}                 #62.21 c25
..LN1208:
        vbroadcastss 8(%r13,%r8,4), %zmm2{%k1}                  #62.21 c29
..LN1209:
        vbroadcastss 4(%r13,%r8,4), %zmm1{%k1}                  #62.21 c33
..LN1210:
        vbroadcastss (%r13,%r8,4), %zmm0{%k1}                   #62.21 c37
..LN1211:
                                # LOE rbx rdi r8 r13 r14 r15 eax esi r9d r12d zmm0 zmm1 zmm2 zmm3 zmm4 zmm5 zmm6 zmm7 zmm8 k1
..B8.24:                        # Preds ..B8.24 ..B8.23 Latency 29
..LN1212:
	.loc    1  64  is_stmt 1
        vfmsub213ps %zmm8, %zmm0, %zmm0{%k1}                    #64.17 c1
..LN1213:
	.loc    1  59  is_stmt 1
        incl      %edi                                          #59.9 c1
..LN1214:
	.loc    1  64  is_stmt 1
        vfmsub213ps %zmm8, %zmm1, %zmm1{%k1}                    #64.17 c5
..LN1215:
	.loc    1  59  is_stmt 1
        cmpq      %r15, %rdi                                    #59.9 c5
..LN1216:
	.loc    1  64  is_stmt 1
        vfmsub213ps %zmm8, %zmm2, %zmm2{%k1}                    #64.17 c9
..LN1217:
        vfmsub213ps %zmm8, %zmm3, %zmm3{%k1}                    #64.17 c13
..LN1218:
        vfmsub213ps %zmm8, %zmm4, %zmm4{%k1}                    #64.17 c17
..LN1219:
        vfmsub213ps %zmm8, %zmm5, %zmm5{%k1}                    #64.17 c21
..LN1220:
        vfmsub213ps %zmm8, %zmm6, %zmm6{%k1}                    #64.17 c25
..LN1221:
        vfmsub213ps %zmm8, %zmm7, %zmm7{%k1}                    #64.17 c29
..LN1222:
	.loc    1  59  is_stmt 1
        jb        ..B8.24       # Prob 82%                      #59.9 c29
..LN1223:
                                # LOE rbx rdi r8 r13 r14 r15 eax esi r9d r12d zmm0 zmm1 zmm2 zmm3 zmm4 zmm5 zmm6 zmm7 zmm8 k1
..B8.25:                        # Preds ..B8.24 Latency 29
..LN1224:
	.loc    1  64  is_stmt 1
        vpackstorelps %zmm6, 24(%r13,%r8,4){%k1}                #64.17 c1
..LN1225:
	.loc    1  58  is_stmt 1
        incl      %eax                                          #58.5 c1
..LN1226:
	.loc    1  64  is_stmt 1
        vpackstorelps %zmm7, 28(%r13,%r8,4){%k1}                #64.17 c5
..LN1227:
	.loc    1  58  is_stmt 1
        cmpl      %r9d, %eax                                    #58.5 c5
..LN1228:
	.loc    1  64  is_stmt 1
        vpackstorelps %zmm5, 20(%r13,%r8,4){%k1}                #64.17 c9
..LN1229:
        vpackstorelps %zmm4, 16(%r13,%r8,4){%k1}                #64.17 c13
..LN1230:
        vpackstorelps %zmm3, 12(%r13,%r8,4){%k1}                #64.17 c17
..LN1231:
        vpackstorelps %zmm2, 8(%r13,%r8,4){%k1}                 #64.17 c21
..LN1232:
        vpackstorelps %zmm1, 4(%r13,%r8,4){%k1}                 #64.17 c25
..LN1233:
        vpackstorelps %zmm0, (%r13,%r8,4){%k1}                  #64.17 c29
..LN1234:
	.loc    1  58  is_stmt 1
        jb        ..B8.23       # Prob 82%                      #58.5 c29
..LN1235:
        jmp       ..B8.11       # Prob 100%                     #58.5 c29
..LN1236:
                                # LOE rbx r13 r14 r15 eax esi r9d r12d zmm8 k1
..B8.28:                        # Preds ..B8.12 ..B8.8 Latency 13
..LN1237:
	.loc    1  57  is_stmt 1
        movq      16(%rsp), %r15                                #57.5 c1
	.cfi_restore 15
..LN1238:
        movq      24(%rsp), %r14                                #57.5 c1
	.cfi_restore 14
..LN1239:
        movq      32(%rsp), %r13                                #57.5 c5
	.cfi_restore 13
..LN1240:
        movq      40(%rsp), %r12                                #57.5 c5
	.cfi_restore 12
..LN1241:
        movq      48(%rsp), %rbx                                #57.5 c9
	.cfi_restore 3
..LN1242:
	.loc    1  57  epilogue_begin  is_stmt 1
        movq      %rbp, %rsp                                    #57.5 c13
..LN1243:
        popq      %rbp                                          #57.5
	.cfi_def_cfa 7, 8
	.cfi_restore 6
..LN1244:
        ret                                                     #57.5
	.cfi_def_cfa 6, 16
	.cfi_escape 0x10, 0x03, 0x0e, 0x38, 0x1c, 0x0d, 0xc0, 0xff, 0xff, 0xff, 0x1a, 0x0d, 0xb0, 0xff, 0xff, 0xff, 0x22
	.cfi_offset 6, -16
	.cfi_escape 0x10, 0x0c, 0x0e, 0x38, 0x1c, 0x0d, 0xc0, 0xff, 0xff, 0xff, 0x1a, 0x0d, 0xa8, 0xff, 0xff, 0xff, 0x22
	.cfi_escape 0x10, 0x0d, 0x0e, 0x38, 0x1c, 0x0d, 0xc0, 0xff, 0xff, 0xff, 0x1a, 0x0d, 0xa0, 0xff, 0xff, 0xff, 0x22
	.cfi_escape 0x10, 0x0e, 0x0e, 0x38, 0x1c, 0x0d, 0xc0, 0xff, 0xff, 0xff, 0x1a, 0x0d, 0x98, 0xff, 0xff, 0xff, 0x22
	.cfi_escape 0x10, 0x0f, 0x0e, 0x38, 0x1c, 0x0d, 0xc0, 0xff, 0xff, 0xff, 0x1a, 0x0d, 0x90, 0xff, 0xff, 0xff, 0x22
..LN1245:
                                # LOE
..B8.29:                        # Preds ..B8.13                 # Infreq Latency 2
..LN1246:
	.loc    1  58  is_stmt 1
        movl      %r12d, %edi                                   #58.5 c1
..LN1247:
        jmp       ..B8.20       # Prob 100%                     #58.5 c1
        .align    16,0x90
	.cfi_endproc
..LN1248:
                                # LOE rbx r13 r14 r15 edi r8d r9d r12d
..LN1249:
# mark_end;
	.type	_Z4easyPfll,@function
	.size	_Z4easyPfll,.-_Z4easyPfll
..LN_Z4easyPfll.1250:
.LN_Z4easyPfll:
	.data
	.align 4
.2.40_2_kmpc_loc_struct_pack.12:
	.long	0
	.long	2
	.long	0
	.long	0
	.quad	.2.40_2__kmpc_loc_pack.11
	.align 4
.2.40_2__kmpc_loc_pack.11:
	.byte	59
	.byte	117
	.byte	110
	.byte	107
	.byte	110
	.byte	111
	.byte	119
	.byte	110
	.byte	59
	.byte	101
	.byte	97
	.byte	115
	.byte	121
	.byte	59
	.byte	53
	.byte	55
	.byte	59
	.byte	53
	.byte	55
	.byte	59
	.byte	59
	.space 3, 0x00 	# pad
	.align 4
.2.40_2_kmpc_loc_struct_pack.26:
	.long	0
	.long	2
	.long	0
	.long	0
	.quad	.2.40_2__kmpc_loc_pack.25
	.align 4
.2.40_2__kmpc_loc_pack.25:
	.byte	59
	.byte	117
	.byte	110
	.byte	107
	.byte	110
	.byte	111
	.byte	119
	.byte	110
	.byte	59
	.byte	101
	.byte	97
	.byte	115
	.byte	121
	.byte	59
	.byte	53
	.byte	55
	.byte	59
	.byte	54
	.byte	55
	.byte	59
	.byte	59
	.data
# -- End  _Z4easyPfll, L__Z4easyPfll_57__par_loop0_2.7
	.text
.L_2__routine_start__ZN3mic5clearElPPf_8:
# -- Begin  _ZN3mic5clearElPPf, __offload_entry_helper_mic_h_13clear_19a24bfe21b0d9401b6fecd8ec8d0aa6icc010766287475T8ldu0
	.text
# mark_begin;
# Threads 4
        .align    16,0x90
__offload_entry_helper_mic_h_13clear_19a24bfe21b0d9401b6fecd8ec8d0aa6icc010766287475T8ldu0:
# parameter 1: %rdi
..B9.1:                         # Preds ..B9.0 Latency 53
	.cfi_startproc
	.cfi_personality 0x3,__gxx_personality_v0
..___tag_value__ZN3mic5clearElPPf.432:
..L433:
                                                        #13.9
..LN1251:
	.loc    2  13  is_stmt 1
        pushq     %rbp                                          #13.9
	.cfi_def_cfa_offset 16
..LN1252:
        movq      %rsp, %rbp                                    #13.9
	.cfi_def_cfa 6, 16
	.cfi_offset 6, -16
..LN1253:
        andq      $-64, %rsp                                    #13.9
..LN1254:
        pushq     %rbx                                          #13.9 c1
..LN1255:
        subq      $248, %rsp                                    #13.9 c1
..LN1256:
        vmovaps   .2.41_2__offload_var_desc1_p.28(%rip), %zmm0  #13.9 c5
..LN1257:
        vmovaps   64+.2.41_2__offload_var_desc1_p.28(%rip), %zmm1 #13.9 c9
..LN1258:
        lea       64(%rsp), %rdx                                #13.9 c13
..LN1259:
        lea       8(%rsp), %rcx                                 #13.9 c13
..LN1260:
        vmovaps   %zmm0, (%rdx)                                 #13.9 c17
..LN1261:
        lea       48(%rsp), %rax                                #13.9 c17
..LN1262:
        vmovaps   %zmm1, 64(%rdx)                               #13.9 c21
..LN1263:
        lea       56(%rsp), %rsi                                #13.9 c21
..LN1264:
        movq      .2.41_2__offload_var_desc2_p.33(%rip), %r8    #13.9 c25
..LN1265:
        movq      8+.2.41_2__offload_var_desc2_p.33(%rip), %r9  #13.9 c25
..LN1266:
        movq      16+.2.41_2__offload_var_desc2_p.33(%rip), %r10 #13.9 c29
..LN1267:
        movq      24+.2.41_2__offload_var_desc2_p.33(%rip), %r11 #13.9 c29
..LN1268:
        movq      %rax, 56(%rdx)                                #13.9 c33
	.cfi_escape 0x10, 0x03, 0x0e, 0x38, 0x1c, 0x0d, 0xc0, 0xff, 0xff, 0xff, 0x1a, 0x0d, 0xf8, 0xff, 0xff, 0xff, 0x22
..LN1269:
        movq      %rdi, %rbx                                    #13.9 c33
..LN1270:
        movq      %rsi, 136(%rax)                               #13.9 c37
..LN1271:
        movl      $2, %esi                                      #13.9 c37
..LN1272:
        xorl      %eax, %eax                                    #13.9 c41
..LN1273:
        movq      %r8, (%rcx)                                   #13.9 c41
..LN1274:
        movq      %r9, 8(%rcx)                                  #13.9 c45
..LN1275:
        movq      %r10, 16(%rcx)                                #13.9 c45
..LN1276:
        movq      %r11, 24(%rcx)                                #13.9 c49
..___tag_value__ZN3mic5clearElPPf.439:
..LN1277:
        call      __offload_target_enter                        #13.9
..___tag_value__ZN3mic5clearElPPf.440:
..LN1278:
                                # LOE rbx r12 r13 r14 r15
..B9.2:                         # Preds ..B9.1 Latency 9
..LN1279:
	.loc    2  15  prologue_end  is_stmt 1
        movq      48(%rsp), %rdx                                #15.27 c1
..LN1280:
	.loc    2  13  is_stmt 1
        movq      56(%rsp), %rax                                #13.9 c1
..LN1281:
	.loc    2  15  is_stmt 1
        movq      (%rdx), %r11                                  #15.27 c5
..LN1282:
	.loc    2  17  is_stmt 1
        testq     %rax, %rax                                    #17.42 c5
..LN1283:
        jle       ..B9.17       # Prob 50%                      #17.42 c9
..LN1284:
                                # LOE rax rbx r11 r12 r13 r14 r15
..B9.3:                         # Preds ..B9.2 Latency 5
..LN1285:
        movq      %r11, %rsi                                    #17.13 c1
..LN1286:
        andq      $63, %rsi                                     #17.13 c5
..LN1287:
        je        ..B9.5        # Prob 50%                      #17.13 c5
..LN1288:
                                # LOE rax rbx rsi r11 r12 r13 r14 r15
..B9.4:                         # Preds ..B9.3 Latency 17
..LN1289:
        negq      %rsi                                          #17.13 c1
..LN1290:
        addq      $64, %rsi                                     #17.13 c5
..LN1291:
        shrq      $2, %rsi                                      #17.13 c9
..LN1292:
        cmpq      %rsi, %rax                                    #17.13 c13
..LN1293:
        jge       ..L441        # Prob 50%                      #17.13 c17
..LN1294:
        movq      %rax, %rsi                                    #17.13
..L441:                                                         #
..LN1295:
                                # LOE rax rbx rsi r11 r12 r13 r14 r15
..B9.5:                         # Preds ..B9.4 ..B9.3 Latency 21
..LN1296:
        movq      %rax, %r10                                    #17.13 c1
..LN1297:
        subq      %rsi, %r10                                    #17.13 c5
..LN1298:
        andq      $31, %r10                                     #17.13 c9
..LN1299:
        negq      %r10                                          #17.13 c13
..LN1300:
        addq      %rax, %r10                                    #17.13 c17
..LN1301:
        cmpq      $1, %rsi                                      #17.13 c21
..LN1302:
        jb        ..B9.9        # Prob 50%                      #17.13 c21
..LN1303:
                                # LOE rax rbx rsi r10 r11 r12 r13 r14 r15
..B9.6:                         # Preds ..B9.5 Latency 29
..LN1304:
        vpbroadcastq .L_2il0floatpacket.11(%rip), %zmm4         #17.13 c1
..LN1305:
        vmovdqa32 .L_2il0floatpacket.12(%rip), %zmm3            #17.13 c5
..LN1306:
        vmovdqa32 .L_2il0floatpacket.13(%rip), %zmm2            #17.13 c9
..LN1307:
        vpxord    %zmm1, %zmm1, %zmm1                           #17.51 c13
..LN1308:
        movl      $21845, %edx                                  #17.13 c13
..LN1309:
        movq      %rsi, (%rsp)                                  #17.13 c17
..LN1310:
        kmov      %edx, %k2                                     #17.13 c17
..LN1311:
        vpbroadcastq (%rsp), %zmm0                              #17.13 c21
..LN1312:
        movl      $43690, %edx                                  #17.13 c21
..LN1313:
        xorl      %r8d, %r8d                                    #17.13 c25
..LN1314:
        xorl      %ecx, %ecx                                    #17.13 c25
..LN1315:
        kmov      %edx, %k1                                     #17.13 c29
..LN1316:
        movq      %r15, 40(%rsp)                                #17.13 c29
	.cfi_escape 0x10, 0x0f, 0x0e, 0x38, 0x1c, 0x0d, 0xc0, 0xff, 0xff, 0xff, 0x1a, 0x0d, 0x28, 0xff, 0xff, 0xff, 0x22
..LN1317:
                                # LOE rax rcx rbx rsi r8 r10 r11 r12 r13 r14 zmm0 zmm1 zmm2 zmm3 zmm4 k1 k2
..B9.7:                         # Preds ..B9.7 ..B9.6 Latency 105
..L443:         # optimization report
                # LOOP WAS VECTORIZED
                # PEELED LOOP FOR VECTORIZATION
                # SIMD LOOP
                # MASKED VECTORIZATION
                # VECTORIZATION HAS UNALIGNED MEMORY REFERENCES
                # VECTORIZATION SPEEDUP COEFFECIENT 1.778320
                # VECTOR TRIP COUNT IS ESTIMATED CONSTANT
                # VECTOR LENGTH 16
                # NORMALIZED VECTORIZATION OVERHEAD 0.812500
..LN1318:
        addq      $16, %r8                                      #17.13 c1
..LN1319:
        vpcmpud   $0, %zmm0, %zmm3, %k3                         #17.13 c5
..LN1320:
        addq      $64, %rcx                                     #17.13 c5
..LN1321:
        vpcmpltd  %zmm0, %zmm3, %k0                             #17.13 c9
..LN1322:
        vpcmpud   $2, %zmm0, %zmm3, %k4                         #17.13 c13
..LN1323:
        kmov      %k3, %r9d                                     #17.13 c13
..LN1324:
        vpcmpud   $2, %zmm0, %zmm2, %k3                         #17.13 c17
..LN1325:
        kmov      %k0, %r15d                                    #17.13 c17
..LN1326:
        vpcmpud   $0, %zmm0, %zmm2, %k0                         #17.13 c21
..LN1327:
        kmov      %k4, %edx                                     #17.13 c21
..LN1328:
        vpcmpltd  %zmm0, %zmm2, %k7                             #17.13 c25
..LN1329:
        addl      %edx, %edx                                    #17.13 c25
..LN1330:
        vmovaps   %zmm1, %zmm6                                  #17.13 c29
..LN1331:
        kmov      %k3, %edi                                     #17.13 c29
..LN1332:
        vmovaps   %zmm1, %zmm5                                  #17.13 c33
..LN1333:
        andl      %r9d, %edx                                    #17.13 c33
..LN1334:
        vpaddsetcd %zmm4, %k3, %zmm3{%k2}                       #17.13 c37
..LN1335:
        kmov      %k0, %r9d                                     #17.13 c37
..LN1336:
        addl      %edi, %edi                                    #17.13 c41
..LN1337:
        orl       %r15d, %edx                                   #17.13 c41
..LN1338:
        kmov      %k7, %r15d                                    #17.13 c45
..LN1339:
        andl      %r9d, %edi                                    #17.13 c45
..LN1340:
        orl       %r15d, %edi                                   #17.13 c49
..LN1341:
        andl      $-21846, %edx                                 #17.13 c49
..LN1342:
        andl      $-21846, %edi                                 #17.13 c53
..LN1343:
        kmov      %edx, %k5                                     #17.13 c53
..LN1344:
        vbroadcastss .L_2il0floatpacket.3(%rip), %zmm5{%k5}     #17.13 c57
..LN1345:
        vcmpneqpd %zmm5, %zmm1, %k6                             #17.13 c61
..LN1346:
        kmov      %edi, %k4                                     #17.13 c61
..LN1347:
        vbroadcastss .L_2il0floatpacket.3(%rip), %zmm6{%k4}     #17.13 c65
..LN1348:
        vcmpneqpd %zmm6, %zmm1, %k5                             #17.13 c69
..LN1349:
        kmov      %k6, %edx                                     #17.13 c69
..LN1350:
        movzbl    %dl, %edx                                     #17.42 c73
..LN1351:
        kmov      %k3, %r15d                                    #17.13 c73
..LN1352:
        kmov      %k5, %r9d                                     #17.13 c77
..LN1353:
        addl      %r15d, %r15d                                  #17.13 c77
..LN1354:
        vpaddsetcd %zmm4, %k5, %zmm2{%k2}                       #17.13 c81
..LN1355:
        kmov      %r15d, %k4                                    #17.13 c81
..LN1356:
        shll      $8, %r9d                                      #17.42 c85
..LN1357:
        vpadcd    %zmm4, %k4, %zmm3{%k1}                        #17.13 c89
..LN1358:
        orl       %r9d, %edx                                    #17.42 c89
..LN1359:
        kmov      %edx, %k6                                     #17.42 c93
..LN1360:
        kmov      %k5, %edx                                     #17.13 c93
..LN1361:
        vpackstorelps %zmm1, -64(%rcx,%r11){%k6}                #17.42 c97
..LN1362:
        addl      %edx, %edx                                    #17.13 c97
..LN1363:
        kmov      %edx, %k7                                     #17.13 c101
..LN1364:
        cmpq      %rsi, %r8                                     #17.13 c101
..LN1365:
        vpadcd    %zmm4, %k7, %zmm2{%k1}                        #17.13 c105
..LN1366:
        jb        ..B9.7        # Prob 50%                      #17.13 c105
..LN1367:
                                # LOE rax rcx rbx rsi r8 r10 r11 r12 r13 r14 zmm0 zmm1 zmm2 zmm3 zmm4 k1 k2
..B9.8:                         # Preds ..B9.7 Latency 5
..LN1368:
        movq      40(%rsp), %r15                                # c1
	.cfi_restore 15
..LN1369:
        cmpq      %rsi, %rax                                    #17.13 c1
..LN1370:
        je        ..B9.17       # Prob 10%                      #17.13 c5
..LN1371:
                                # LOE rax rbx rsi r10 r11 r12 r13 r14 r15
..B9.9:                         # Preds ..B9.5 ..B9.8 Latency 5
..LN1372:
        lea       32(%rsi), %rdx                                #17.13 c1
..LN1373:
        cmpq      %rdx, %r10                                    #17.13 c5
..LN1374:
        jl        ..B9.13       # Prob 50%                      #17.13 c5
..LN1375:
                                # LOE rax rbx rsi r10 r11 r12 r13 r14 r15
..B9.10:                        # Preds ..B9.9 Latency 21
..LN1376:
        vpxord    %zmm0, %zmm0, %zmm0                           #17.51 c1
..LN1377:
        vprefetche0 (%r11)                                      #17.42 c1
..LN1378:
        vprefetche0 128(%r11)                                   #17.42 c5
..LN1379:
        movb      %al, %al                                      #17.42 c5
..LN1380:
        vprefetche0 256(%r11)                                   #17.42 c9
..LN1381:
        movb      %al, %al                                      #17.42 c9
..LN1382:
        vprefetche0 384(%r11)                                   #17.42 c13
..LN1383:
        movb      %al, %al                                      #17.42 c13
..LN1384:
        vprefetche0 64(%r11)                                    #17.42 c17
..LN1385:
        movb      %al, %al                                      #17.42 c17
..LN1386:
        vprefetche0 192(%r11)                                   #17.42 c21
..LN1387:
                                # LOE rax rbx rsi r10 r11 r12 r13 r14 r15 zmm0
..B9.11:                        # Preds ..B9.11 ..B9.10 Latency 17
..L445:         # optimization report
                # LOOP WAS UNROLLED BY 2
                # LOOP WAS PREFETCHED, LINES = 4
                # LOOP WAS VECTORIZED
                # SIMD LOOP
                # VECTORIZATION SPEEDUP COEFFECIENT 15.796875
                # VECTOR TRIP COUNT IS ESTIMATED CONSTANT
                # VECTOR LENGTH 16
                # NORMALIZED VECTORIZATION OVERHEAD 1.625000
..LN1388:
        vprefetche1 1024(%r11,%rsi,4)                           #17.42 c1
..LN1389:
        vmovaps   %zmm0, (%r11,%rsi,4)                          #17.42 c5
..LN1390:
        vprefetche0 512(%r11,%rsi,4)                            #17.42 c5
..LN1391:
        vmovaps   %zmm0, 64(%r11,%rsi,4)                        #17.42 c9
..LN1392:
        vprefetche1 1088(%r11,%rsi,4)                           #17.42 c9
..LN1393:
        vprefetche0 576(%r11,%rsi,4)                            #17.42 c13
..LN1394:
        addq      $32, %rsi                                     #17.13 c13
..LN1395:
        cmpq      %r10, %rsi                                    #17.13 c17
..LN1396:
        jb        ..B9.11       # Prob 50%                      #17.13 c17
..LN1397:
                                # LOE rax rbx rsi r10 r11 r12 r13 r14 r15 zmm0
..B9.13:                        # Preds ..B9.11 ..B9.9 Latency 5
..LN1398:
        lea       1(%r10), %rdx                                 #17.13 c1
..LN1399:
        cmpq      %rdx, %rax                                    #17.13 c5
..LN1400:
        jb        ..B9.17       # Prob 50%                      #17.13 c5
..LN1401:
                                # LOE rax rbx r10 r11 r12 r13 r14 r15
..B9.14:                        # Preds ..B9.13 Latency 33
..LN1402:
        vpbroadcastq .L_2il0floatpacket.11(%rip), %zmm4         #17.13 c1
..LN1403:
        vmovdqa32 .L_2il0floatpacket.12(%rip), %zmm3            #17.13 c5
..LN1404:
        vmovdqa32 .L_2il0floatpacket.13(%rip), %zmm2            #17.13 c9
..LN1405:
        vpxord    %zmm0, %zmm0, %zmm0                           #17.51 c13
..LN1406:
        movq      %rax, %r8                                     #17.13 c13
..LN1407:
        subq      %r10, %r8                                     #17.13 c17
..LN1408:
        movl      $21845, %edx                                  #17.13 c17
..LN1409:
        movq      %r8, (%rsp)                                   #17.13 c21
..LN1410:
        kmov      %edx, %k2                                     #17.13 c21
..LN1411:
        vpbroadcastq (%rsp), %zmm1                              #17.13 c25
..LN1412:
        movl      $43690, %edx                                  #17.13 c25
..LN1413:
        xorl      %r9d, %r9d                                    #17.13 c29
..LN1414:
        lea       (%r11,%r10,4), %rcx                           #17.42 c29
..LN1415:
        xorl      %esi, %esi                                    #17.13 c33
..LN1416:
        kmov      %edx, %k1                                     #17.13 c33
..LN1417:
                                # LOE rax rcx rbx rsi r8 r9 r12 r13 r14 r15 zmm0 zmm1 zmm2 zmm3 zmm4 k1 k2
..B9.15:                        # Preds ..B9.15 ..B9.14 Latency 105
..L446:         # optimization report
                # LOOP WAS VECTORIZED
                # REMAINDER LOOP FOR VECTORIZATION
                # SIMD LOOP
                # MASKED VECTORIZATION
                # VECTORIZATION SPEEDUP COEFFECIENT 3.048828
                # VECTOR TRIP COUNT IS ESTIMATED CONSTANT
                # VECTOR LENGTH 16
                # NORMALIZED VECTORIZATION OVERHEAD 1.000000
..LN1418:
        addq      $16, %r9                                      #17.13 c1
..LN1419:
        vpcmpud   $0, %zmm1, %zmm3, %k3                         #17.13 c5
..LN1420:
        addq      $64, %rsi                                     #17.13 c5
..LN1421:
        vpcmpltd  %zmm1, %zmm3, %k0                             #17.13 c9
..LN1422:
        vpcmpud   $2, %zmm1, %zmm3, %k4                         #17.13 c13
..LN1423:
        kmov      %k3, %r10d                                    #17.13 c13
..LN1424:
        vpcmpud   $2, %zmm1, %zmm2, %k3                         #17.13 c17
..LN1425:
        kmov      %k0, %r11d                                    #17.13 c17
..LN1426:
        vpcmpud   $0, %zmm1, %zmm2, %k0                         #17.13 c21
..LN1427:
        kmov      %k4, %edx                                     #17.13 c21
..LN1428:
        vpcmpltd  %zmm1, %zmm2, %k7                             #17.13 c25
..LN1429:
        addl      %edx, %edx                                    #17.13 c25
..LN1430:
        vmovaps   %zmm0, %zmm6                                  #17.13 c29
..LN1431:
        kmov      %k3, %edi                                     #17.13 c29
..LN1432:
        vmovaps   %zmm0, %zmm5                                  #17.13 c33
..LN1433:
        andl      %r10d, %edx                                   #17.13 c33
..LN1434:
        vpaddsetcd %zmm4, %k3, %zmm3{%k2}                       #17.13 c37
..LN1435:
        kmov      %k0, %r10d                                    #17.13 c37
..LN1436:
        addl      %edi, %edi                                    #17.13 c41
..LN1437:
        orl       %r11d, %edx                                   #17.13 c41
..LN1438:
        kmov      %k7, %r11d                                    #17.13 c45
..LN1439:
        andl      %r10d, %edi                                   #17.13 c45
..LN1440:
        orl       %r11d, %edi                                   #17.13 c49
..LN1441:
        andl      $-21846, %edx                                 #17.13 c49
..LN1442:
        andl      $-21846, %edi                                 #17.13 c53
..LN1443:
        kmov      %edx, %k5                                     #17.13 c53
..LN1444:
        vbroadcastss .L_2il0floatpacket.3(%rip), %zmm5{%k5}     #17.13 c57
..LN1445:
        vcmpneqpd %zmm5, %zmm0, %k6                             #17.13 c61
..LN1446:
        kmov      %edi, %k4                                     #17.13 c61
..LN1447:
        vbroadcastss .L_2il0floatpacket.3(%rip), %zmm6{%k4}     #17.13 c65
..LN1448:
        vcmpneqpd %zmm6, %zmm0, %k5                             #17.13 c69
..LN1449:
        kmov      %k6, %edx                                     #17.13 c69
..LN1450:
        movzbl    %dl, %edx                                     #17.42 c73
..LN1451:
        kmov      %k3, %r11d                                    #17.13 c73
..LN1452:
        kmov      %k5, %r10d                                    #17.13 c77
..LN1453:
        addl      %r11d, %r11d                                  #17.13 c77
..LN1454:
        vpaddsetcd %zmm4, %k5, %zmm2{%k2}                       #17.13 c81
..LN1455:
        kmov      %r11d, %k4                                    #17.13 c81
..LN1456:
        shll      $8, %r10d                                     #17.42 c85
..LN1457:
        vpadcd    %zmm4, %k4, %zmm3{%k1}                        #17.13 c89
..LN1458:
        orl       %r10d, %edx                                   #17.42 c89
..LN1459:
        kmov      %edx, %k6                                     #17.42 c93
..LN1460:
        kmov      %k5, %edx                                     #17.13 c93
..LN1461:
        vmovaps   %zmm0, -64(%rsi,%rcx){%k6}                    #17.42 c97
..LN1462:
        addl      %edx, %edx                                    #17.13 c97
..LN1463:
        kmov      %edx, %k7                                     #17.13 c101
..LN1464:
        cmpq      %r8, %r9                                      #17.13 c101
..LN1465:
        vpadcd    %zmm4, %k7, %zmm2{%k1}                        #17.13 c105
..LN1466:
        jb        ..B9.15       # Prob 50%                      #17.13 c105
..LN1467:
                                # LOE rax rcx rbx rsi r8 r9 r12 r13 r14 r15 zmm0 zmm1 zmm2 zmm3 zmm4 k1 k2
..B9.17:                        # Preds ..B9.15 ..B9.13 ..B9.8 ..B9.2 Latency 9
..LN1468:
	.loc    2  13  is_stmt 1
        movq      %rax, 56(%rsp)                                #13.9 c1
..LN1469:
        movq      %rbx, %rdi                                    #13.9 c1
..LN1470:
        xorl      %eax, %eax                                    #13.9 c5
..___tag_value__ZN3mic5clearElPPf.447:
..LN1471:
        call      __offload_target_leave                        #13.9
..___tag_value__ZN3mic5clearElPPf.448:
..LN1472:
                                # LOE r12 r13 r14 r15
..B9.18:                        # Preds ..B9.17 Latency 9
..LN1473:
	.loc    2  13  epilogue_begin  is_stmt 1
        addq      $248, %rsp                                    #13.9
	.cfi_restore 3
..LN1474:
        popq      %rbx                                          #13.9
..LN1475:
        movq      %rbp, %rsp                                    #13.9 c9
..LN1476:
        popq      %rbp                                          #13.9
	.cfi_def_cfa 7, 8
	.cfi_restore 6
..LN1477:
        ret                                                     #13.9
	.cfi_def_cfa 6, 16
..LN1478:
                                # LOE
	.type	__offload_entry_helper_mic_h_13clear_19a24bfe21b0d9401b6fecd8ec8d0aa6icc010766287475T8ldu0,@function
	.size	__offload_entry_helper_mic_h_13clear_19a24bfe21b0d9401b6fecd8ec8d0aa6icc010766287475T8ldu0,.-__offload_entry_helper_mic_h_13clear_19a24bfe21b0d9401b6fecd8ec8d0aa6icc010766287475T8ldu0
	.globl _ZN3mic5clearElPPf
_ZN3mic5clearElPPf:
# parameter 1(size): %rdi
# parameter 2(mem): %rsi
..B9.19:                        # Preds ..B9.0 Latency 13
..LN1479:
	.loc    2  11  is_stmt 1
        pushq     %rbp                                          #11.5
	.cfi_def_cfa 7, 16
..LN1480:
        movq      %rsp, %rbp                                    #11.5
	.cfi_def_cfa 6, 16
	.cfi_offset 6, -16
..LN1481:
        andq      $-64, %rsp                                    #11.5
..LN1482:
        pushq     %rbx                                          #11.5 c1
..LN1483:
        subq      $248, %rsp                                    #11.5 c1
..LN1484:
	.loc    2  11  epilogue_begin  is_stmt 1
        addq      $248, %rsp                                    #11.5
	.cfi_escape 0x10, 0x03, 0x0e, 0x38, 0x1c, 0x0d, 0xc0, 0xff, 0xff, 0xff, 0x1a, 0x0d, 0xf8, 0xff, 0xff, 0xff, 0x22
	.cfi_restore 3
..LN1485:
        popq      %rbx                                          #11.5
..LN1486:
        movq      %rbp, %rsp                                    #11.5 c13
..LN1487:
        popq      %rbp                                          #11.5
	.cfi_def_cfa 7, 8
	.cfi_restore 6
..LN1488:
        ret                                                     #11.5
        .align    16,0x90
	.cfi_endproc
..LN1489:
                                # LOE
..LN1490:
# mark_end;
	.type	_ZN3mic5clearElPPf,@function
	.size	_ZN3mic5clearElPPf,.-_ZN3mic5clearElPPf
..LN_ZN3mic5clearElPPf.1491:
.LN_ZN3mic5clearElPPf:
	.data
	.space 35, 0x00 	# pad
	.align 64
.2.41_2__offload_var_desc1_p.28:
	.byte	34
	.byte	1
	.byte	1
	.byte	1
	.long	8
	.long	0
	.long	0
	.long	0x00000000,0x00000000
	.long	0x00000008,0x00000000
	.long	0x00000001,0x00000000
	.long	0x00000000,0x00000000
	.long	0x00000000,0x00000000
	.long	0x00000000,0x00000000
	.byte	17
	.byte	3
	.byte	1
	.byte	1
	.long	8
	.long	0
	.long	0
	.long	0x00000000,0x00000000
	.long	0x00000008,0x00000000
	.long	0x00000001,0x00000000
	.long	0x00000000,0x00000000
	.long	0x00000000,0x00000000
	.long	0x00000000,0x00000000
	.align 8
.2.41_2__offload_var_desc2_p.33:
	.quad	__sd_2inst_string.19
	.long	0x00000000,0x00000000
	.quad	__sd_2inst_string.20
	.long	0x00000000,0x00000000
	.section .rodata, "a"
	.space 2, 0x00 	# pad
	.align 4
__sd_2inst_string.18:
	.byte	95
	.byte	95
	.byte	111
	.byte	102
	.byte	102
	.byte	108
	.byte	111
	.byte	97
	.byte	100
	.byte	95
	.byte	101
	.byte	110
	.byte	116
	.byte	114
	.byte	121
	.byte	95
	.byte	104
	.byte	101
	.byte	108
	.byte	112
	.byte	101
	.byte	114
	.byte	95
	.byte	109
	.byte	105
	.byte	99
	.byte	95
	.byte	104
	.byte	95
	.byte	49
	.byte	51
	.byte	99
	.byte	108
	.byte	101
	.byte	97
	.byte	114
	.byte	95
	.byte	49
	.byte	57
	.byte	97
	.byte	50
	.byte	52
	.byte	98
	.byte	102
	.byte	101
	.byte	50
	.byte	49
	.byte	98
	.byte	48
	.byte	100
	.byte	57
	.byte	52
	.byte	48
	.byte	49
	.byte	98
	.byte	54
	.byte	102
	.byte	101
	.byte	99
	.byte	100
	.byte	56
	.byte	101
	.byte	99
	.byte	56
	.byte	100
	.byte	48
	.byte	97
	.byte	97
	.byte	54
	.byte	105
	.byte	99
	.byte	99
	.byte	48
	.byte	49
	.byte	48
	.byte	55
	.byte	54
	.byte	54
	.byte	50
	.byte	56
	.byte	55
	.byte	52
	.byte	55
	.byte	53
	.byte	84
	.byte	56
	.byte	108
	.byte	100
	.byte	117
	.byte	48
	.byte	0
	.space 1, 0x00 	# pad
	.align 4
__sd_2inst_string.19:
	.byte	109
	.byte	101
	.byte	109
	.byte	0
	.align 4
__sd_2inst_string.20:
	.byte	110
	.byte	0
	.section .OffloadEntryTable., "waG",@progbits,__offload_entry_helper_mic_h_13clear_19a24bfe21b0d9401b6fecd8ec8d0aa6icc010766287475T8ldu0_$entry,comdat
	.align 16
__offload_entry_helper_mic_h_13clear_19a24bfe21b0d9401b6fecd8ec8d0aa6icc010766287475T8ldu0_$entry:
	.type	__offload_entry_helper_mic_h_13clear_19a24bfe21b0d9401b6fecd8ec8d0aa6icc010766287475T8ldu0_$entry,@object
	.size	__offload_entry_helper_mic_h_13clear_19a24bfe21b0d9401b6fecd8ec8d0aa6icc010766287475T8ldu0_$entry,16
	.quad	__sd_2inst_string.18
	.quad	__offload_entry_helper_mic_h_13clear_19a24bfe21b0d9401b6fecd8ec8d0aa6icc010766287475T8ldu0
	.data
# -- End  _ZN3mic5clearElPPf, __offload_entry_helper_mic_h_13clear_19a24bfe21b0d9401b6fecd8ec8d0aa6icc010766287475T8ldu0
	.text
.L_2__routine_start__Z6callSiPfll_9:
# -- Begin  _Z6callSiPfll, __offload_entry_computebound_calu_cpp_157callSi_e10223e121e69351141aa0458d7c0c88icc010766287475T8ldu0
	.text
# mark_begin;
# Threads 4
        .align    16,0x90
__offload_entry_computebound_calu_cpp_157callSi_e10223e121e69351141aa0458d7c0c88icc010766287475T8ldu0:
# parameter 1: %rdi
..B10.1:                        # Preds ..B10.0 Latency 77
	.cfi_startproc
	.cfi_personality 0x3,__gxx_personality_v0
..___tag_value__Z6callSiPfll.469:
..L470:
                                                        #157.5
..LN1492:
	.loc    1  157  is_stmt 1
        pushq     %rbp                                          #157.5
	.cfi_def_cfa_offset 16
..LN1493:
        movq      %rsp, %rbp                                    #157.5
	.cfi_def_cfa 6, 16
	.cfi_offset 6, -16
..LN1494:
        andq      $-64, %rsp                                    #157.5
..LN1495:
        pushq     %r12                                          #157.5 c1
..LN1496:
        pushq     %r13                                          #157.5 c5
..LN1497:
        pushq     %r14                                          #157.5 c9
..LN1498:
        pushq     %rbx                                          #157.5 c13
..LN1499:
        subq      $416, %rsp                                    #157.5 c13
..LN1500:
        vmovaps   .2.42_2__offload_var_desc1_p.30(%rip), %zmm0  #157.5 c17
..LN1501:
        vmovaps   64+.2.42_2__offload_var_desc1_p.30(%rip), %zmm1 #157.5 c21
..LN1502:
        vmovaps   128+.2.42_2__offload_var_desc1_p.30(%rip), %zmm2 #157.5 c25
..LN1503:
        vmovaps   192+.2.42_2__offload_var_desc1_p.30(%rip), %zmm3 #157.5 c29
..LN1504:
        vmovaps   .2.42_2__offload_var_desc2_p.35(%rip), %zmm4  #157.5 c33
..LN1505:
        lea       64(%rsp), %rdx                                #157.5 c37
..LN1506:
        lea       320(%rsp), %rcx                               #157.5 c37
..LN1507:
        vmovaps   %zmm0, (%rdx)                                 #157.5 c41
..LN1508:
        lea       16(%rsp), %r8                                 #157.5 c41
..LN1509:
        vmovaps   %zmm1, 64(%rdx)                               #157.5 c45
..LN1510:
        lea       (%rsp), %r9                                   #157.5 c45
..LN1511:
        vmovaps   %zmm2, 128(%rdx)                              #157.5 c49
..LN1512:
        lea       24(%rsp), %r10                                #157.5 c49
..LN1513:
        vmovaps   %zmm3, 192(%rdx)                              #157.5 c53
..LN1514:
        lea       32(%rsp), %r11                                #157.5 c53
..LN1515:
        vmovaps   %zmm4, (%rcx)                                 #157.5 c57
..LN1516:
        movl      $4, %esi                                      #157.5 c57
..LN1517:
        xorl      %eax, %eax                                    #157.5 c61
	.cfi_escape 0x10, 0x03, 0x0e, 0x38, 0x1c, 0x0d, 0xc0, 0xff, 0xff, 0xff, 0x1a, 0x0d, 0xe0, 0xff, 0xff, 0xff, 0x22
	.cfi_escape 0x10, 0x0c, 0x0e, 0x38, 0x1c, 0x0d, 0xc0, 0xff, 0xff, 0xff, 0x1a, 0x0d, 0xf8, 0xff, 0xff, 0xff, 0x22
	.cfi_escape 0x10, 0x0d, 0x0e, 0x38, 0x1c, 0x0d, 0xc0, 0xff, 0xff, 0xff, 0x1a, 0x0d, 0xf0, 0xff, 0xff, 0xff, 0x22
	.cfi_escape 0x10, 0x0e, 0x0e, 0x38, 0x1c, 0x0d, 0xc0, 0xff, 0xff, 0xff, 0x1a, 0x0d, 0xe8, 0xff, 0xff, 0xff, 0x22
..LN1518:
        movq      %rdi, %r14                                    #157.5 c61
..LN1519:
        movq      %r8, 56(%rdx)                                 #157.5 c65
..LN1520:
        movq      %r9, 120(%rdx)                                #157.5 c65
..LN1521:
        movq      %r10, 184(%rdx)                               #157.5 c69
..LN1522:
        movb      %bl, %bl                                      #157.5 c69
..LN1523:
        movq      %r11, 248(%rdx)                               #157.5 c73
..___tag_value__Z6callSiPfll.479:
..LN1524:
        call      __offload_target_enter                        #157.5
..___tag_value__Z6callSiPfll.480:
..LN1525:
                                # LOE r14 r15
..B10.2:                        # Preds ..B10.1 Latency 9
..LN1526:
	.loc    1  159  prologue_end  is_stmt 1
        movq      16(%rsp), %rax                                #159.35 c1
..LN1527:
	.loc    1  157  is_stmt 1
        movq      24(%rsp), %r13                                #157.5 c1
..LN1528:
        movq      32(%rsp), %r12                                #157.5 c5
..LN1529:
	.loc    1  159  is_stmt 1
        movq      (%rax), %rbx                                  #159.35 c5
..___tag_value__Z6callSiPfll.481:
..LN1530:
	.loc    1  160  is_stmt 1
        call      omp_get_wtime                                 #160.14
..___tag_value__Z6callSiPfll.482:
..LN1531:
                                # LOE rbx r12 r13 r14 r15 zmm0
..B10.10:                       # Preds ..B10.2 Latency 9
..LN1532:
        movl      $1, %eax                                      #160.14 c1
..LN1533:
        kmov      %eax, %k1                                     #160.14 c5
..LN1534:
        vpackstorelpd %zmm0, 8(%rsp){%k1}                       #160.14 c9
..LN1535:
                                # LOE rbx r12 r13 r14 r15
..B10.3:                        # Preds ..B10.10 Latency 21
..LN1536:
	.loc    1  161  is_stmt 1
        movq      %r12, %rdx                                    #161.9 c1
..LN1537:
        movq      %rbx, %rdi                                    #161.9 c1
..LN1538:
        sarq      $2, %rdx                                      #161.9 c5
..LN1539:
        movq      %r13, %rsi                                    #161.9 c5
..LN1540:
        shrq      $61, %rdx                                     #161.9 c9
..LN1541:
        addq      %r12, %rdx                                    #161.9 c13
..LN1542:
        sarq      $3, %rdx                                      #161.9 c17
..___tag_value__Z6callSiPfll.483:
..LN1543:
#       simd(float *, long, long)
        call      _Z4simdPfll                                   #161.9
..___tag_value__Z6callSiPfll.484:
..LN1544:
                                # LOE r12 r13 r14 r15
..B10.4:                        # Preds ..B10.3 Latency 1
..___tag_value__Z6callSiPfll.485:
..LN1545:
	.loc    1  162  is_stmt 1
        call      omp_get_wtime                                 #162.14
..___tag_value__Z6callSiPfll.486:
..LN1546:
                                # LOE r12 r13 r14 r15 zmm0
..B10.5:                        # Preds ..B10.4 Latency 21
..LN1547:
        movl      $1, %eax                                      #162.30 c1
..LN1548:
	.loc    1  157  is_stmt 1
        movq      %r14, %rdi                                    #157.5 c1
..LN1549:
	.loc    1  162  is_stmt 1
        kmov      %eax, %k1                                     #162.30 c5
..LN1550:
	.loc    1  157  is_stmt 1
        xorl      %eax, %eax                                    #157.5 c5
..LN1551:
	.loc    1  162  is_stmt 1
        vsubpd    8(%rsp){1to8}, %zmm0, %zmm0{%k1}              #162.30 c9
..LN1552:
	.loc    1  157  is_stmt 1
        movq      %r12, 32(%rsp)                                #157.5 c9
..LN1553:
        movq      %r13, 24(%rsp)                                #157.5 c13
..LN1554:
        movb      %dl, %dl                                      #157.5 c13
..LN1555:
        vpackstorelpd %zmm0, (%rsp){%k1}                        #157.5 c17
..___tag_value__Z6callSiPfll.487:
..LN1556:
        call      __offload_target_leave                        #157.5
..___tag_value__Z6callSiPfll.488:
..LN1557:
                                # LOE r15
..B10.6:                        # Preds ..B10.5 Latency 21
..LN1558:
	.loc    1  157  epilogue_begin  is_stmt 1
        addq      $416, %rsp                                    #157.5
	.cfi_restore 3
..LN1559:
        popq      %rbx                                          #157.5
	.cfi_restore 14
..LN1560:
        popq      %r14                                          #157.5
	.cfi_restore 13
..LN1561:
        popq      %r13                                          #157.5
	.cfi_restore 12
..LN1562:
        popq      %r12                                          #157.5
..LN1563:
        movq      %rbp, %rsp                                    #157.5 c21
..LN1564:
        popq      %rbp                                          #157.5
	.cfi_def_cfa 7, 8
	.cfi_restore 6
..LN1565:
        ret                                                     #157.5
	.cfi_def_cfa 6, 16
..LN1566:
                                # LOE
	.type	__offload_entry_computebound_calu_cpp_157callSi_e10223e121e69351141aa0458d7c0c88icc010766287475T8ldu0,@function
	.size	__offload_entry_computebound_calu_cpp_157callSi_e10223e121e69351141aa0458d7c0c88icc010766287475T8ldu0,.-__offload_entry_computebound_calu_cpp_157callSi_e10223e121e69351141aa0458d7c0c88icc010766287475T8ldu0
	.globl _Z6callSiPfll
_Z6callSiPfll:
# parameter 1(A): %rdi
# parameter 2(N): %rsi
# parameter 3(M): %rdx
..B10.7:                        # Preds ..B10.0 Latency 37
..LN1567:
	.loc    1  154  is_stmt 1
        pushq     %rbp                                          #154.66
	.cfi_def_cfa 7, 16
..LN1568:
        movq      %rsp, %rbp                                    #154.66
	.cfi_def_cfa 6, 16
	.cfi_offset 6, -16
..LN1569:
        andq      $-64, %rsp                                    #154.66
..LN1570:
        pushq     %r12                                          #154.66 c1
..LN1571:
        pushq     %r13                                          #154.66 c5
..LN1572:
        pushq     %r14                                          #154.66 c9
..LN1573:
        pushq     %rbx                                          #154.66 c13
..LN1574:
        subq      $416, %rsp                                    #154.66 c13
..LN1575:
	.loc    1  154  epilogue_begin  is_stmt 1
        addq      $416, %rsp                                    #154.66
	.cfi_escape 0x10, 0x03, 0x0e, 0x38, 0x1c, 0x0d, 0xc0, 0xff, 0xff, 0xff, 0x1a, 0x0d, 0xe0, 0xff, 0xff, 0xff, 0x22
	.cfi_escape 0x10, 0x0c, 0x0e, 0x38, 0x1c, 0x0d, 0xc0, 0xff, 0xff, 0xff, 0x1a, 0x0d, 0xf8, 0xff, 0xff, 0xff, 0x22
	.cfi_escape 0x10, 0x0d, 0x0e, 0x38, 0x1c, 0x0d, 0xc0, 0xff, 0xff, 0xff, 0x1a, 0x0d, 0xf0, 0xff, 0xff, 0xff, 0x22
	.cfi_escape 0x10, 0x0e, 0x0e, 0x38, 0x1c, 0x0d, 0xc0, 0xff, 0xff, 0xff, 0x1a, 0x0d, 0xe8, 0xff, 0xff, 0xff, 0x22
	.cfi_restore 3
..LN1576:
        popq      %rbx                                          #154.66
	.cfi_restore 14
..LN1577:
        popq      %r14                                          #154.66
	.cfi_restore 13
..LN1578:
        popq      %r13                                          #154.66
	.cfi_restore 12
..LN1579:
        popq      %r12                                          #154.66
..LN1580:
        movq      %rbp, %rsp                                    #154.66 c37
..LN1581:
        popq      %rbp                                          #154.66
	.cfi_def_cfa 7, 8
	.cfi_restore 6
..LN1582:
        ret                                                     #154.66
        .align    16,0x90
	.cfi_endproc
..LN1583:
                                # LOE
..LN1584:
# mark_end;
	.type	_Z6callSiPfll,@function
	.size	_Z6callSiPfll,.-_Z6callSiPfll
..LN_Z6callSiPfll.1585:
.LN_Z6callSiPfll:
	.data
	.space 32, 0x00 	# pad
	.align 64
.2.42_2__offload_var_desc1_p.30:
	.byte	34
	.byte	1
	.byte	1
	.byte	1
	.long	8
	.long	0
	.long	0
	.long	0x00000000,0x00000000
	.long	0x00000008,0x00000000
	.long	0x00000001,0x00000000
	.long	0x00000000,0x00000000
	.long	0x00000000,0x00000000
	.long	0x00000000,0x00000000
	.byte	17
	.byte	3
	.byte	1
	.byte	1
	.long	8
	.long	0
	.long	0
	.long	0x00000000,0x00000000
	.long	0x00000008,0x00000000
	.long	0x00000001,0x00000000
	.long	0x00000000,0x00000000
	.long	0x00000000,0x00000000
	.long	0x00000000,0x00000000
	.byte	17
	.byte	3
	.byte	1
	.byte	1
	.long	8
	.long	0
	.long	0
	.long	0x00000000,0x00000000
	.long	0x00000008,0x00000000
	.long	0x00000001,0x00000000
	.long	0x00000000,0x00000000
	.long	0x00000000,0x00000000
	.long	0x00000000,0x00000000
	.byte	17
	.byte	3
	.byte	1
	.byte	1
	.long	8
	.long	0
	.long	0
	.long	0x00000000,0x00000000
	.long	0x00000008,0x00000000
	.long	0x00000001,0x00000000
	.long	0x00000000,0x00000000
	.long	0x00000000,0x00000000
	.long	0x00000000,0x00000000
	.align 64
.2.42_2__offload_var_desc2_p.35:
	.quad	__sd_2inst_string.22
	.long	0x00000000,0x00000000
	.quad	__sd_2inst_string.23
	.long	0x00000000,0x00000000
	.quad	__sd_2inst_string.24
	.long	0x00000000,0x00000000
	.quad	__sd_2inst_string.25
	.long	0x00000000,0x00000000
	.section .rodata, "a"
	.space 2, 0x00 	# pad
	.align 4
__sd_2inst_string.21:
	.byte	95
	.byte	95
	.byte	111
	.byte	102
	.byte	102
	.byte	108
	.byte	111
	.byte	97
	.byte	100
	.byte	95
	.byte	101
	.byte	110
	.byte	116
	.byte	114
	.byte	121
	.byte	95
	.byte	99
	.byte	111
	.byte	109
	.byte	112
	.byte	117
	.byte	116
	.byte	101
	.byte	98
	.byte	111
	.byte	117
	.byte	110
	.byte	100
	.byte	95
	.byte	99
	.byte	97
	.byte	108
	.byte	117
	.byte	95
	.byte	99
	.byte	112
	.byte	112
	.byte	95
	.byte	49
	.byte	53
	.byte	55
	.byte	99
	.byte	97
	.byte	108
	.byte	108
	.byte	83
	.byte	105
	.byte	95
	.byte	101
	.byte	49
	.byte	48
	.byte	50
	.byte	50
	.byte	51
	.byte	101
	.byte	49
	.byte	50
	.byte	49
	.byte	101
	.byte	54
	.byte	57
	.byte	51
	.byte	53
	.byte	49
	.byte	49
	.byte	52
	.byte	49
	.byte	97
	.byte	97
	.byte	48
	.byte	52
	.byte	53
	.byte	56
	.byte	100
	.byte	55
	.byte	99
	.byte	48
	.byte	99
	.byte	56
	.byte	56
	.byte	105
	.byte	99
	.byte	99
	.byte	48
	.byte	49
	.byte	48
	.byte	55
	.byte	54
	.byte	54
	.byte	50
	.byte	56
	.byte	55
	.byte	52
	.byte	55
	.byte	53
	.byte	84
	.byte	56
	.byte	108
	.byte	100
	.byte	117
	.byte	48
	.byte	0
	.space 2, 0x00 	# pad
	.align 4
__sd_2inst_string.22:
	.byte	112
	.byte	65
	.byte	95
	.byte	109
	.byte	105
	.byte	99
	.byte	0
	.space 1, 0x00 	# pad
	.align 4
__sd_2inst_string.23:
	.byte	116
	.byte	105
	.byte	109
	.byte	101
	.byte	0
	.space 3, 0x00 	# pad
	.align 4
__sd_2inst_string.24:
	.byte	78
	.byte	0
	.space 2, 0x00 	# pad
	.align 4
__sd_2inst_string.25:
	.byte	77
	.byte	0
	.section .OffloadEntryTable., "waG",@progbits,__offload_entry_computebound_calu_cpp_157callSi_e10223e121e69351141aa0458d7c0c88icc010766287475T8ldu0_$entry,comdat
	.align 16
__offload_entry_computebound_calu_cpp_157callSi_e10223e121e69351141aa0458d7c0c88icc010766287475T8ldu0_$entry:
	.type	__offload_entry_computebound_calu_cpp_157callSi_e10223e121e69351141aa0458d7c0c88icc010766287475T8ldu0_$entry,@object
	.size	__offload_entry_computebound_calu_cpp_157callSi_e10223e121e69351141aa0458d7c0c88icc010766287475T8ldu0_$entry,16
	.quad	__sd_2inst_string.21
	.quad	__offload_entry_computebound_calu_cpp_157callSi_e10223e121e69351141aa0458d7c0c88icc010766287475T8ldu0
	.data
# -- End  _Z6callSiPfll, __offload_entry_computebound_calu_cpp_157callSi_e10223e121e69351141aa0458d7c0c88icc010766287475T8ldu0
	.text
.L_2__routine_start__Z4simdPfll_10:
# -- Begin  _Z4simdPfll, L__Z4simdPfll_132__par_loop0_2.15
	.text
# mark_begin;
# Threads 4
        .align    16,0x90
	.globl _Z4simdPfll
# --- simd(float *, long, long)
_Z4simdPfll:
# parameter 1(B): %rdi
# parameter 2(N): %rsi
# parameter 3(M): %rdx
..B11.1:                        # Preds ..B11.0 Latency 25
	.cfi_startproc
	.cfi_personality 0x3,__gxx_personality_v0
..___tag_value__Z4simdPfll.518:
..L519:
                                                        #131.91
..LN1586:
	.loc    1  131  is_stmt 1
        pushq     %rbp                                          #131.91
	.cfi_def_cfa_offset 16
..LN1587:
        movq      %rsp, %rbp                                    #131.91
	.cfi_def_cfa 6, 16
	.cfi_offset 6, -16
..LN1588:
        andq      $-64, %rsp                                    #131.91
..LN1589:
        subq      $128, %rsp                                    #131.91 c1
..LN1590:
        movq      %rdi, (%rsp)                                  #131.91 c5
..LN1591:
	.loc    1  132  prologue_end  is_stmt 1
        movl      $.2.43_2_kmpc_loc_struct_pack.12, %edi        #132.9 c5
..LN1592:
	.loc    1  131  is_stmt 1
        movq      %rbx, 48(%rsp)                                #131.91 c9
..LN1593:
        movq      %r15, 16(%rsp)                                #131.91 c9
..LN1594:
        movq      %r14, 24(%rsp)                                #131.91 c13
..LN1595:
        movq      %r13, 32(%rsp)                                #131.91 c13
..LN1596:
        movq      %r12, 40(%rsp)                                #131.91 c17
..LN1597:
        movq      %rsi, 8(%rsp)                                 #131.91 c17
..LN1598:
        movq      %rdx, 56(%rsp)                                #131.91 c21
..LN1599:
	.loc    1  132  is_stmt 1
        call      __kmpc_global_thread_num                      #132.9 c25
	.cfi_escape 0x10, 0x03, 0x0e, 0x38, 0x1c, 0x0d, 0xc0, 0xff, 0xff, 0xff, 0x1a, 0x0d, 0xb0, 0xff, 0xff, 0xff, 0x22
	.cfi_escape 0x10, 0x0c, 0x0e, 0x38, 0x1c, 0x0d, 0xc0, 0xff, 0xff, 0xff, 0x1a, 0x0d, 0xa8, 0xff, 0xff, 0xff, 0x22
	.cfi_escape 0x10, 0x0d, 0x0e, 0x38, 0x1c, 0x0d, 0xc0, 0xff, 0xff, 0xff, 0x1a, 0x0d, 0xa0, 0xff, 0xff, 0xff, 0x22
	.cfi_escape 0x10, 0x0e, 0x0e, 0x38, 0x1c, 0x0d, 0xc0, 0xff, 0xff, 0xff, 0x1a, 0x0d, 0x98, 0xff, 0xff, 0xff, 0x22
	.cfi_escape 0x10, 0x0f, 0x0e, 0x38, 0x1c, 0x0d, 0xc0, 0xff, 0xff, 0xff, 0x1a, 0x0d, 0x90, 0xff, 0xff, 0xff, 0x22
..LN1600:
                                # LOE eax
..B11.25:                       # Preds ..B11.1 Latency 9
..LN1601:
        movl      %eax, 64(%rsp)                                #132.9 c1
..LN1602:
        movl      $.2.43_2_kmpc_loc_struct_pack.23, %edi        #132.9 c1
..LN1603:
        xorl      %eax, %eax                                    #132.9 c5
..___tag_value__Z4simdPfll.529:
..LN1604:
        call      __kmpc_ok_to_fork                             #132.9
..___tag_value__Z4simdPfll.530:
..LN1605:
                                # LOE eax
..B11.2:                        # Preds ..B11.25 Latency 1
..LN1606:
        testl     %eax, %eax                                    #132.9 c1
..LN1607:
        je        ..B11.4       # Prob 50%                      #132.9 c1
..LN1608:
                                # LOE
..B11.3:                        # Preds ..B11.2 Latency 18
..LN1609:
        lea       8(%rsp), %rcx                                 #132.9 c1
..LN1610:
        movl      $L__Z4simdPfll_132__par_loop0_2.15, %edx      #132.9 c1
..LN1611:
        lea       48(%rcx), %r8                                 #132.9 c5
..LN1612:
        lea       (%rsp), %r9                                   #132.9 c5
..LN1613:
        movl      $.2.43_2_kmpc_loc_struct_pack.23, %edi        #132.9 c9
..LN1614:
        movl      $3, %esi                                      #132.9 c9
..LN1615:
        xorl      %eax, %eax                                    #132.9 c13
..___tag_value__Z4simdPfll.531:
..LN1616:
        call      __kmpc_fork_call                              #132.9
..___tag_value__Z4simdPfll.532:
..LN1617:
        jmp       ..B11.7       # Prob 100%                     #132.9 c17
..LN1618:
                                # LOE
..B11.4:                        # Preds ..B11.2 Latency 9
..LN1619:
        movl      64(%rsp), %esi                                #132.9 c1
..LN1620:
        movl      $.2.43_2_kmpc_loc_struct_pack.23, %edi        #132.9 c1
..LN1621:
        xorl      %eax, %eax                                    #132.9 c5
..___tag_value__Z4simdPfll.533:
..LN1622:
        call      __kmpc_serialized_parallel                    #132.9
..___tag_value__Z4simdPfll.534:
..LN1623:
                                # LOE
..B11.5:                        # Preds ..B11.4 Latency 13
..LN1624:
        lea       64(%rsp), %rdi                                #132.9 c1
..LN1625:
        movl      $___kmpv_zero_Z4simdPfll_0, %esi              #132.9 c1
..LN1626:
        lea       -56(%rdi), %rdx                               #132.9 c5
..LN1627:
        lea       (%rsp), %r8                                   #132.9 c5
..LN1628:
        lea       48(%rdx), %rcx                                #132.9 c9
..___tag_value__Z4simdPfll.535:
..LN1629:
        call      L__Z4simdPfll_132__par_loop0_2.15             #132.9
..___tag_value__Z4simdPfll.536:
..LN1630:
                                # LOE
..B11.6:                        # Preds ..B11.5 Latency 9
..LN1631:
        movl      64(%rsp), %esi                                #132.9 c1
..LN1632:
        movl      $.2.43_2_kmpc_loc_struct_pack.23, %edi        #132.9 c1
..LN1633:
        xorl      %eax, %eax                                    #132.9 c5
..___tag_value__Z4simdPfll.537:
..LN1634:
        call      __kmpc_end_serialized_parallel                #132.9
..___tag_value__Z4simdPfll.538:
..LN1635:
                                # LOE
..B11.7:                        # Preds ..B11.3 ..B11.6 Latency 13
..LN1636:
	.loc    1  152  is_stmt 1
        movq      16(%rsp), %r15                                #152.1 c1
	.cfi_restore 15
..LN1637:
        movq      24(%rsp), %r14                                #152.1 c1
	.cfi_restore 14
..LN1638:
        movq      32(%rsp), %r13                                #152.1 c5
	.cfi_restore 13
..LN1639:
        movq      40(%rsp), %r12                                #152.1 c5
	.cfi_restore 12
..LN1640:
        movq      48(%rsp), %rbx                                #152.1 c9
	.cfi_restore 3
..LN1641:
	.loc    1  152  epilogue_begin  is_stmt 1
        movq      %rbp, %rsp                                    #152.1 c13
..LN1642:
        popq      %rbp                                          #152.1
	.cfi_def_cfa 7, 8
	.cfi_restore 6
..LN1643:
        ret                                                     #152.1
	.cfi_def_cfa 6, 16
..LN1644:
                                # LOE
L__Z4simdPfll_132__par_loop0_2.15:
# parameter 1: %rdi
# parameter 2: %rsi
# parameter 3: %rdx
# parameter 4: %rcx
# parameter 5: %r8
..B11.8:                        # Preds ..B11.0 Latency 25
..LN1645:
	.loc    1  132  is_stmt 1
        pushq     %rbp                                          #132.9
	.cfi_def_cfa 7, 16
..LN1646:
        movq      %rsp, %rbp                                    #132.9
	.cfi_def_cfa 6, 16
	.cfi_offset 6, -16
..LN1647:
        andq      $-64, %rsp                                    #132.9
..LN1648:
        subq      $128, %rsp                                    #132.9 c1
..LN1649:
        movq      %r14, 24(%rsp)                                #132.9 c5
	.cfi_escape 0x10, 0x0e, 0x0e, 0x38, 0x1c, 0x0d, 0xc0, 0xff, 0xff, 0xff, 0x1a, 0x0d, 0x98, 0xff, 0xff, 0xff, 0x22
..LN1650:
        movq      (%r8), %r14                                   #132.9 c5
..LN1651:
        movq      (%rdx), %r8                                   #132.9 c9
..LN1652:
        movq      %rbx, 48(%rsp)                                #132.9 c9
..LN1653:
        movq      %r15, 16(%rsp)                                #132.9 c13
..LN1654:
	.loc    1  133  prologue_end  is_stmt 1
        testq     %r8, %r8                                      #133.49 c13
..LN1655:
	.loc    1  132  is_stmt 1
        movq      %r13, 32(%rsp)                                #132.9 c17
	.cfi_escape 0x10, 0x03, 0x0e, 0x38, 0x1c, 0x0d, 0xc0, 0xff, 0xff, 0xff, 0x1a, 0x0d, 0xb0, 0xff, 0xff, 0xff, 0x22
	.cfi_escape 0x10, 0x0d, 0x0e, 0x38, 0x1c, 0x0d, 0xc0, 0xff, 0xff, 0xff, 0x1a, 0x0d, 0xa0, 0xff, 0xff, 0xff, 0x22
	.cfi_escape 0x10, 0x0f, 0x0e, 0x38, 0x1c, 0x0d, 0xc0, 0xff, 0xff, 0xff, 0x1a, 0x0d, 0x90, 0xff, 0xff, 0xff, 0x22
..LN1656:
        movq      (%rcx), %rbx                                  #132.9 c17
..LN1657:
        movq      %r12, 40(%rsp)                                #132.9 c21
	.cfi_escape 0x10, 0x0c, 0x0e, 0x38, 0x1c, 0x0d, 0xc0, 0xff, 0xff, 0xff, 0x1a, 0x0d, 0xa8, 0xff, 0xff, 0xff, 0x22
..LN1658:
        movl      (%rdi), %r12d                                 #132.9 c21
..LN1659:
	.loc    1  133  is_stmt 1
        jle       ..B11.14      # Prob 10%                      #133.49 c25
..LN1660:
                                # LOE rbx r8 r14 r12d
..B11.9:                        # Preds ..B11.8 Latency 33
..LN1661:
	.loc    1  132  is_stmt 1
        movl      $128, 68(%rsp)                                #132.9 c1
..LN1662:
        xorl      %r13d, %r13d                                  #132.9 c5
..LN1663:
        decq      %r8                                           #132.9 c5
..LN1664:
        movl      %r13d, 56(%rsp)                               #132.9 c9
..LN1665:
        movl      $.2.43_2_kmpc_loc_struct_pack.23, %edi        #132.9 c9
..LN1666:
        movl      %r8d, 60(%rsp)                                #132.9 c13
..LN1667:
        movl      %r12d, %esi                                   #132.9 c13
..LN1668:
        movl      %r13d, 64(%rsp)                               #132.9 c17
..LN1669:
        addq      $-16, %rsp                                    #132.9 c17
..LN1670:
        movl      $35, %edx                                     #132.9 c21
..LN1671:
        xorl      %ecx, %ecx                                    #132.9 c21
..LN1672:
        movl      $128, %r9d                                    #132.9 c25
..LN1673:
        xorl      %eax, %eax                                    #132.9 c25
..LN1674:
        movl      $1, (%rsp)                                    #132.9 c29
..___tag_value__Z4simdPfll.558:
..LN1675:
        call      __kmpc_dispatch_init_4                        #132.9
..___tag_value__Z4simdPfll.559:
..LN1676:
                                # LOE rbx r14 r12d r13d
..B11.26:                       # Preds ..B11.9 Latency 1
..LN1677:
        addq      $16, %rsp                                     #132.9 c1
..LN1678:
                                # LOE rbx r14 r12d r13d
..B11.10:                       # Preds ..B11.26 Latency 17
..LN1679:
	.loc    1  140  is_stmt 1
        vmovaps   .L_2il0floatpacket.8(%rip), %zmm0             #140.14 c1
..LN1680:
	.loc    1  132  is_stmt 1
        lea       64(%rsp), %rdx                                #132.9 c5
..LN1681:
        movl      %r12d, (%rsp)                                 #132.9 c5
..LN1682:
        lea       -8(%rdx), %rcx                                #132.9 c9
..LN1683:
        lea       -4(%rdx), %r15                                #132.9 c9
..LN1684:
        movq      %rbx, -56(%rdx)                               #132.9 c13
..LN1685:
        movq      %rdx, %r12                                    #132.9 c13
..LN1686:
        movq      %rcx, %rbx                                    #132.9 c17
..LN1687:
                                # LOE rbx r12 r14 r15 r13d
..B11.11:                       # Preds ..B11.20 ..B11.10 Latency 17
..L560:         # optimization report
                # %s was not vectorized: inner loop was already vectorized
..LN1688:
        movl      $.2.43_2_kmpc_loc_struct_pack.23, %edi        #132.9 c1
..LN1689:
        movl      (%rsp), %esi                                  #132.9 c5
..LN1690:
        movq      %r12, %rdx                                    #132.9 c5
..LN1691:
        movq      %rbx, %rcx                                    #132.9 c9
..LN1692:
        movq      %r15, %r8                                     #132.9 c9
..LN1693:
        lea       68(%rsp), %r9                                 #132.9 c13
..LN1694:
        xorl      %eax, %eax                                    #132.9 c13
..___tag_value__Z4simdPfll.561:
..LN1695:
        call      __kmpc_dispatch_next_4                        #132.9
..___tag_value__Z4simdPfll.562:
..LN1696:
                                # LOE rbx r12 r14 r15 eax r13d
..B11.12:                       # Preds ..B11.11 Latency 9
..LN1697:
        movl      56(%rsp), %esi                                #132.9 c1
..LN1698:
        testl     %eax, %eax                                    #132.9 c1
..LN1699:
        movl      60(%rsp), %edi                                #132.9 c5
..LN1700:
        movslq    %esi, %rsi                                    #132.9 c5
..LN1701:
        movslq    %edi, %rdi                                    #132.9 c9
..LN1702:
        jne       ..B11.15      # Prob 50%                      #132.9 c9
..LN1703:
                                # LOE rbx rsi rdi r12 r14 r15 r13d
..B11.14:                       # Preds ..B11.12 ..B11.8 Latency 13
..LN1704:
        movq      16(%rsp), %r15                                #132.9 c1
	.cfi_restore 15
..LN1705:
        movq      24(%rsp), %r14                                #132.9 c1
	.cfi_restore 14
..LN1706:
        movq      32(%rsp), %r13                                #132.9 c5
	.cfi_restore 13
..LN1707:
        movq      40(%rsp), %r12                                #132.9 c5
	.cfi_restore 12
..LN1708:
        movq      48(%rsp), %rbx                                #132.9 c9
	.cfi_restore 3
..LN1709:
	.loc    1  132  epilogue_begin  is_stmt 1
        movq      %rbp, %rsp                                    #132.9 c13
..LN1710:
        popq      %rbp                                          #132.9
	.cfi_def_cfa 7, 8
	.cfi_restore 6
..LN1711:
        ret                                                     #132.9
	.cfi_def_cfa 6, 16
	.cfi_escape 0x10, 0x03, 0x0e, 0x38, 0x1c, 0x0d, 0xc0, 0xff, 0xff, 0xff, 0x1a, 0x0d, 0xb0, 0xff, 0xff, 0xff, 0x22
	.cfi_offset 6, -16
	.cfi_escape 0x10, 0x0c, 0x0e, 0x38, 0x1c, 0x0d, 0xc0, 0xff, 0xff, 0xff, 0x1a, 0x0d, 0xa8, 0xff, 0xff, 0xff, 0x22
	.cfi_escape 0x10, 0x0d, 0x0e, 0x38, 0x1c, 0x0d, 0xc0, 0xff, 0xff, 0xff, 0x1a, 0x0d, 0xa0, 0xff, 0xff, 0xff, 0x22
	.cfi_escape 0x10, 0x0e, 0x0e, 0x38, 0x1c, 0x0d, 0xc0, 0xff, 0xff, 0xff, 0x1a, 0x0d, 0x98, 0xff, 0xff, 0xff, 0x22
	.cfi_escape 0x10, 0x0f, 0x0e, 0x38, 0x1c, 0x0d, 0xc0, 0xff, 0xff, 0xff, 0x1a, 0x0d, 0x90, 0xff, 0xff, 0xff, 0x22
..LN1712:
                                # LOE
..B11.15:                       # Preds ..B11.12 Latency 33
..LN1713:
	.loc    1  134  is_stmt 1
        vmovaps   .L_2il0floatpacket.8(%rip), %zmm8             #134.29 c1
..LN1714:
	.loc    1  132  is_stmt 1
        movq      %rdi, %r9                                     #132.9 c5
..LN1715:
	.loc    1  133  is_stmt 1
        movl      %r13d, %eax                                   #133.9 c5
..LN1716:
	.loc    1  132  is_stmt 1
        subq      %rsi, %r9                                     #132.9 c9
..LN1717:
	.loc    1  134  is_stmt 1
        movq      8(%rsp), %rdx                                 #134.29 c9
..LN1718:
	.loc    1  132  is_stmt 1
        addq      $128, %r9                                     #132.9 c13
..LN1719:
        sarq      $6, %r9                                       #132.9 c17
..LN1720:
        shrq      $57, %r9                                      #132.9 c21
..LN1721:
        subq      %rsi, %r9                                     #132.9 c25
..LN1722:
        lea       128(%r9,%rdi), %r9                            #132.9 c29
..LN1723:
	.loc    1  139  is_stmt 1
        lea       (%r14,%rsi,4), %rdi                           #139.21 c29
..LN1724:
	.loc    1  132  is_stmt 1
        shrq      $7, %r9                                       #132.9 c33
..LN1725:
	.loc    1  134  is_stmt 1
        movl      %eax, %esi                                    #134.29 c33
..LN1726:
                                # LOE rdx rbx rdi r12 r14 r15 eax esi r9d r13d zmm8
..B11.16:                       # Preds ..B11.20 ..B11.15 Latency 5
..L578:         # optimization report
                # OPENMP LOOP
                # %s was not vectorized: inner loop was already vectorized
..LN1727:
        xorl      %r10d, %r10d                                  #134.9 c1
..LN1728:
        testq     %rdx, %rdx                                    #134.37 c5
..LN1729:
        jle       ..B11.20      # Prob 10%                      #134.37 c5
..LN1730:
                                # LOE rdx rbx rdi r10 r12 r14 r15 eax esi r9d r13d zmm8
..B11.17:                       # Preds ..B11.16 Latency 65
..LN1731:
	.loc    1  139  is_stmt 1
        movslq    %esi, %r11                                    #139.21 c1
..LN1732:
        vloadunpackld 448(%rdi,%r11,4), %zmm7                   #139.21 c5
..LN1733:
        vloadunpackld 384(%rdi,%r11,4), %zmm6                   #139.21 c9
..LN1734:
        vloadunpackld 320(%rdi,%r11,4), %zmm5                   #139.21 c13
..LN1735:
        vloadunpackld 256(%rdi,%r11,4), %zmm4                   #139.21 c17
..LN1736:
        vloadunpackld 192(%rdi,%r11,4), %zmm3                   #139.21 c21
..LN1737:
        vloadunpackld 128(%rdi,%r11,4), %zmm2                   #139.21 c25
..LN1738:
        vloadunpackld 64(%rdi,%r11,4), %zmm1                    #139.21 c29
..LN1739:
        vloadunpackld (%rdi,%r11,4), %zmm0                      #139.21 c33
..LN1740:
        vloadunpackhd 512(%rdi,%r11,4), %zmm7                   #139.21 c37
..LN1741:
        vloadunpackhd 448(%rdi,%r11,4), %zmm6                   #139.21 c41
..LN1742:
        vloadunpackhd 384(%rdi,%r11,4), %zmm5                   #139.21 c45
..LN1743:
        vloadunpackhd 320(%rdi,%r11,4), %zmm4                   #139.21 c49
..LN1744:
        vloadunpackhd 256(%rdi,%r11,4), %zmm3                   #139.21 c53
..LN1745:
        vloadunpackhd 192(%rdi,%r11,4), %zmm2                   #139.21 c57
..LN1746:
        vloadunpackhd 128(%rdi,%r11,4), %zmm1                   #139.21 c61
..LN1747:
        vloadunpackhd 64(%rdi,%r11,4), %zmm0                    #139.21 c65
..LN1748:
                                # LOE rdx rbx rdi r10 r11 r12 r14 r15 eax esi r9d r13d zmm0 zmm1 zmm2 zmm3 zmm4 zmm5 zmm6 zmm7 zmm8
..B11.18:                       # Preds ..B11.18 ..B11.17 Latency 257
..L580:         # optimization report
                # LOOP WAS COMPLETELY UNROLLED BY 8
                # LOOP WAS VECTORIZED
                # SIMD LOOP
                # VECTORIZATION HAS UNALIGNED MEMORY REFERENCES
                # VECTORIZATION SPEEDUP COEFFECIENT 13.539062
                # VECTOR TRIP COUNT IS KNOWN CONSTANT
                # VECTOR LENGTH 16
                # NORMALIZED VECTORIZATION OVERHEAD 0.031250
..L579:         # optimization report
                # %s was not vectorized: inner loop was already vectorized
..LN1749:
	.loc    1  140  is_stmt 1
        vfmsub213ps %zmm8, %zmm0, %zmm0                         #140.14 c5
..LN1750:
	.loc    1  134  is_stmt 1
        incl      %r10d                                         #134.9 c5
..LN1751:
	.loc    1  140  is_stmt 1
        vfmsub213ps %zmm8, %zmm1, %zmm1                         #140.14 c9
..LN1752:
	.loc    1  134  is_stmt 1
        cmpq      %rdx, %r10                                    #134.9 c9
..LN1753:
	.loc    1  140  is_stmt 1
        vfmsub213ps %zmm8, %zmm2, %zmm2                         #140.14 c13
..LN1754:
        vfmsub213ps %zmm8, %zmm3, %zmm3                         #140.14 c17
..LN1755:
        vfmsub213ps %zmm8, %zmm4, %zmm4                         #140.14 c21
..LN1756:
        vfmsub213ps %zmm8, %zmm5, %zmm5                         #140.14 c25
..LN1757:
        vfmsub213ps %zmm8, %zmm6, %zmm6                         #140.14 c29
..LN1758:
        vfmsub213ps %zmm8, %zmm7, %zmm7                         #140.14 c33
..LN1759:
	.loc    1  141  is_stmt 1
        vfmsub213ps %zmm8, %zmm0, %zmm0                         #141.28 c37
..LN1760:
        vfmsub213ps %zmm8, %zmm1, %zmm1                         #141.28 c41
..LN1761:
        vfmsub213ps %zmm8, %zmm2, %zmm2                         #141.28 c45
..LN1762:
        vfmsub213ps %zmm8, %zmm3, %zmm3                         #141.28 c49
..LN1763:
        vfmsub213ps %zmm8, %zmm4, %zmm4                         #141.28 c53
..LN1764:
        vfmsub213ps %zmm8, %zmm5, %zmm5                         #141.28 c57
..LN1765:
        vfmsub213ps %zmm8, %zmm6, %zmm6                         #141.28 c61
..LN1766:
        vfmsub213ps %zmm8, %zmm7, %zmm7                         #141.28 c65
..LN1767:
	.loc    1  142  is_stmt 1
        vfmsub213ps %zmm8, %zmm0, %zmm0                         #142.28 c69
..LN1768:
        vfmsub213ps %zmm8, %zmm1, %zmm1                         #142.28 c73
..LN1769:
        vfmsub213ps %zmm8, %zmm2, %zmm2                         #142.28 c77
..LN1770:
        vfmsub213ps %zmm8, %zmm3, %zmm3                         #142.28 c81
..LN1771:
        vfmsub213ps %zmm8, %zmm4, %zmm4                         #142.28 c85
..LN1772:
        vfmsub213ps %zmm8, %zmm5, %zmm5                         #142.28 c89
..LN1773:
        vfmsub213ps %zmm8, %zmm6, %zmm6                         #142.28 c93
..LN1774:
        vfmsub213ps %zmm8, %zmm7, %zmm7                         #142.28 c97
..LN1775:
	.loc    1  143  is_stmt 1
        vfmsub213ps %zmm8, %zmm0, %zmm0                         #143.28 c101
..LN1776:
        vfmsub213ps %zmm8, %zmm1, %zmm1                         #143.28 c105
..LN1777:
        vfmsub213ps %zmm8, %zmm2, %zmm2                         #143.28 c109
..LN1778:
        vfmsub213ps %zmm8, %zmm3, %zmm3                         #143.28 c113
..LN1779:
        vfmsub213ps %zmm8, %zmm4, %zmm4                         #143.28 c117
..LN1780:
        vfmsub213ps %zmm8, %zmm5, %zmm5                         #143.28 c121
..LN1781:
        vfmsub213ps %zmm8, %zmm6, %zmm6                         #143.28 c125
..LN1782:
        vfmsub213ps %zmm8, %zmm7, %zmm7                         #143.28 c129
..LN1783:
	.loc    1  144  is_stmt 1
        vfmsub213ps %zmm8, %zmm0, %zmm0                         #144.21 c133
..LN1784:
        vfmsub213ps %zmm8, %zmm1, %zmm1                         #144.21 c137
..LN1785:
        vfmsub213ps %zmm8, %zmm2, %zmm2                         #144.21 c141
..LN1786:
        vfmsub213ps %zmm8, %zmm3, %zmm3                         #144.21 c145
..LN1787:
        vfmsub213ps %zmm8, %zmm4, %zmm4                         #144.21 c149
..LN1788:
        vfmsub213ps %zmm8, %zmm5, %zmm5                         #144.21 c153
..LN1789:
        vfmsub213ps %zmm8, %zmm6, %zmm6                         #144.21 c157
..LN1790:
        vfmsub213ps %zmm8, %zmm7, %zmm7                         #144.21 c161
..LN1791:
	.loc    1  145  is_stmt 1
        vfmsub213ps %zmm8, %zmm0, %zmm0                         #145.28 c165
..LN1792:
        vfmsub213ps %zmm8, %zmm1, %zmm1                         #145.28 c169
..LN1793:
        vfmsub213ps %zmm8, %zmm2, %zmm2                         #145.28 c173
..LN1794:
        vfmsub213ps %zmm8, %zmm3, %zmm3                         #145.28 c177
..LN1795:
        vfmsub213ps %zmm8, %zmm4, %zmm4                         #145.28 c181
..LN1796:
        vfmsub213ps %zmm8, %zmm5, %zmm5                         #145.28 c185
..LN1797:
        vfmsub213ps %zmm8, %zmm6, %zmm6                         #145.28 c189
..LN1798:
        vfmsub213ps %zmm8, %zmm7, %zmm7                         #145.28 c193
..LN1799:
	.loc    1  146  is_stmt 1
        vfmsub213ps %zmm8, %zmm0, %zmm0                         #146.28 c197
..LN1800:
        vfmsub213ps %zmm8, %zmm1, %zmm1                         #146.28 c201
..LN1801:
        vfmsub213ps %zmm8, %zmm2, %zmm2                         #146.28 c205
..LN1802:
        vfmsub213ps %zmm8, %zmm3, %zmm3                         #146.28 c209
..LN1803:
        vfmsub213ps %zmm8, %zmm4, %zmm4                         #146.28 c213
..LN1804:
        vfmsub213ps %zmm8, %zmm5, %zmm5                         #146.28 c217
..LN1805:
        vfmsub213ps %zmm8, %zmm6, %zmm6                         #146.28 c221
..LN1806:
        vfmsub213ps %zmm8, %zmm7, %zmm7                         #146.28 c225
..LN1807:
	.loc    1  147  is_stmt 1
        vfmsub213ps %zmm8, %zmm0, %zmm0                         #147.28 c229
..LN1808:
        vfmsub213ps %zmm8, %zmm1, %zmm1                         #147.28 c233
..LN1809:
        vfmsub213ps %zmm8, %zmm2, %zmm2                         #147.28 c237
..LN1810:
        vfmsub213ps %zmm8, %zmm3, %zmm3                         #147.28 c241
..LN1811:
        vfmsub213ps %zmm8, %zmm4, %zmm4                         #147.28 c245
..LN1812:
        vfmsub213ps %zmm8, %zmm5, %zmm5                         #147.28 c249
..LN1813:
        vfmsub213ps %zmm8, %zmm6, %zmm6                         #147.28 c253
..LN1814:
        vfmsub213ps %zmm8, %zmm7, %zmm7                         #147.28 c257
..LN1815:
	.loc    1  134  is_stmt 1
        jb        ..B11.18      # Prob 82%                      #134.9 c257
..LN1816:
                                # LOE rdx rbx rdi r10 r11 r12 r14 r15 eax esi r9d r13d zmm0 zmm1 zmm2 zmm3 zmm4 zmm5 zmm6 zmm7 zmm8
..B11.19:                       # Preds ..B11.18 Latency 61
..LN1817:
	.loc    1  148  is_stmt 1
        vpackstoreld %zmm6, 384(%rdi,%r11,4)                    #148.17 c1
..LN1818:
        vpackstoreld %zmm7, 448(%rdi,%r11,4)                    #148.17 c5
..LN1819:
        vpackstoreld %zmm5, 320(%rdi,%r11,4)                    #148.17 c9
..LN1820:
        vpackstoreld %zmm4, 256(%rdi,%r11,4)                    #148.17 c13
..LN1821:
        vpackstoreld %zmm3, 192(%rdi,%r11,4)                    #148.17 c17
..LN1822:
        vpackstoreld %zmm2, 128(%rdi,%r11,4)                    #148.17 c21
..LN1823:
        vpackstoreld %zmm1, 64(%rdi,%r11,4)                     #148.17 c25
..LN1824:
        vpackstoreld %zmm0, (%rdi,%r11,4)                       #148.17 c29
..LN1825:
        vpackstorehd %zmm7, 512(%rdi,%r11,4)                    #148.17 c33
..LN1826:
        vpackstorehd %zmm6, 448(%rdi,%r11,4)                    #148.17 c37
..LN1827:
        vpackstorehd %zmm5, 384(%rdi,%r11,4)                    #148.17 c41
..LN1828:
        vpackstorehd %zmm4, 320(%rdi,%r11,4)                    #148.17 c45
..LN1829:
        vpackstorehd %zmm3, 256(%rdi,%r11,4)                    #148.17 c49
..LN1830:
        vpackstorehd %zmm2, 192(%rdi,%r11,4)                    #148.17 c53
..LN1831:
        vpackstorehd %zmm1, 128(%rdi,%r11,4)                    #148.17 c57
..LN1832:
        vpackstorehd %zmm0, 64(%rdi,%r11,4)                     #148.17 c61
..LN1833:
        movb      %al, %al                                      #148.17 c61
..LN1834:
                                # LOE rdx rbx rdi r12 r14 r15 eax esi r9d r13d zmm8
..B11.20:                       # Preds ..B11.16 ..B11.19 Latency 5
..LN1835:
	.loc    1  133  is_stmt 1
        incl      %eax                                          #133.9 c1
..LN1836:
        addl      $128, %esi                                    #133.9 c1
..LN1837:
        cmpl      %r9d, %eax                                    #133.9 c5
..LN1838:
        jb        ..B11.16      # Prob 82%                      #133.9 c5
..LN1839:
        jmp       ..B11.11      # Prob 100%                     #133.9 c5
        .align    16,0x90
	.cfi_endproc
..LN1840:
                                # LOE rdx rbx rdi r12 r14 r15 eax esi r9d r13d zmm8
..LN1841:
# mark_end;
	.type	_Z4simdPfll,@function
	.size	_Z4simdPfll,.-_Z4simdPfll
..LN_Z4simdPfll.1842:
.LN_Z4simdPfll:
	.data
	.align 4
.2.43_2_kmpc_loc_struct_pack.12:
	.long	0
	.long	2
	.long	0
	.long	0
	.quad	.2.43_2__kmpc_loc_pack.11
	.align 4
.2.43_2__kmpc_loc_pack.11:
	.byte	59
	.byte	117
	.byte	110
	.byte	107
	.byte	110
	.byte	111
	.byte	119
	.byte	110
	.byte	59
	.byte	115
	.byte	105
	.byte	109
	.byte	100
	.byte	59
	.byte	49
	.byte	51
	.byte	50
	.byte	59
	.byte	49
	.byte	51
	.byte	50
	.byte	59
	.byte	59
	.space 1, 0x00 	# pad
	.align 4
.2.43_2_kmpc_loc_struct_pack.23:
	.long	0
	.long	2
	.long	0
	.long	0
	.quad	.2.43_2__kmpc_loc_pack.22
	.align 4
.2.43_2__kmpc_loc_pack.22:
	.byte	59
	.byte	117
	.byte	110
	.byte	107
	.byte	110
	.byte	111
	.byte	119
	.byte	110
	.byte	59
	.byte	115
	.byte	105
	.byte	109
	.byte	100
	.byte	59
	.byte	49
	.byte	51
	.byte	50
	.byte	59
	.byte	49
	.byte	53
	.byte	49
	.byte	59
	.byte	59
	.data
# -- End  _Z4simdPfll, L__Z4simdPfll_132__par_loop0_2.15
	.text
.L_2__routine_start__ZN3mic4freeEPPf_11:
# -- Begin  _ZN3mic4freeEPPf, __offload_entry_helper_mic_h_42free_a59019d500e5cbaef69eb02445bab79dicc010766287475T8ldu0
	.text
# mark_begin;
# Threads 4
        .align    16,0x90
__offload_entry_helper_mic_h_42free_a59019d500e5cbaef69eb02445bab79dicc010766287475T8ldu0:
# parameter 1: %rdi
..B12.1:                        # Preds ..B12.0 Latency 33
	.cfi_startproc
	.cfi_personality 0x3,__gxx_personality_v0
..___tag_value__ZN3mic4freeEPPf.586:
..L587:
                                                        #42.9
..LN1843:
	.loc    2  42  is_stmt 1
        pushq     %rbp                                          #42.9
	.cfi_def_cfa_offset 16
..LN1844:
        movq      %rsp, %rbp                                    #42.9
	.cfi_def_cfa 6, 16
	.cfi_offset 6, -16
..LN1845:
        andq      $-64, %rsp                                    #42.9
..LN1846:
        pushq     %rbx                                          #42.9 c1
..LN1847:
        subq      $120, %rsp                                    #42.9 c1
..LN1848:
        vmovaps   .2.44_2__offload_var_desc1_p.27(%rip), %zmm0  #42.9 c5
..LN1849:
        lea       (%rsp), %rdx                                  #42.9 c9
..LN1850:
        lea       64(%rsp), %rcx                                #42.9 c9
..LN1851:
        vmovaps   %zmm0, (%rdx)                                 #42.9 c13
..LN1852:
        movq      .2.44_2__offload_var_desc2_p.32(%rip), %r8    #42.9 c13
..LN1853:
        movq      8+.2.44_2__offload_var_desc2_p.32(%rip), %r9  #42.9 c17
..LN1854:
        lea       80(%rsp), %r10                                #42.9 c17
..LN1855:
        movl      $1, %esi                                      #42.9 c21
..LN1856:
        xorl      %eax, %eax                                    #42.9 c21
	.cfi_escape 0x10, 0x03, 0x0e, 0x38, 0x1c, 0x0d, 0xc0, 0xff, 0xff, 0xff, 0x1a, 0x0d, 0xf8, 0xff, 0xff, 0xff, 0x22
..LN1857:
        movq      %rdi, %rbx                                    #42.9 c25
..LN1858:
        movq      %r8, (%rcx)                                   #42.9 c25
..LN1859:
        movq      %r9, 8(%rcx)                                  #42.9 c29
..LN1860:
        movq      %r10, 56(%rdx)                                #42.9 c29
..___tag_value__ZN3mic4freeEPPf.593:
..LN1861:
        call      __offload_target_enter                        #42.9
..___tag_value__ZN3mic4freeEPPf.594:
..LN1862:
                                # LOE rbx r12 r13 r14 r15
..B12.2:                        # Preds ..B12.1 Latency 9
..LN1863:
	.loc    2  44  prologue_end  is_stmt 1
        movq      80(%rsp), %rax                                #44.13 c1
..LN1864:
        movq      (%rax), %rdi                                  #44.13 c5
..LN1865:
        call      _mm_free                                      #44.13 c9
..LN1866:
                                # LOE rbx r12 r13 r14 r15
..B12.3:                        # Preds ..B12.2 Latency 5
..LN1867:
	.loc    2  42  is_stmt 1
        movq      %rbx, %rdi                                    #42.9 c1
..LN1868:
        xorl      %eax, %eax                                    #42.9 c1
..___tag_value__ZN3mic4freeEPPf.595:
..LN1869:
        call      __offload_target_leave                        #42.9
..___tag_value__ZN3mic4freeEPPf.596:
..LN1870:
                                # LOE r12 r13 r14 r15
..B12.4:                        # Preds ..B12.3 Latency 9
..LN1871:
	.loc    2  42  epilogue_begin  is_stmt 1
        addq      $120, %rsp                                    #42.9
	.cfi_restore 3
..LN1872:
        popq      %rbx                                          #42.9
..LN1873:
        movq      %rbp, %rsp                                    #42.9 c9
..LN1874:
        popq      %rbp                                          #42.9
	.cfi_def_cfa 7, 8
	.cfi_restore 6
..LN1875:
        ret                                                     #42.9
	.cfi_def_cfa 6, 16
..LN1876:
                                # LOE
	.type	__offload_entry_helper_mic_h_42free_a59019d500e5cbaef69eb02445bab79dicc010766287475T8ldu0,@function
	.size	__offload_entry_helper_mic_h_42free_a59019d500e5cbaef69eb02445bab79dicc010766287475T8ldu0,.-__offload_entry_helper_mic_h_42free_a59019d500e5cbaef69eb02445bab79dicc010766287475T8ldu0
	.globl _ZN3mic4freeEPPf
_ZN3mic4freeEPPf:
# parameter 1(mem): %rdi
..B12.5:                        # Preds ..B12.0 Latency 13
..LN1877:
	.loc    2  41  is_stmt 1
        pushq     %rbp                                          #41.5
	.cfi_def_cfa 7, 16
..LN1878:
        movq      %rsp, %rbp                                    #41.5
	.cfi_def_cfa 6, 16
	.cfi_offset 6, -16
..LN1879:
        andq      $-64, %rsp                                    #41.5
..LN1880:
        pushq     %rbx                                          #41.5 c1
..LN1881:
        subq      $120, %rsp                                    #41.5 c1
..LN1882:
	.loc    2  41  epilogue_begin  is_stmt 1
        addq      $120, %rsp                                    #41.5
	.cfi_escape 0x10, 0x03, 0x0e, 0x38, 0x1c, 0x0d, 0xc0, 0xff, 0xff, 0xff, 0x1a, 0x0d, 0xf8, 0xff, 0xff, 0xff, 0x22
	.cfi_restore 3
..LN1883:
        popq      %rbx                                          #41.5
..LN1884:
        movq      %rbp, %rsp                                    #41.5 c13
..LN1885:
        popq      %rbp                                          #41.5
	.cfi_def_cfa 7, 8
	.cfi_restore 6
..LN1886:
        ret                                                     #41.5
        .align    16,0x90
	.cfi_endproc
..LN1887:
                                # LOE
..LN1888:
# mark_end;
	.type	_ZN3mic4freeEPPf,@function
	.size	_ZN3mic4freeEPPf,.-_ZN3mic4freeEPPf
..LN_ZN3mic4freeEPPf.1889:
.LN_ZN3mic4freeEPPf:
	.data
	.space 33, 0x00 	# pad
	.align 64
.2.44_2__offload_var_desc1_p.27:
	.byte	34
	.byte	1
	.byte	1
	.byte	1
	.long	8
	.long	0
	.long	0
	.long	0x00000000,0x00000000
	.long	0x00000008,0x00000000
	.long	0x00000001,0x00000000
	.long	0x00000000,0x00000000
	.long	0x00000000,0x00000000
	.long	0x00000000,0x00000000
	.align 8
.2.44_2__offload_var_desc2_p.32:
	.quad	__sd_2inst_string.27
	.long	0x00000000,0x00000000
	.section .rodata, "a"
	.space 2, 0x00 	# pad
	.align 4
__sd_2inst_string.26:
	.byte	95
	.byte	95
	.byte	111
	.byte	102
	.byte	102
	.byte	108
	.byte	111
	.byte	97
	.byte	100
	.byte	95
	.byte	101
	.byte	110
	.byte	116
	.byte	114
	.byte	121
	.byte	95
	.byte	104
	.byte	101
	.byte	108
	.byte	112
	.byte	101
	.byte	114
	.byte	95
	.byte	109
	.byte	105
	.byte	99
	.byte	95
	.byte	104
	.byte	95
	.byte	52
	.byte	50
	.byte	102
	.byte	114
	.byte	101
	.byte	101
	.byte	95
	.byte	97
	.byte	53
	.byte	57
	.byte	48
	.byte	49
	.byte	57
	.byte	100
	.byte	53
	.byte	48
	.byte	48
	.byte	101
	.byte	53
	.byte	99
	.byte	98
	.byte	97
	.byte	101
	.byte	102
	.byte	54
	.byte	57
	.byte	101
	.byte	98
	.byte	48
	.byte	50
	.byte	52
	.byte	52
	.byte	53
	.byte	98
	.byte	97
	.byte	98
	.byte	55
	.byte	57
	.byte	100
	.byte	105
	.byte	99
	.byte	99
	.byte	48
	.byte	49
	.byte	48
	.byte	55
	.byte	54
	.byte	54
	.byte	50
	.byte	56
	.byte	55
	.byte	52
	.byte	55
	.byte	53
	.byte	84
	.byte	56
	.byte	108
	.byte	100
	.byte	117
	.byte	48
	.byte	0
	.space 2, 0x00 	# pad
	.align 4
__sd_2inst_string.27:
	.byte	109
	.byte	101
	.byte	109
	.byte	0
	.section .OffloadEntryTable., "waG",@progbits,__offload_entry_helper_mic_h_42free_a59019d500e5cbaef69eb02445bab79dicc010766287475T8ldu0_$entry,comdat
	.align 16
__offload_entry_helper_mic_h_42free_a59019d500e5cbaef69eb02445bab79dicc010766287475T8ldu0_$entry:
	.type	__offload_entry_helper_mic_h_42free_a59019d500e5cbaef69eb02445bab79dicc010766287475T8ldu0_$entry,@object
	.size	__offload_entry_helper_mic_h_42free_a59019d500e5cbaef69eb02445bab79dicc010766287475T8ldu0_$entry,16
	.quad	__sd_2inst_string.26
	.quad	__offload_entry_helper_mic_h_42free_a59019d500e5cbaef69eb02445bab79dicc010766287475T8ldu0
	.data
# -- End  _ZN3mic4freeEPPf, __offload_entry_helper_mic_h_42free_a59019d500e5cbaef69eb02445bab79dicc010766287475T8ldu0
	.text
.L_2__routine_start__Z8overheadPfll_12:
# -- Begin  _Z8overheadPfll, __offload_entry_computebound_calu_cpp_170overhead_42202a1b8622fec606fb9c5e894af9b8icc010766287475T8ldu0
	.text
# mark_begin;
# Threads 4
        .align    16,0x90
__offload_entry_computebound_calu_cpp_170overhead_42202a1b8622fec606fb9c5e894af9b8icc010766287475T8ldu0:
# parameter 1: %rdi
..B13.1:                        # Preds ..B13.0 Latency 53
	.cfi_startproc
	.cfi_personality 0x3,__gxx_personality_v0
..___tag_value__Z8overheadPfll.617:
..L618:
                                                        #170.5
..LN1890:
	.loc    1  170  is_stmt 1
        pushq     %rbp                                          #170.5
	.cfi_def_cfa_offset 16
..LN1891:
        movq      %rsp, %rbp                                    #170.5
	.cfi_def_cfa 6, 16
	.cfi_offset 6, -16
..LN1892:
        andq      $-64, %rsp                                    #170.5
..LN1893:
        pushq     %r15                                          #170.5 c1
..LN1894:
        subq      $184, %rsp                                    #170.5 c1
..LN1895:
        vmovaps   .2.45_2__offload_var_desc1_p.28(%rip), %zmm0  #170.5 c5
..LN1896:
        vmovaps   64+.2.45_2__offload_var_desc1_p.28(%rip), %zmm1 #170.5 c9
..LN1897:
        lea       (%rsp), %rdx                                  #170.5 c13
..LN1898:
        lea       128(%rsp), %rcx                               #170.5 c13
..LN1899:
        vmovaps   %zmm0, (%rdx)                                 #170.5 c17
..LN1900:
        lea       160(%rsp), %rax                               #170.5 c17
..LN1901:
        vmovaps   %zmm1, 64(%rdx)                               #170.5 c21
..LN1902:
        lea       168(%rsp), %rsi                               #170.5 c21
..LN1903:
        movq      .2.45_2__offload_var_desc2_p.33(%rip), %r8    #170.5 c25
..LN1904:
        movq      8+.2.45_2__offload_var_desc2_p.33(%rip), %r9  #170.5 c25
..LN1905:
        movq      16+.2.45_2__offload_var_desc2_p.33(%rip), %r10 #170.5 c29
..LN1906:
        movq      24+.2.45_2__offload_var_desc2_p.33(%rip), %r11 #170.5 c29
..LN1907:
        movq      %rax, 56(%rdx)                                #170.5 c33
	.cfi_escape 0x10, 0x0f, 0x0e, 0x38, 0x1c, 0x0d, 0xc0, 0xff, 0xff, 0xff, 0x1a, 0x0d, 0xf8, 0xff, 0xff, 0xff, 0x22
..LN1908:
        movq      %rdi, %r15                                    #170.5 c33
..LN1909:
        movq      %rsi, -40(%rax)                               #170.5 c37
..LN1910:
        movl      $2, %esi                                      #170.5 c37
..LN1911:
        xorl      %eax, %eax                                    #170.5 c41
..LN1912:
        movq      %r8, (%rcx)                                   #170.5 c41
..LN1913:
        movq      %r9, 8(%rcx)                                  #170.5 c45
..LN1914:
        movq      %r10, 16(%rcx)                                #170.5 c45
..LN1915:
        movq      %r11, 24(%rcx)                                #170.5 c49
..___tag_value__Z8overheadPfll.624:
..LN1916:
        call      __offload_target_enter                        #170.5
..___tag_value__Z8overheadPfll.625:
..LN1917:
                                # LOE rbx r12 r13 r14 r15
..B13.2:                        # Preds ..B13.1 Latency 5
..LN1918:
	.loc    1  170  prologue_end  is_stmt 1
        movq      %r15, %rdi                                    #170.5 c1
..LN1919:
        xorl      %eax, %eax                                    #170.5 c1
..___tag_value__Z8overheadPfll.626:
..LN1920:
        call      __offload_target_leave                        #170.5
..___tag_value__Z8overheadPfll.627:
..LN1921:
                                # LOE rbx r12 r13 r14
..B13.3:                        # Preds ..B13.2 Latency 9
..LN1922:
	.loc    1  170  epilogue_begin  is_stmt 1
        addq      $184, %rsp                                    #170.5
	.cfi_restore 15
..LN1923:
        popq      %r15                                          #170.5
..LN1924:
        movq      %rbp, %rsp                                    #170.5 c9
..LN1925:
        popq      %rbp                                          #170.5
	.cfi_def_cfa 7, 8
	.cfi_restore 6
..LN1926:
        ret                                                     #170.5
	.cfi_def_cfa 6, 16
..LN1927:
                                # LOE
	.type	__offload_entry_computebound_calu_cpp_170overhead_42202a1b8622fec606fb9c5e894af9b8icc010766287475T8ldu0,@function
	.size	__offload_entry_computebound_calu_cpp_170overhead_42202a1b8622fec606fb9c5e894af9b8icc010766287475T8ldu0,.-__offload_entry_computebound_calu_cpp_170overhead_42202a1b8622fec606fb9c5e894af9b8icc010766287475T8ldu0
	.globl _Z8overheadPfll
_Z8overheadPfll:
# parameter 1(A): %rdi
# parameter 2(N): %rsi
# parameter 3(M): %rdx
..B13.4:                        # Preds ..B13.0 Latency 13
..LN1928:
	.loc    1  167  is_stmt 1
        pushq     %rbp                                          #167.66
	.cfi_def_cfa 7, 16
..LN1929:
        movq      %rsp, %rbp                                    #167.66
	.cfi_def_cfa 6, 16
	.cfi_offset 6, -16
..LN1930:
        andq      $-64, %rsp                                    #167.66
..LN1931:
        pushq     %r15                                          #167.66 c1
..LN1932:
        subq      $184, %rsp                                    #167.66 c1
..LN1933:
	.loc    1  167  epilogue_begin  is_stmt 1
        addq      $184, %rsp                                    #167.66
	.cfi_escape 0x10, 0x0f, 0x0e, 0x38, 0x1c, 0x0d, 0xc0, 0xff, 0xff, 0xff, 0x1a, 0x0d, 0xf8, 0xff, 0xff, 0xff, 0x22
	.cfi_restore 15
..LN1934:
        popq      %r15                                          #167.66
..LN1935:
        movq      %rbp, %rsp                                    #167.66 c13
..LN1936:
        popq      %rbp                                          #167.66
	.cfi_def_cfa 7, 8
	.cfi_restore 6
..LN1937:
        ret                                                     #167.66
        .align    16,0x90
	.cfi_endproc
..LN1938:
                                # LOE
..LN1939:
# mark_end;
	.type	_Z8overheadPfll,@function
	.size	_Z8overheadPfll,.-_Z8overheadPfll
..LN_Z8overheadPfll.1940:
.LN_Z8overheadPfll:
	.data
	.space 48, 0x00 	# pad
	.align 64
.2.45_2__offload_var_desc1_p.28:
	.byte	34
	.byte	1
	.byte	1
	.byte	1
	.long	8
	.long	0
	.long	0
	.long	0x00000000,0x00000000
	.long	0x00000008,0x00000000
	.long	0x00000001,0x00000000
	.long	0x00000000,0x00000000
	.long	0x00000000,0x00000000
	.long	0x00000000,0x00000000
	.byte	17
	.byte	3
	.byte	1
	.byte	1
	.long	8
	.long	0
	.long	0
	.long	0x00000000,0x00000000
	.long	0x00000008,0x00000000
	.long	0x00000001,0x00000000
	.long	0x00000000,0x00000000
	.long	0x00000000,0x00000000
	.long	0x00000000,0x00000000
	.align 8
.2.45_2__offload_var_desc2_p.33:
	.quad	__sd_2inst_string.29
	.long	0x00000000,0x00000000
	.quad	__sd_2inst_string.30
	.long	0x00000000,0x00000000
	.section .rodata, "a"
	.align 4
__sd_2inst_string.28:
	.byte	95
	.byte	95
	.byte	111
	.byte	102
	.byte	102
	.byte	108
	.byte	111
	.byte	97
	.byte	100
	.byte	95
	.byte	101
	.byte	110
	.byte	116
	.byte	114
	.byte	121
	.byte	95
	.byte	99
	.byte	111
	.byte	109
	.byte	112
	.byte	117
	.byte	116
	.byte	101
	.byte	98
	.byte	111
	.byte	117
	.byte	110
	.byte	100
	.byte	95
	.byte	99
	.byte	97
	.byte	108
	.byte	117
	.byte	95
	.byte	99
	.byte	112
	.byte	112
	.byte	95
	.byte	49
	.byte	55
	.byte	48
	.byte	111
	.byte	118
	.byte	101
	.byte	114
	.byte	104
	.byte	101
	.byte	97
	.byte	100
	.byte	95
	.byte	52
	.byte	50
	.byte	50
	.byte	48
	.byte	50
	.byte	97
	.byte	49
	.byte	98
	.byte	56
	.byte	54
	.byte	50
	.byte	50
	.byte	102
	.byte	101
	.byte	99
	.byte	54
	.byte	48
	.byte	54
	.byte	102
	.byte	98
	.byte	57
	.byte	99
	.byte	53
	.byte	101
	.byte	56
	.byte	57
	.byte	52
	.byte	97
	.byte	102
	.byte	57
	.byte	98
	.byte	56
	.byte	105
	.byte	99
	.byte	99
	.byte	48
	.byte	49
	.byte	48
	.byte	55
	.byte	54
	.byte	54
	.byte	50
	.byte	56
	.byte	55
	.byte	52
	.byte	55
	.byte	53
	.byte	84
	.byte	56
	.byte	108
	.byte	100
	.byte	117
	.byte	48
	.byte	0
	.align 4
__sd_2inst_string.29:
	.byte	112
	.byte	65
	.byte	95
	.byte	109
	.byte	105
	.byte	99
	.byte	0
	.space 1, 0x00 	# pad
	.align 4
__sd_2inst_string.30:
	.byte	78
	.byte	0
	.section .OffloadEntryTable., "waG",@progbits,__offload_entry_computebound_calu_cpp_170overhead_42202a1b8622fec606fb9c5e894af9b8icc010766287475T8ldu0_$entry,comdat
	.align 16
__offload_entry_computebound_calu_cpp_170overhead_42202a1b8622fec606fb9c5e894af9b8icc010766287475T8ldu0_$entry:
	.type	__offload_entry_computebound_calu_cpp_170overhead_42202a1b8622fec606fb9c5e894af9b8icc010766287475T8ldu0_$entry,@object
	.size	__offload_entry_computebound_calu_cpp_170overhead_42202a1b8622fec606fb9c5e894af9b8icc010766287475T8ldu0_$entry,16
	.quad	__sd_2inst_string.28
	.quad	__offload_entry_computebound_calu_cpp_170overhead_42202a1b8622fec606fb9c5e894af9b8icc010766287475T8ldu0
	.data
# -- End  _Z8overheadPfll, __offload_entry_computebound_calu_cpp_170overhead_42202a1b8622fec606fb9c5e894af9b8icc010766287475T8ldu0
	.text
.L_2__routine_start__Z5debugPfll_13:
# -- Begin  _Z5debugPfll, __offload_entry_computebound_calu_cpp_293debug_1e2ebb0832fd33005f885c8e67c75d62icc010766287475T8ldu0
	.text
# mark_begin;
# Threads 4
        .align    16,0x90
__offload_entry_computebound_calu_cpp_293debug_1e2ebb0832fd33005f885c8e67c75d62icc010766287475T8ldu0:
# parameter 1: %rdi
..B14.1:                        # Preds ..B14.0 Latency 57
	.cfi_startproc
	.cfi_personality 0x3,__gxx_personality_v0
..___tag_value__Z5debugPfll.648:
..L649:
                                                        #293.5
..LN1941:
	.loc    1  293  is_stmt 1
        pushq     %rbp                                          #293.5
	.cfi_def_cfa_offset 16
..LN1942:
        movq      %rsp, %rbp                                    #293.5
	.cfi_def_cfa 6, 16
	.cfi_offset 6, -16
..LN1943:
        andq      $-64, %rsp                                    #293.5
..LN1944:
        pushq     %r15                                          #293.5 c1
..LN1945:
        pushq     %rbx                                          #293.5 c5
..LN1946:
        subq      $240, %rsp                                    #293.5 c5
..LN1947:
        vmovaps   .2.46_2__offload_var_desc1_p.28(%rip), %zmm0  #293.5 c9
..LN1948:
        vmovaps   64+.2.46_2__offload_var_desc1_p.28(%rip), %zmm1 #293.5 c13
..LN1949:
        lea       64(%rsp), %rdx                                #293.5 c17
..LN1950:
        lea       8(%rsp), %rcx                                 #293.5 c17
..LN1951:
        vmovaps   %zmm0, (%rdx)                                 #293.5 c21
..LN1952:
        movq      .2.46_2__offload_var_desc2_p.33(%rip), %r8    #293.5 c21
..LN1953:
        vmovaps   %zmm1, 64(%rdx)                               #293.5 c25
..LN1954:
        lea       40(%rsp), %rsi                                #293.5 c25
..LN1955:
        movq      %r8, (%rcx)                                   #293.5 c29
..LN1956:
        lea       48(%rsp), %r8                                 #293.5 c29
..LN1957:
        movq      8+.2.46_2__offload_var_desc2_p.33(%rip), %r9  #293.5 c33
..LN1958:
        movq      16+.2.46_2__offload_var_desc2_p.33(%rip), %r10 #293.5 c33
..LN1959:
        movq      24+.2.46_2__offload_var_desc2_p.33(%rip), %r11 #293.5 c37
..LN1960:
        movq      %rsi, 56(%rdx)                                #293.5 c37
..LN1961:
        movl      $2, %esi                                      #293.5 c41
..LN1962:
        xorl      %eax, %eax                                    #293.5 c41
	.cfi_escape 0x10, 0x03, 0x0e, 0x38, 0x1c, 0x0d, 0xc0, 0xff, 0xff, 0xff, 0x1a, 0x0d, 0xf0, 0xff, 0xff, 0xff, 0x22
	.cfi_escape 0x10, 0x0f, 0x0e, 0x38, 0x1c, 0x0d, 0xc0, 0xff, 0xff, 0xff, 0x1a, 0x0d, 0xf8, 0xff, 0xff, 0xff, 0x22
..LN1963:
        movq      %rdi, %r15                                    #293.5 c45
..LN1964:
        movq      %r9, 8(%rcx)                                  #293.5 c45
..LN1965:
        movq      %r10, 16(%rcx)                                #293.5 c49
..LN1966:
        movq      %r11, 24(%rcx)                                #293.5 c49
..LN1967:
        movq      %r8, 120(%rdx)                                #293.5 c53
..___tag_value__Z5debugPfll.656:
..LN1968:
        call      __offload_target_enter                        #293.5
..___tag_value__Z5debugPfll.657:
..LN1969:
                                # LOE r12 r13 r14 r15
..B14.2:                        # Preds ..B14.1 Latency 9
..LN1970:
	.loc    1  297  prologue_end  is_stmt 1
        vpxorq    %zmm0, %zmm0, %zmm0                           #297.16 c1
..LN1971:
	.loc    1  295  is_stmt 1
        movq      40(%rsp), %rax                                #295.41 c1
..LN1972:
	.loc    1  293  is_stmt 1
        movq      48(%rsp), %rbx                                #293.5 c5
..LN1973:
	.loc    1  295  is_stmt 1
        movq      (%rax), %rdi                                  #295.41 c5
..LN1974:
	.loc    1  298  is_stmt 1
        testq     %rbx, %rbx                                    #298.26 c9
..LN1975:
        jle       ..B14.18      # Prob 50%                      #298.26 c9
..LN1976:
                                # LOE rbx rdi r12 r13 r14 r15 zmm0
..B14.3:                        # Preds ..B14.2 Latency 9
..LN1977:
	.loc    1  297  is_stmt 1
        vpxorq    %zmm5, %zmm5, %zmm5                           #297.16 c1
..LN1978:
	.loc    1  298  is_stmt 1
        movq      %rdi, %rdx                                    #298.5 c1
..LN1979:
	.loc    1  297  is_stmt 1
        vmovaps   %zmm5, %zmm4                                  #297.16 c5
..LN1980:
	.loc    1  298  is_stmt 1
        andq      $63, %rdx                                     #298.5 c5
..LN1981:
        je        ..B14.5       # Prob 50%                      #298.5 c9
..LN1982:
                                # LOE rdx rbx rdi r12 r13 r14 r15 zmm4 zmm5
..B14.4:                        # Preds ..B14.3 Latency 17
..LN1983:
        negq      %rdx                                          #298.5 c1
..LN1984:
        addq      $64, %rdx                                     #298.5 c5
..LN1985:
        shrq      $2, %rdx                                      #298.5 c9
..LN1986:
        cmpq      %rdx, %rbx                                    #298.5 c13
..LN1987:
        jge       ..L658        # Prob 50%                      #298.5 c17
..LN1988:
        movq      %rbx, %rdx                                    #298.5
..L658:                                                         #
..LN1989:
                                # LOE rdx rbx rdi r12 r13 r14 r15 zmm4 zmm5
..B14.5:                        # Preds ..B14.4 ..B14.3 Latency 21
..LN1990:
        movq      %rbx, %r8                                     #298.5 c1
..LN1991:
        subq      %rdx, %r8                                     #298.5 c5
..LN1992:
        andq      $63, %r8                                      #298.5 c9
..LN1993:
        negq      %r8                                           #298.5 c13
..LN1994:
        addq      %rbx, %r8                                     #298.5 c17
..LN1995:
        cmpq      $1, %rdx                                      #298.5 c21
..LN1996:
        jb        ..B14.9       # Prob 50%                      #298.5 c21
..LN1997:
                                # LOE rdx rbx rdi r8 r12 r13 r14 r15 zmm4 zmm5
..B14.6:                        # Preds ..B14.5 Latency 25
..LN1998:
        vpbroadcastq .L_2il0floatpacket.19(%rip), %zmm3         #298.5 c1
..LN1999:
        vmovdqa32 .L_2il0floatpacket.12(%rip), %zmm2            #298.5 c5
..LN2000:
	.loc    1  299  is_stmt 1
        vpxord    %zmm0, %zmm0, %zmm0                           #299.16 c9
..LN2001:
        movl      $21845, %esi                                  #299.9 c9
..LN2002:
	.loc    1  298  is_stmt 1
        movq      %rdx, (%rsp)                                  #298.5 c13
..LN2003:
	.loc    1  299  is_stmt 1
        kmov      %esi, %k2                                     #299.9 c13
..LN2004:
	.loc    1  298  is_stmt 1
        vpbroadcastq (%rsp), %zmm1                              #298.5 c17
..LN2005:
	.loc    1  299  is_stmt 1
        movl      $43690, %esi                                  #299.9 c17
..LN2006:
	.loc    1  298  is_stmt 1
        xorl      %ecx, %ecx                                    #298.5 c21
..LN2007:
	.loc    1  299  is_stmt 1
        xorl      %eax, %eax                                    #299.9 c21
..LN2008:
        kmov      %esi, %k1                                     #299.9 c25
..LN2009:
                                # LOE rax rdx rcx rbx rdi r8 r12 r13 r14 r15 zmm0 zmm1 zmm2 zmm3 zmm4 zmm5 k1 k2
..B14.7:                        # Preds ..B14.7 ..B14.6 Latency 81
..L659:         # optimization report
                # LOOP WAS VECTORIZED
                # PEELED LOOP FOR VECTORIZATION
                # MASKED VECTORIZATION
                # VECTORIZATION HAS UNALIGNED MEMORY REFERENCES
                # VECTORIZATION SPEEDUP COEFFECIENT 1.621094
                # VECTOR TRIP COUNT IS ESTIMATED CONSTANT
                # VECTOR LENGTH 8
                # NORMALIZED VECTORIZATION OVERHEAD 2.000000
..LN2010:
	.loc    1  298  is_stmt 1
        addq      $8, %rcx                                      #298.5 c1
..LN2011:
        vpcmpud   $2, %zmm1, %zmm2, %k4                         #298.5 c5
..LN2012:
        addq      $32, %rax                                     #298.5 c5
..LN2013:
        vpcmpud   $0, %zmm1, %zmm2, %k3                         #298.5 c9
..LN2014:
        vpcmpltd  %zmm1, %zmm2, %k0                             #298.5 c13
..LN2015:
        kmov      %k4, %r10d                                    #298.5 c13
..LN2016:
        vmovaps   %zmm0, %zmm6                                  #298.5 c17
..LN2017:
        kmov      %k3, %esi                                     #298.5 c17
..LN2018:
	.loc    1  299  is_stmt 1
        vmovaps   %zmm0, %zmm7                                  #299.16 c21
..LN2019:
	.loc    1  298  is_stmt 1
        addl      %r10d, %r10d                                  #298.5 c21
..LN2020:
        vpaddsetcd %zmm3, %k3, %zmm2{%k2}                       #298.5 c25
..LN2021:
        kmov      %k0, %r9d                                     #298.5 c25
..LN2022:
        andl      %esi, %r10d                                   #298.5 c29
..LN2023:
        orl       %r9d, %r10d                                   #298.5 c33
..LN2024:
        kmov      %k3, %esi                                     #298.5 c33
..LN2025:
        andl      $-21846, %r10d                                #298.5 c37
..LN2026:
        addl      %esi, %esi                                    #298.5 c37
..LN2027:
        kmov      %r10d, %k5                                    #298.5 c41
..LN2028:
        kmov      %esi, %k4                                     #298.5 c41
..LN2029:
        vbroadcastss .L_2il0floatpacket.3(%rip), %zmm6{%k5}     #298.5 c45
..LN2030:
        vcmpneqpd %zmm6, %zmm0, %k7                             #298.5 c49
..LN2031:
        cmpq      %rdx, %rcx                                    #298.5 c49
..LN2032:
        vpadcd    %zmm3, %k4, %zmm2{%k1}                        #298.5 c53
..LN2033:
        movb      %al, %al                                      #298.5 c53
..LN2034:
        kmov      %k7, %r11d                                    #298.5 c57
..LN2035:
	.loc    1  299  is_stmt 1
        movzbl    %r11b, %r11d                                  #299.16 c61
..LN2036:
        kmov      %r11d, %k6                                    #299.16 c65
..LN2037:
