	.section .text
.LNDBG_TX:
# mark_description "Intel(R) C Intel(R) 64 Compiler for applications running on Intel(R) 64, Version 16.0.0.109 Build 20150815";
# mark_description "-I.. -I../pngwriter/include -qoffload -S -g -O3 -opt-gather-scatter-unroll=8 -fopenmp -fimf-domain-exclusion";
# mark_description "=8 -mkl -mavx -qopt-report=5 -qopt-report-phase=vec -qopt-report-file=stdout -opt-report-routine=simd";
	.file "mandelbrot.cpp"
	.text
..TXTST0:
.L_2__routine_start_main_0:
# -- Begin  main
	.text
# mark_begin;
       .align    16,0x90
	.globl main
# --- main(int, char **)
main:
# parameter 1(argc): %edi
# parameter 2(argv): %rsi
..B1.1:                         # Preds ..B1.0
	.cfi_startproc
	.cfi_personality 0x3,__gxx_personality_v0
..___tag_value_main.2:
..L3:
                                                          #307.1
..LN0:
	.file   1 "mandelbrot.cpp"
	.loc    1  307  is_stmt 1
        pushq     %rbp                                          #307.1
	.cfi_def_cfa_offset 16
..LN1:
        movq      %rsp, %rbp                                    #307.1
	.cfi_def_cfa 6, 16
	.cfi_offset 6, -16
..LN2:
        andq      $-128, %rsp                                   #307.1
..LN3:
        pushq     %r12                                          #307.1
..LN4:
        pushq     %r13                                          #307.1
..LN5:
        pushq     %r14                                          #307.1
..LN6:
        pushq     %r15                                          #307.1
..LN7:
        pushq     %rbx                                          #307.1
..LN8:
        subq      $472, %rsp                                    #307.1
	.cfi_escape 0x10, 0x03, 0x0e, 0x38, 0x1c, 0x0d, 0x80, 0xff, 0xff, 0xff, 0x1a, 0x0d, 0xd8, 0xff, 0xff, 0xff, 0x22
	.cfi_escape 0x10, 0x0c, 0x0e, 0x38, 0x1c, 0x0d, 0x80, 0xff, 0xff, 0xff, 0x1a, 0x0d, 0xf8, 0xff, 0xff, 0xff, 0x22
	.cfi_escape 0x10, 0x0d, 0x0e, 0x38, 0x1c, 0x0d, 0x80, 0xff, 0xff, 0xff, 0x1a, 0x0d, 0xf0, 0xff, 0xff, 0xff, 0x22
	.cfi_escape 0x10, 0x0e, 0x0e, 0x38, 0x1c, 0x0d, 0x80, 0xff, 0xff, 0xff, 0x1a, 0x0d, 0xe8, 0xff, 0xff, 0xff, 0x22
	.cfi_escape 0x10, 0x0f, 0x0e, 0x38, 0x1c, 0x0d, 0x80, 0xff, 0xff, 0xff, 0x1a, 0x0d, 0xe0, 0xff, 0xff, 0xff, 0x22
..LN9:
        movq      %rsi, %r14                                    #307.1
..LN10:
        movl      %edi, %r13d                                   #307.1
..LN11:
        xorl      %esi, %esi                                    #307.1
..LN12:
        movl      $3, %edi                                      #307.1
..LN13:
        call      __intel_new_feature_proc_init                 #307.1
..LN14:
                                # LOE r14 r13d
..B1.221:                       # Preds ..B1.1
..LN15:
        vstmxcsr  (%rsp)                                        #307.1
..LN16:
        movl      $.2.41_2_kmpc_loc_struct_pack.145, %edi       #307.1
..LN17:
        xorl      %esi, %esi                                    #307.1
..LN18:
        orl       $32832, (%rsp)                                #307.1
..LN19:
        xorl      %eax, %eax                                    #307.1
..LN20:
        vldmxcsr  (%rsp)                                        #307.1
..___tag_value_main.13:
..LN21:
        call      __kmpc_begin                                  #307.1
..___tag_value_main.14:
..LN22:
                                # LOE r14 r13d
..B1.2:                         # Preds ..B1.221
..LN23:
	.file   2 "../cmdline.h"
	.loc    2  79  prologue_end  is_stmt 1
        movl      $il0_peep_printf_format_0, %edi               #79.5
..LN24:
        call      puts                                          #79.5
..LN25:
                                # LOE r14 r13d
..B1.3:                         # Preds ..B1.2
..LN26:
	.loc    2  80  is_stmt 1
        movl      $1024, %edx                                   #80.2
..LN27:
        movl      $.L_2__STRING.1, %edi                         #80.2
..LN28:
        movq      %rdx, %rcx                                    #80.2
..LN29:
        xorl      %eax, %eax                                    #80.2
..LN30:
        movq      (%r14), %rsi                                  #80.2
..___tag_value_main.15:
..LN31:
#       printf(const char *, ...)
        call      printf                                        #80.2
..___tag_value_main.16:
..LN32:
                                # LOE r14 r13d
..B1.4:                         # Preds ..B1.3
..LN33:
	.loc    2  81  is_stmt 1
        movl      $il0_peep_printf_format_1, %edi               #81.5
..LN34:
        call      puts                                          #81.5
..LN35:
                                # LOE r14 r13d
..B1.5:                         # Preds ..B1.4
..LN36:
	.loc    2  84  is_stmt 1
        cmpl      $1, %r13d                                     #84.15
..LN37:
        jle       ..B1.12       # Prob 50%                      #84.15
..LN38:
                                # LOE r14 r13d
..B1.6:                         # Preds ..B1.5
..LN39:
	.file   3 "/usr/include/stdlib.h"
	.loc    3  291  is_stmt 1
        movq      8(%r14), %rcx                                 #291.10
..LN40:
        call      __intel_sse4_atol                             #291.10
..LN41:
                                # LOE rax r14 r13d
..B1.222:                       # Preds ..B1.6
..LN42:
        movq      %rax, %r12                                    #291.10
..LN43:
                                # LOE r12 r14 r13d
..B1.7:                         # Preds ..B1.222
..LN44:
	.loc    2  85  is_stmt 1
        cmpl      $2, %r13d                                     #85.15
..LN45:
        jle       ..B1.13       # Prob 50%                      #85.15
..LN46:
                                # LOE r12 r14 r13d
..B1.8:                         # Preds ..B1.7
..LN47:
	.loc    3  291  is_stmt 1
        movq      16(%r14), %rcx                                #291.10
..LN48:
        call      __intel_sse4_atol                             #291.10
..LN49:
                                # LOE rax r12 r14 r13d
..B1.223:                       # Preds ..B1.8
..LN50:
        movq      %rax, %rbx                                    #291.10
..LN51:
                                # LOE rbx r12 r14 r13d
..B1.9:                         # Preds ..B1.223
..LN52:
	.loc    2  86  is_stmt 1
        cmpl      $3, %r13d                                     #86.21
..LN53:
        jle       ..B1.14       # Prob 22%                      #86.21
..LN54:
                                # LOE rbx r12 r14
..B1.10:                        # Preds ..B1.9
..LN55:
	.loc    3  286  is_stmt 1
        movq      24(%r14), %rcx                                #286.16
..LN56:
        call      __intel_sse4_atol                             #286.16
..LN57:
                                # LOE rax rbx r12
..B1.11:                        # Preds ..B1.10
..LN58:
        movl      %eax, %r13d                                   #286.16
..LN59:
        jmp       ..B1.16       # Prob 100%                     #286.16
..LN60:
                                # LOE rbx r12 r13d
..B1.12:                        # Preds ..B1.5
..LN61:
	.loc    2  84  is_stmt 1
        movl      $1024, %r12d                                  #84.35
..LN62:
                                # LOE r12
..B1.13:                        # Preds ..B1.7 ..B1.12
..LN63:
	.loc    2  85  is_stmt 1
        movl      $1024, %ebx                                   #85.35
..LN64:
                                # LOE rbx r12
..B1.14:                        # Preds ..B1.13 ..B1.9
..LN65:
	.loc    2  86  is_stmt 1
#       omp_get_max_threads()
        call      omp_get_max_threads                           #86.41
..LN66:
                                # LOE rbx r12 eax
..B1.225:                       # Preds ..B1.14
..LN67:
        movl      %eax, %r13d                                   #86.41
..LN68:
                                # LOE rbx r12 r13d
..B1.16:                        # Preds ..B1.225 ..B1.11
..LN69:
	.loc    2  87  is_stmt 1
        movl      %r13d, %edi                                   #87.2
..___tag_value_main.17:
..LN70:
#       omp_set_num_threads(int)
        call      omp_set_num_threads                           #87.2
..___tag_value_main.18:
..LN71:
                                # LOE rbx r12 r13d
..B1.17:                        # Preds ..B1.16
..LN72:
	.loc    2  90  is_stmt 1
        movl      $.L_2__STRING.3, %edi                         #90.5
..LN73:
        movq      %r12, %rsi                                    #90.5
..LN74:
        xorl      %eax, %eax                                    #90.5
..___tag_value_main.19:
..LN75:
#       printf(const char *, ...)
        call      printf                                        #90.5
..___tag_value_main.20:
..LN76:
                                # LOE rbx r12 r13d
..B1.18:                        # Preds ..B1.17
..LN77:
	.loc    2  91  is_stmt 1
        movl      $.L_2__STRING.4, %edi                         #91.5
..LN78:
        movq      %rbx, %rsi                                    #91.5
..LN79:
        xorl      %eax, %eax                                    #91.5
..___tag_value_main.21:
..LN80:
#       printf(const char *, ...)
        call      printf                                        #91.5
..___tag_value_main.22:
..LN81:
                                # LOE rbx r12 r13d
..B1.19:                        # Preds ..B1.18
..LN82:
	.loc    2  93  is_stmt 1
        vxorpd    %xmm0, %xmm0, %xmm0                           #93.22
..LN83:
        vxorpd    %xmm2, %xmm2, %xmm2                           #93.27
..LN84:
        vcvtsi2sdq %r12, %xmm0, %xmm0                           #93.22
..LN85:
        vcvtsi2sdq %rbx, %xmm2, %xmm2                           #93.27
..LN86:
	.loc    2  92  is_stmt 1
        vmulsd    .L_2il0floatpacket.1(%rip), %xmm0, %xmm1      #92.5
..LN87:
        vxorpd    %xmm4, %xmm4, %xmm4                           #92.5
..LN88:
        movl      $.L_2__STRING.5, %edi                         #92.5
..LN89:
        vcvtsi2sd %r13d, %xmm4, %xmm4                           #92.5
..LN90:
        vmulsd    %xmm2, %xmm1, %xmm3                           #92.5
..LN91:
        vdivsd    %xmm4, %xmm3, %xmm5                           #92.5
..LN92:
	.loc    2  93  is_stmt 1
        vmovsd    %xmm0, 8(%rsp)                                #93.22
..LN93:
	.loc    2  92  is_stmt 1
        movl      %r13d, %esi                                   #92.5
..LN94:
        vmulsd    .L_2il0floatpacket.0(%rip), %xmm5, %xmm0      #92.5
..LN95:
        movl      $1, %eax                                      #92.5
..LN96:
	.loc    2  93  is_stmt 1
        vmovsd    %xmm2, (%rsp)                                 #93.27
..___tag_value_main.23:
..LN97:
	.loc    2  92  is_stmt 1
#       printf(const char *, ...)
        call      printf                                        #92.5
..___tag_value_main.24:
..LN98:
                                # LOE rbx r12
..B1.20:                        # Preds ..B1.19
..LN99:
	.loc    2  94  is_stmt 1
        vmovsd    8(%rsp), %xmm0                                #94.5
..LN100:
        movl      $.L_2__STRING.6, %edi                         #94.5
..LN101:
        vmulsd    .L_2il0floatpacket.2(%rip), %xmm0, %xmm1      #94.5
..LN102:
        movl      $1, %eax                                      #94.5
..LN103:
        vmulsd    (%rsp), %xmm1, %xmm0                          #94.5
..___tag_value_main.25:
..LN104:
#       printf(const char *, ...)
        call      printf                                        #94.5
..___tag_value_main.26:
..LN105:
                                # LOE rbx r12
..B1.21:                        # Preds ..B1.20
..LN106:
	.loc    2  95  is_stmt 1
        movl      $il0_peep_printf_format_2, %edi               #95.5
..LN107:
        call      puts                                          #95.5
..LN108:
                                # LOE rbx r12
..B1.22:                        # Preds ..B1.21
..LN109:
	.loc    1  313  is_stmt 1
        movl      $30, %edi                                     #313.18
..LN110:
#       sysconf(int)
        call      sysconf                                       #313.18
..LN111:
                                # LOE rax rbx r12
..B1.23:                        # Preds ..B1.22
..LN112:
	.loc    1  314  is_stmt 1
        movq      %rax, %rsi                                    #314.25
..LN113:
        lea       (,%r12,4), %r13                               #314.44
..LN114:
        imulq     %rbx, %r13                                    #314.40
..LN115:
        movq      %r13, %rdi                                    #314.25
..LN116:
#       _mm_malloc(size_t, size_t)
        call      _mm_malloc                                    #314.25
..LN117:
                                # LOE rax rbx r12 r13
..B1.227:                       # Preds ..B1.23
..LN118:
        movq      %rax, %r14                                    #314.25
..LN119:
                                # LOE rbx r12 r13 r14
..B1.24:                        # Preds ..B1.227
..LN120:
	.loc    1  318  is_stmt 1
        movq      %r13, %rdi                                    #318.5
..LN121:
        lea       400(%rsp), %rsi                               #318.5
..___tag_value_main.27:
..LN122:
#       mic::alloc(long, float **)
        call      _ZN3mic5allocElPPf                            #318.5
..___tag_value_main.28:
..LN123:
                                # LOE rbx r12 r13 r14
..B1.25:                        # Preds ..B1.24
..LN124:
	.file   4 "../timeit.h"
	.loc    4  68  is_stmt 1
        vmovsd    .L_2il0floatpacket.3(%rip), %xmm0             #68.25
..LN125:
	.loc    4  67  is_stmt 1
        xorl      %r15d, %r15d                                  #67.12
..LN126:
	.loc    4  68  is_stmt 1
        vmovapd   %xmm0, %xmm1                                  #68.25
..LN127:
        vmovsd    %xmm0, 424(%rsp)                              #68.25
..LN128:
        vmovsd    %xmm1, 16(%rsp)                               #68.25
..___tag_value_main.29:
..LN129:
	.loc    4  69  is_stmt 1
#       omp_get_wtime()
        call      omp_get_wtime                                 #69.22
..___tag_value_main.30:
..LN130:
                                # LOE rbx r12 r13 r14 r15 xmm0
..B1.26:                        # Preds ..B1.25
..LN131:
        vmovsd    %xmm0, (%rsp)                                 #
..LN132:
        movq      %r13, 272(%rsp)                               #
..LN133:
        movb      $1, %r13b                                     #
..LN134:
                                # LOE rbx r12 r14 r15 r13b
..B1.27:                        # Preds ..B1.34 ..B1.26
..LN135:
	.loc    4  70  is_stmt 1
        movb      %r13b, %al                                    #70.31
..LN136:
        jmp       ..B1.28       # Prob 100%                     #70.31
..LN137:
                                # LOE rbx r12 r14 r15 al r13b
..B1.36:                        # Preds ..B1.34
..LN138:
        xorb      %al, %al                                      #70.31
..LN139:
                                # LOE rbx r12 r14 r15 al r13b
..B1.28:                        # Preds ..B1.27 ..B1.36
..LN140:
        incq      %r15                                          #70.24
..LN141:
        testb     %al, %al                                      #70.31
..LN142:
        je        ..B1.37       # Prob 20%                      #70.31
..LN143:
                                # LOE rbx r12 r14 r15 r13b
..B1.29:                        # Preds ..B1.28
..___tag_value_main.31:
..LN144:
	.loc    4  74  is_stmt 1
#       omp_get_wtime()
        call      omp_get_wtime                                 #74.14
..___tag_value_main.32:
..LN145:
                                # LOE rbx r12 r14 r15 r13b xmm0
..B1.229:                       # Preds ..B1.29
..LN146:
        vmovsd    %xmm0, 8(%rsp)                                #74.14
..LN147:
                                # LOE rbx r12 r14 r15 r13b
..B1.30:                        # Preds ..B1.229
..LN148:
	.loc    4  76  is_stmt 1
        movq      %r14, %rdi                                    #76.9
..LN149:
        movq      %r12, %rsi                                    #76.9
..LN150:
        movq      %rbx, %rdx                                    #76.9
..___tag_value_main.33:
..LN151:
#       init(float *, long, long)
        call      _Z4initPfll                                   #76.9
..___tag_value_main.34:
..LN152:
                                # LOE rbx r12 r14 r15 r13b
..B1.31:                        # Preds ..B1.30
..___tag_value_main.35:
..LN153:
	.loc    4  77  is_stmt 1
#       omp_get_wtime()
        call      omp_get_wtime                                 #77.14
..___tag_value_main.36:
..LN154:
                                # LOE rbx r12 r14 r15 r13b xmm0
..B1.32:                        # Preds ..B1.31
..LN155:
	.loc    4  80  is_stmt 1
        vsubsd    8(%rsp), %xmm0, %xmm1                         #80.16
..LN156:
        vmovsd    16(%rsp), %xmm0                               #80.16
..LN157:
        call      fmin                                          #80.16
..LN158:
                                # LOE rbx r12 r14 r15 r13b xmm0
..B1.232:                       # Preds ..B1.32
..LN159:
        vmovsd    %xmm0, 16(%rsp)                               #80.16
..___tag_value_main.37:
..LN160:
	.loc    4  71  is_stmt 1
#       omp_get_wtime()
        call      omp_get_wtime                                 #71.15
..___tag_value_main.38:
..LN161:
                                # LOE rbx r12 r14 r15 r13b xmm0
..B1.33:                        # Preds ..B1.232
..LN162:
        vsubsd    (%rsp), %xmm0, %xmm1                          #71.33
..LN163:
	.loc    4  70  is_stmt 1
        vmovsd    .L_2il0floatpacket.6(%rip), %xmm0             #70.15
..LN164:
        vcomisd   %xmm1, %xmm0                                  #70.15
..LN165:
        jbe       ..B1.37       # Prob 18%                      #70.15
..LN166:
                                # LOE rbx r12 r14 r15 r13b
..B1.34:                        # Preds ..B1.33
..L39:          # optimization report
                # %s was not vectorized: loop control variable %s was found, but loop iteration count cannot be computed before executing the loop
..LN167:
        testq     %r15, %r15                                    #70.31
..LN168:
        jle       ..B1.27       # Prob 50%                      #70.31
..LN169:
        jmp       ..B1.36       # Prob 100%                     #70.31
..LN170:
                                # LOE rbx r12 r14 r15 r13b
..B1.37:                        # Preds ..B1.28 ..B1.33         # Infreq
..LN171:
        movq      272(%rsp), %r13                               #
..LN172:
                                # LOE rbx r12 r13 r14 r13d r13b
..B1.38:                        # Preds ..B1.37                 # Infreq
..LN173:
	.loc    1  322  is_stmt 1
        vmovsd    16(%rsp), %xmm0                               #322.5
..LN174:
        movl      $.L_2__STRING.8, %edi                         #322.5
..LN175:
        movl      $1, %eax                                      #322.5
..___tag_value_main.40:
..LN176:
#       printf(const char *, ...)
        call      printf                                        #322.5
..___tag_value_main.41:
..LN177:
                                # LOE rbx r12 r13 r14 r13d r13b
..B1.39:                        # Preds ..B1.38                 # Infreq
..LN178:
	.loc    1  323  is_stmt 1
        movl      $il0_peep_printf_format_3, %edi               #323.5
..LN179:
        call      puts                                          #323.5
..LN180:
                                # LOE rbx r12 r13 r14 r13d r13b
..B1.40:                        # Preds ..B1.39                 # Infreq
..LN181:
	.loc    1  324  is_stmt 1
        movl      $.L_2__STRING.9, %edi                         #324.5
..LN182:
        movl      $5, %esi                                      #324.5
..LN183:
        xorl      %eax, %eax                                    #324.5
..___tag_value_main.42:
..LN184:
#       printf(const char *, ...)
        call      printf                                        #324.5
..___tag_value_main.43:
..LN185:
                                # LOE rbx r12 r13 r14 r13d r13b
..B1.41:                        # Preds ..B1.40                 # Infreq
..LN186:
	.loc    1  325  is_stmt 1
        movl      $il0_peep_printf_format_4, %edi               #325.5
..LN187:
        call      puts                                          #325.5
..LN188:
                                # LOE rbx r12 r13 r14 r13d r13b
..B1.42:                        # Preds ..B1.41                 # Infreq
..LN189:
	.loc    1  329  is_stmt 1
        movq      %r13, %rdi                                    #329.5
..LN190:
        lea       400(%rsp), %rsi                               #329.5
..___tag_value_main.44:
..LN191:
#       mic::clear(long, float **)
        call      _ZN3mic5clearElPPf                            #329.5
..___tag_value_main.45:
..LN192:
                                # LOE rbx r12 r13 r14 r13d r13b
..B1.43:                        # Preds ..B1.42                 # Infreq
..LN193:
	.loc    4  68  is_stmt 1
        vmovsd    .L_2il0floatpacket.3(%rip), %xmm0             #68.25
..LN194:
	.loc    1  330  is_stmt 1
        movq      400(%rsp), %r15                               #330.32
..LN195:
	.loc    4  67  is_stmt 1
        movq      $0, (%rsp)                                    #67.12
..LN196:
	.loc    4  68  is_stmt 1
        vmovsd    %xmm0, 432(%rsp)                              #68.25
..___tag_value_main.46:
..LN197:
	.loc    4  69  is_stmt 1
#       omp_get_wtime()
        call      omp_get_wtime                                 #69.22
..___tag_value_main.47:
..LN198:
                                # LOE rbx r12 r13 r14 r15 r13d r13b xmm0
..B1.233:                       # Preds ..B1.43                 # Infreq
..LN199:
        movq      %r14, 280(%rsp)                               #69.22
..LN200:
        vmovsd    %xmm0, 8(%rsp)                                #69.22
..LN201:
        movq      %r13, 272(%rsp)                               #69.22
..LN202:
        movb      $1, %r13b                                     #69.22
..LN203:
        movq      (%rsp), %r14                                  #69.22
..LN204:
                                # LOE rbx r12 r14 r15 r13b
..B1.44:                        # Preds ..B1.51 ..B1.233        # Infreq
..LN205:
	.loc    4  70  is_stmt 1
        movb      %r13b, %al                                    #70.31
..LN206:
        jmp       ..B1.45       # Prob 100%                     #70.31
..LN207:
                                # LOE rbx r12 r14 r15 al r13b
..B1.53:                        # Preds ..B1.51                 # Infreq
..LN208:
        xorb      %al, %al                                      #70.31
..LN209:
                                # LOE rbx r12 r14 r15 al r13b
..B1.45:                        # Preds ..B1.44 ..B1.53         # Infreq
..LN210:
        incq      %r14                                          #70.24
..LN211:
        testb     %al, %al                                      #70.31
..LN212:
        je        ..B1.54       # Prob 20%                      #70.31
..LN213:
                                # LOE rbx r12 r14 r15 r13b
..B1.46:                        # Preds ..B1.45                 # Infreq
..___tag_value_main.48:
..LN214:
	.loc    4  74  is_stmt 1
#       omp_get_wtime()
        call      omp_get_wtime                                 #74.14
..___tag_value_main.49:
..LN215:
                                # LOE rbx r12 r14 r15 r13b xmm0
..B1.234:                       # Preds ..B1.46                 # Infreq
..LN216:
        vmovsd    %xmm0, (%rsp)                                 #74.14
..LN217:
                                # LOE rbx r12 r14 r15 r13b
..B1.47:                        # Preds ..B1.234                # Infreq
..LN218:
	.loc    4  76  is_stmt 1
        movq      %r15, %rdi                                    #76.9
..LN219:
        movq      %r12, %rsi                                    #76.9
..LN220:
        movq      %rbx, %rdx                                    #76.9
..___tag_value_main.50:
..LN221:
#       scalar(float *, long, long)
        call      _Z6scalarPfll                                 #76.9
..___tag_value_main.51:
..LN222:
                                # LOE rbx r12 r14 r15 r13b
..B1.48:                        # Preds ..B1.47                 # Infreq
..___tag_value_main.52:
..LN223:
	.loc    4  77  is_stmt 1
#       omp_get_wtime()
        call      omp_get_wtime                                 #77.14
..___tag_value_main.53:
..LN224:
                                # LOE rbx r12 r14 r15 r13b xmm0
..B1.49:                        # Preds ..B1.48                 # Infreq
..LN225:
	.loc    4  80  is_stmt 1
        vsubsd    (%rsp), %xmm0, %xmm1                          #80.16
..LN226:
        vmovsd    432(%rsp), %xmm0                              #80.16
..LN227:
        call      fmin                                          #80.16
..LN228:
                                # LOE rbx r12 r14 r15 r13b xmm0
..B1.237:                       # Preds ..B1.49                 # Infreq
..LN229:
        vmovsd    %xmm0, 432(%rsp)                              #80.16
..___tag_value_main.54:
..LN230:
	.loc    4  71  is_stmt 1
#       omp_get_wtime()
        call      omp_get_wtime                                 #71.15
..___tag_value_main.55:
..LN231:
                                # LOE rbx r12 r14 r15 r13b xmm0
..B1.50:                        # Preds ..B1.237                # Infreq
..LN232:
        vsubsd    8(%rsp), %xmm0, %xmm1                         #71.33
..LN233:
	.loc    4  70  is_stmt 1
        vmovsd    .L_2il0floatpacket.6(%rip), %xmm0             #70.15
..LN234:
        vcomisd   %xmm1, %xmm0                                  #70.15
..LN235:
        jbe       ..B1.54       # Prob 18%                      #70.15
..LN236:
                                # LOE rbx r12 r14 r15 r13b
..B1.51:                        # Preds ..B1.50                 # Infreq
..L56:          # optimization report
                # %s was not vectorized: loop control variable %s was found, but loop iteration count cannot be computed before executing the loop
..LN237:
        cmpq      $1000, %r14                                   #70.31
..LN238:
        jl        ..B1.44       # Prob 50%                      #70.31
..LN239:
        jmp       ..B1.53       # Prob 100%                     #70.31
..LN240:
                                # LOE rbx r12 r14 r15 r13b
..B1.54:                        # Preds ..B1.45 ..B1.50         # Infreq
..LN241:
        movq      280(%rsp), %r14                               #
..LN242:
        movq      272(%rsp), %r13                               #
..LN243:
                                # LOE rbx r12 r13 r14 r13d r14d r13b r14b
..B1.55:                        # Preds ..B1.54                 # Infreq
..LN244:
	.loc    1  331  is_stmt 1
        vmovsd    432(%rsp), %xmm0                              #331.5
..LN245:
        movl      $.L_2__STRING.10, %edi                        #331.5
..LN246:
        movl      $1, %eax                                      #331.5
..___tag_value_main.57:
..LN247:
#       printf(const char *, ...)
        call      printf                                        #331.5
..___tag_value_main.58:
..LN248:
                                # LOE rbx r12 r13 r14 r13d r14d r13b r14b
..B1.56:                        # Preds ..B1.55                 # Infreq
..LN249:
	.loc    1  332  is_stmt 1
        movq      %r13, %rdi                                    #332.16
..LN250:
        lea       400(%rsp), %rsi                               #332.16
..LN251:
        movq      %r14, %rdx                                    #332.16
..___tag_value_main.59:
..LN252:
#       mic::copytohost(long, float **, float *)
        call      _ZN3mic10copytohostElPPfS0_                   #332.16
..___tag_value_main.60:
..LN253:
                                # LOE rbx r12 r13 r14 r13d r14d r13b r14b
..B1.57:                        # Preds ..B1.56                 # Infreq
..LN254:
	.loc    1  272  is_stmt 1
        movq      %r12, %r15                                    #272.28
..LN255:
        xorl      %eax, %eax                                    #272.5
..LN256:
        imulq     %rbx, %r15                                    #272.28
..LN257:
	.loc    1  270  is_stmt 1
        vxorpd    %xmm1, %xmm1, %xmm1                           #270.16
..LN258:
        vmovsd    %xmm1, 296(%rsp)                              #270.16
..LN259:
	.loc    1  272  is_stmt 1
        testq     %r15, %r15                                    #272.28
..LN260:
        jle       ..B1.64       # Prob 9%                       #272.28
..LN261:
                                # LOE rax rbx r12 r13 r14 r15 r13d r14d r13b r14b xmm1 ymm1 zmm1
..B1.58:                        # Preds ..B1.57                 # Infreq
..LN262:
	.loc    1  274  is_stmt 1
        vmovss    .L_2il0floatpacket.4(%rip), %xmm0             #274.65
..LN263:
                                # LOE rax rbx r12 r13 r14 r15 xmm0 xmm1
..B1.59:                        # Preds ..B1.62 ..B1.58         # Infreq
..L61:          # optimization report
                # %s was not vectorized: novector directive used
                # VECTOR TRIP COUNT IS ESTIMATED CONSTANT
..LN264:
        movl      (%r14,%rax,4), %ecx                           #274.20
..LN265:
        cmpl      $10000, %ecx                                  #274.32
..LN266:
        je        ..B1.61       # Prob 16%                      #274.32
..LN267:
                                # LOE rax rbx r12 r13 r14 r15 ecx xmm0 xmm1
..B1.60:                        # Preds ..B1.59                 # Infreq
..LN268:
        vxorps    %xmm2, %xmm2, %xmm2                           #274.54
..LN269:
        vcvtsi2ss %ecx, %xmm2, %xmm2                            #274.54
..LN270:
        vdivss    %xmm0, %xmm2, %xmm3                           #274.65
..LN271:
        vcvtss2sd %xmm3, %xmm3, %xmm3                           #274.32
..LN272:
        jmp       ..B1.62       # Prob 100%                     #274.32
..LN273:
                                # LOE rax rbx r12 r13 r14 r15 xmm0 xmm1 xmm3
..B1.61:                        # Preds ..B1.59                 # Infreq
..LN274:
        vxorpd    %xmm3, %xmm3, %xmm3                           #274.32
..LN275:
                                # LOE rax rbx r12 r13 r14 r15 xmm0 xmm1 xmm3
..B1.62:                        # Preds ..B1.61 ..B1.60         # Infreq
..LN276:
	.loc    1  275  is_stmt 1
        vmulsd    %xmm3, %xmm3, %xmm2                           #275.18
..LN277:
	.loc    1  272  is_stmt 1
        incq      %rax                                          #272.5
..LN278:
	.loc    1  275  is_stmt 1
        vaddsd    %xmm2, %xmm1, %xmm1                           #275.9
..LN279:
	.loc    1  272  is_stmt 1
        cmpq      %r15, %rax                                    #272.5
..LN280:
        jb        ..B1.59       # Prob 82%                      #272.5
..LN281:
                                # LOE rax rbx r12 r13 r14 r15 xmm0 xmm1
..B1.64:                        # Preds ..B1.62 ..B1.57         # Infreq
..LN282:
	.loc    1  333  is_stmt 1
        vsqrtsd   %xmm1, %xmm1, %xmm1                           #333.16
..LN283:
        vcvtsd2ss %xmm1, %xmm1, %xmm1                           #333.16
..LN284:
        vcvtss2sd %xmm1, %xmm1, %xmm1                           #333.16
..LN285:
        movl      $.L_2__STRING.11, %edi                        #333.16
..LN286:
        movl      $1, %eax                                      #333.16
..LN287:
        vmovapd   %xmm1, %xmm0                                  #333.16
..___tag_value_main.62:
..LN288:
#       printf(const char *, ...)
        call      printf                                        #333.16
..___tag_value_main.63:
..LN289:
                                # LOE rbx r12 r13 r14 r15
..B1.65:                        # Preds ..B1.64                 # Infreq
..LN290:
	.loc    1  290  is_stmt 1
        testq     %r15, %r15                                    #290.29
..LN291:
        jle       ..B1.84       # Prob 50%                      #290.29
..LN292:
                                # LOE rbx r12 r13 r14 r15
..B1.66:                        # Preds ..B1.65                 # Infreq
..LN293:
        cmpq      $4, %r15                                      #290.5
..LN294:
        jl        ..B1.214      # Prob 10%                      #290.5
..LN295:
                                # LOE rbx r12 r13 r14 r15
..B1.67:                        # Preds ..B1.66                 # Infreq
..LN296:
        movq      %r14, %rax                                    #290.5
..LN297:
        andq      $15, %rax                                     #290.5
..LN298:
        je        ..B1.70       # Prob 50%                      #290.5
..LN299:
                                # LOE rax rbx r12 r13 r14 r15
..B1.68:                        # Preds ..B1.67                 # Infreq
..LN300:
        testq     $3, %rax                                      #290.5
..LN301:
        jne       ..B1.214      # Prob 10%                      #290.5
..LN302:
                                # LOE rax rbx r12 r13 r14 r15
..B1.69:                        # Preds ..B1.68                 # Infreq
..LN303:
        negq      %rax                                          #290.5
..LN304:
        addq      $16, %rax                                     #290.5
..LN305:
        shrq      $2, %rax                                      #290.5
..LN306:
                                # LOE rax rbx r12 r13 r14 r15
..B1.70:                        # Preds ..B1.69 ..B1.67         # Infreq
..LN307:
        lea       4(%rax), %rcx                                 #290.5
..LN308:
        cmpq      %rcx, %r15                                    #290.5
..LN309:
        jl        ..B1.214      # Prob 10%                      #290.5
..LN310:
                                # LOE rax rbx r12 r13 r14 r15
..B1.71:                        # Preds ..B1.70                 # Infreq
..LN311:
        movq      %r15, %rcx                                    #290.5
..LN312:
        xorl      %r10d, %r10d                                  #290.5
..LN313:
        subq      %rax, %rcx                                    #290.5
..LN314:
        xorl      %r9d, %r9d                                    #290.5
..LN315:
        andq      $3, %rcx                                      #290.5
..LN316:
        xorl      %r8d, %r8d                                    #290.5
..LN317:
        negq      %rcx                                          #290.5
..LN318:
        addq      %r15, %rcx                                    #290.5
..LN319:
        testq     %rax, %rax                                    #290.5
..LN320:
        jbe       ..B1.75       # Prob 9%                       #290.5
..LN321:
                                # LOE rax rcx rbx r8 r12 r13 r14 r15 r9d r10d
..B1.73:                        # Preds ..B1.71 ..B1.73         # Infreq
..L64:          # optimization report
                # PEELED LOOP FOR VECTORIZATION
..LN322:
        incl      %r10d                                         #290.5
..LN323:
	.loc    1  291  is_stmt 1
        movl      (%r14,%r8,4), %r11d                           #291.20
..LN324:
	.loc    1  290  is_stmt 1
        cmpl      $10000, %r11d                                 #290.5
..LN325:
        cmove     %r9d, %r11d                                   #290.5
..LN326:
	.loc    1  291  is_stmt 1
        movl      %r11d, (%r14,%r8,4)                           #291.9
..LN327:
	.loc    1  290  is_stmt 1
        incq      %r8                                           #290.5
..LN328:
        cmpq      %rax, %r10                                    #290.5
..LN329:
        jb        ..B1.73       # Prob 82%                      #290.5
..LN330:
                                # LOE rax rcx rbx r8 r12 r13 r14 r15 r9d r10d
..B1.75:                        # Preds ..B1.73 ..B1.71         # Infreq
..LN331:
	.loc    1  291  is_stmt 1
        vmovdqu   .L_2il0floatpacket.5(%rip), %xmm0             #291.32
..LN332:
	.loc    1  290  is_stmt 1
        movl      %eax, %r8d                                    #290.5
..LN333:
                                # LOE rax rcx rbx r12 r13 r14 r15 r8d xmm0
..B1.76:                        # Preds ..B1.76 ..B1.75         # Infreq
..L65:          # optimization report
                # LOOP WAS UNROLLED BY 1
                # LOOP WAS VECTORIZED
                # VECTORIZATION SPEEDUP COEFFECIENT 7.230469
                # VECTOR TRIP COUNT IS ESTIMATED CONSTANT
                # VECTOR LENGTH 4
                # NORMALIZED VECTORIZATION OVERHEAD 1.000000
..LN334:
        addl      $4, %r8d                                      #290.5
..LN335:
	.loc    1  291  is_stmt 1
        vmovdqu   (%r14,%rax,4), %xmm2                          #291.9
..LN336:
        vpcmpeqd  %xmm2, %xmm0, %xmm1                           #291.32
..LN337:
        vpandn    %xmm2, %xmm1, %xmm3                           #291.9
..LN338:
        vmovdqu   %xmm3, (%r14,%rax,4)                          #291.9
..LN339:
	.loc    1  290  is_stmt 1
        addq      $4, %rax                                      #290.5
..LN340:
        cmpq      %rcx, %r8                                     #290.5
..LN341:
        jb        ..B1.76       # Prob 82%                      #290.5
..LN342:
                                # LOE rax rcx rbx r12 r13 r14 r15 r8d xmm0
..B1.78:                        # Preds ..B1.76 ..B1.214        # Infreq
..LN343:
        movslq    %ecx, %rax                                    #290.5
..LN344:
        movl      %ecx, %r8d                                    #290.5
..LN345:
        movl      %ecx, %ecx                                    #290.5
..LN346:
        cmpq      %r15, %rcx                                    #290.5
..LN347:
        jae       ..B1.84       # Prob 9%                       #290.5
..LN348:
                                # LOE rax rbx r12 r13 r14 r15 r8d
..B1.80:                        # Preds ..B1.78 ..B1.82         # Infreq
..L66:          # optimization report
                # REMAINDER LOOP FOR VECTORIZATION
..LN349:
	.loc    1  291  is_stmt 1
        cmpl      $10000, (%r14,%rax,4)                         #291.32
..LN350:
        jne       ..B1.82       # Prob 84%                      #291.32
..LN351:
                                # LOE rax rbx r12 r13 r14 r15 r8d
..B1.81:                        # Preds ..B1.80                 # Infreq
..LN352:
        movl      $0, (%r14,%rax,4)                             #291.9
..LN353:
                                # LOE rax rbx r12 r13 r14 r15 r8d
..B1.82:                        # Preds ..B1.80 ..B1.81         # Infreq
..LN354:
	.loc    1  290  is_stmt 1
        incl      %r8d                                          #290.5
..LN355:
        incq      %rax                                          #290.5
..LN356:
        cmpq      %r15, %r8                                     #290.5
..LN357:
        jb        ..B1.80       # Prob 82%                      #290.5
..LN358:
                                # LOE rax rbx r12 r13 r14 r15 r8d
..B1.84:                        # Preds ..B1.82 ..B1.65 ..B1.78 # Infreq
..LN359:
	.loc    1  293  is_stmt 1
        movl      $.L_2__STRING.7, %esi                         #293.5
..LN360:
        lea       16(%rsp), %rdi                                #293.5
..LN361:
        xorl      %edx, %edx                                    #293.5
..LN362:
        xorl      %eax, %eax                                    #293.5
..LN363:
#       sprintf(char *, const char *, ...)
        call      sprintf                                       #293.5
..LN364:
                                # LOE rbx r12 r13 r14 r15
..B1.85:                        # Preds ..B1.84                 # Infreq
..LN365:
	.loc    1  294  is_stmt 1
        movq      %r14, %rsi                                    #294.5
..LN366:
        lea       16(%rsp), %rdi                                #294.5
..LN367:
        movl      %ebx, %edx                                    #294.5
..LN368:
        movl      %r12d, %ecx                                   #294.5
..LN369:
        movl      %ebx, 400(%rdi)                               #294.28
..LN370:
        movl      %r12d, 392(%rdi)                              #294.31
..___tag_value_main.67:
..LN371:
#       writepng(char *, int *, int, int)
        call      writepng                                      #294.5
..___tag_value_main.68:
..LN372:
                                # LOE rbx r12 r13 r14 r15
..B1.86:                        # Preds ..B1.85                 # Infreq
..LN373:
	.loc    4  67  is_stmt 1
        movq      $0, (%rsp)                                    #67.12
..___tag_value_main.69:
..LN374:
	.loc    4  69  is_stmt 1
#       omp_get_wtime()
        call      omp_get_wtime                                 #69.22
..___tag_value_main.70:
..LN375:
                                # LOE rbx r12 r13 r14 r15 xmm0
..B1.238:                       # Preds ..B1.86                 # Infreq
..LN376:
        movq      %r13, 272(%rsp)                               #69.22
..LN377:
        vmovsd    %xmm0, 8(%rsp)                                #69.22
..LN378:
        movq      %r15, 288(%rsp)                               #69.22
..LN379:
        movb      $1, %r15b                                     #69.22
..LN380:
        movq      (%rsp), %r13                                  #69.22
..LN381:
                                # LOE rbx r12 r13 r14 r15b
..B1.87:                        # Preds ..B1.94 ..B1.238        # Infreq
..LN382:
	.loc    4  70  is_stmt 1
        movb      %r15b, %al                                    #70.31
..LN383:
        jmp       ..B1.88       # Prob 100%                     #70.31
..LN384:
                                # LOE rbx r12 r13 r14 al r15b
..B1.96:                        # Preds ..B1.94                 # Infreq
..LN385:
        xorb      %al, %al                                      #70.31
..LN386:
                                # LOE rbx r12 r13 r14 al r15b
..B1.88:                        # Preds ..B1.87 ..B1.96         # Infreq
..LN387:
        incq      %r13                                          #70.24
..LN388:
        testb     %al, %al                                      #70.31
..LN389:
        je        ..B1.97       # Prob 20%                      #70.31
..LN390:
                                # LOE rbx r12 r13 r14 r15b
..B1.89:                        # Preds ..B1.88                 # Infreq
..___tag_value_main.71:
..LN391:
	.loc    4  74  is_stmt 1
#       omp_get_wtime()
        call      omp_get_wtime                                 #74.14
..___tag_value_main.72:
..LN392:
                                # LOE rbx r12 r13 r14 r15b
..B1.90:                        # Preds ..B1.89                 # Infreq
..LN393:
	.loc    4  76  is_stmt 1
        movq      %r14, %rdi                                    #76.9
..LN394:
        movq      %r12, %rsi                                    #76.9
..LN395:
        movq      %rbx, %rdx                                    #76.9
..___tag_value_main.73:
..LN396:
#       init(float *, long, long)
        call      _Z4initPfll                                   #76.9
..___tag_value_main.74:
..LN397:
                                # LOE rbx r12 r13 r14 r15b
..B1.91:                        # Preds ..B1.90                 # Infreq
..___tag_value_main.75:
..LN398:
	.loc    4  77  is_stmt 1
#       omp_get_wtime()
        call      omp_get_wtime                                 #77.14
..___tag_value_main.76:
..LN399:
                                # LOE rbx r12 r13 r14 r15b
..B1.92:                        # Preds ..B1.91                 # Infreq
..___tag_value_main.77:
..LN400:
	.loc    4  71  is_stmt 1
#       omp_get_wtime()
        call      omp_get_wtime                                 #71.15
..___tag_value_main.78:
..LN401:
                                # LOE rbx r12 r13 r14 r15b xmm0
..B1.93:                        # Preds ..B1.92                 # Infreq
..LN402:
        vsubsd    8(%rsp), %xmm0, %xmm1                         #71.33
..LN403:
	.loc    4  70  is_stmt 1
        vmovsd    .L_2il0floatpacket.6(%rip), %xmm0             #70.15
..LN404:
        vcomisd   %xmm1, %xmm0                                  #70.15
..LN405:
        jbe       ..B1.97       # Prob 18%                      #70.15
..LN406:
                                # LOE rbx r12 r13 r14 r15b
..B1.94:                        # Preds ..B1.93                 # Infreq
..L79:          # optimization report
                # %s was not vectorized: loop control variable %s was found, but loop iteration count cannot be computed before executing the loop
..LN407:
        testq     %r13, %r13                                    #70.31
..LN408:
        jle       ..B1.87       # Prob 50%                      #70.31
..LN409:
        jmp       ..B1.96       # Prob 100%                     #70.31
..LN410:
                                # LOE rbx r12 r13 r14 r15b
..B1.97:                        # Preds ..B1.88 ..B1.93         # Infreq
..LN411:
        movq      288(%rsp), %r15                               #
..LN412:
        movq      272(%rsp), %r13                               #
..LN413:
                                # LOE rbx r12 r13 r14 r15 r13d r15d r13b r15b
..B1.98:                        # Preds ..B1.97                 # Infreq
..LN414:
	.loc    4  68  is_stmt 1
        vmovsd    .L_2il0floatpacket.3(%rip), %xmm0             #68.25
..LN415:
	.loc    1  336  is_stmt 1
        movq      400(%rsp), %rax                               #336.30
..LN416:
	.loc    4  68  is_stmt 1
        vmovsd    %xmm0, 440(%rsp)                              #68.25
..LN417:
	.loc    1  336  is_stmt 1
        movq      %rax, 8(%rsp)                                 #336.30
..LN418:
	.loc    4  67  is_stmt 1
        movq      $0, (%rsp)                                    #67.12
..___tag_value_main.80:
..LN419:
	.loc    4  69  is_stmt 1
#       omp_get_wtime()
        call      omp_get_wtime                                 #69.22
..___tag_value_main.81:
..LN420:
                                # LOE rbx r12 r13 r14 r15 r13d r15d r13b r15b xmm0
..B1.240:                       # Preds ..B1.98                 # Infreq
..LN421:
        movq      %r14, 280(%rsp)                               #69.22
..LN422:
        movq      %r13, 272(%rsp)                               #69.22
..LN423:
        vmovsd    %xmm0, 144(%rsp)                              #69.22
..LN424:
        movq      %r15, 288(%rsp)                               #69.22
..LN425:
        movb      $1, %r15b                                     #69.22
..LN426:
        movq      (%rsp), %r14                                  #69.22
..LN427:
        movq      8(%rsp), %r13                                 #69.22
..LN428:
                                # LOE rbx r12 r13 r14 r15b
..B1.99:                        # Preds ..B1.106 ..B1.240       # Infreq
..LN429:
	.loc    4  70  is_stmt 1
        movb      %r15b, %al                                    #70.31
..LN430:
        jmp       ..B1.100      # Prob 100%                     #70.31
..LN431:
                                # LOE rbx r12 r13 r14 al r15b
..B1.108:                       # Preds ..B1.106                # Infreq
..LN432:
        xorb      %al, %al                                      #70.31
..LN433:
                                # LOE rbx r12 r13 r14 al r15b
..B1.100:                       # Preds ..B1.99 ..B1.108        # Infreq
..LN434:
        incq      %r14                                          #70.24
..LN435:
        testb     %al, %al                                      #70.31
..LN436:
        je        ..B1.109      # Prob 20%                      #70.31
..LN437:
                                # LOE rbx r12 r13 r14 r15b
..B1.101:                       # Preds ..B1.100                # Infreq
..___tag_value_main.82:
..LN438:
	.loc    4  74  is_stmt 1
#       omp_get_wtime()
        call      omp_get_wtime                                 #74.14
..___tag_value_main.83:
..LN439:
                                # LOE rbx r12 r13 r14 r15b xmm0
..B1.241:                       # Preds ..B1.101                # Infreq
..LN440:
        vmovsd    %xmm0, (%rsp)                                 #74.14
..LN441:
                                # LOE rbx r12 r13 r14 r15b
..B1.102:                       # Preds ..B1.241                # Infreq
..LN442:
	.loc    4  76  is_stmt 1
        movq      %r13, %rdi                                    #76.9
..LN443:
        movq      %r12, %rsi                                    #76.9
..LN444:
        movq      %rbx, %rdx                                    #76.9
..___tag_value_main.84:
..LN445:
#       simd(float *, long, long)
        call      _Z4simdPfll                                   #76.9
..___tag_value_main.85:
..LN446:
                                # LOE rbx r12 r13 r14 r15b
..B1.103:                       # Preds ..B1.102                # Infreq
..___tag_value_main.86:
..LN447:
	.loc    4  77  is_stmt 1
#       omp_get_wtime()
        call      omp_get_wtime                                 #77.14
..___tag_value_main.87:
..LN448:
                                # LOE rbx r12 r13 r14 r15b xmm0
..B1.104:                       # Preds ..B1.103                # Infreq
..LN449:
	.loc    4  80  is_stmt 1
        vsubsd    (%rsp), %xmm0, %xmm1                          #80.16
..LN450:
        vmovsd    440(%rsp), %xmm0                              #80.16
..LN451:
        call      fmin                                          #80.16
..LN452:
                                # LOE rbx r12 r13 r14 r15b xmm0
..B1.244:                       # Preds ..B1.104                # Infreq
..LN453:
        vmovsd    %xmm0, 440(%rsp)                              #80.16
..___tag_value_main.88:
..LN454:
	.loc    4  71  is_stmt 1
#       omp_get_wtime()
        call      omp_get_wtime                                 #71.15
..___tag_value_main.89:
..LN455:
                                # LOE rbx r12 r13 r14 r15b xmm0
..B1.105:                       # Preds ..B1.244                # Infreq
..LN456:
        vsubsd    144(%rsp), %xmm0, %xmm1                       #71.33
..LN457:
	.loc    4  70  is_stmt 1
        vmovsd    .L_2il0floatpacket.6(%rip), %xmm0             #70.15
..LN458:
        vcomisd   %xmm1, %xmm0                                  #70.15
..LN459:
        jbe       ..B1.109      # Prob 18%                      #70.15
..LN460:
                                # LOE rbx r12 r13 r14 r15b
..B1.106:                       # Preds ..B1.105                # Infreq
..L90:          # optimization report
                # %s was not vectorized: loop control variable %s was found, but loop iteration count cannot be computed before executing the loop
..LN461:
        cmpq      $1000, %r14                                   #70.31
..LN462:
        jl        ..B1.99       # Prob 50%                      #70.31
..LN463:
        jmp       ..B1.108      # Prob 100%                     #70.31
..LN464:
                                # LOE rbx r12 r13 r14 r15b
..B1.109:                       # Preds ..B1.100 ..B1.105       # Infreq
..LN465:
        movq      288(%rsp), %r15                               #
..LN466:
        movq      280(%rsp), %r14                               #
..LN467:
        movq      272(%rsp), %r13                               #
..LN468:
                                # LOE rbx r12 r13 r14 r15 r13d r14d r15d r13b r14b r15b
..B1.110:                       # Preds ..B1.109                # Infreq
..LN469:
	.loc    1  337  is_stmt 1
        vmovsd    440(%rsp), %xmm0                              #337.5
..LN470:
        movl      $.L_2__STRING.12, %edi                        #337.5
..LN471:
        movl      $1, %eax                                      #337.5
..___tag_value_main.91:
..LN472:
#       printf(const char *, ...)
        call      printf                                        #337.5
..___tag_value_main.92:
..LN473:
                                # LOE rbx r12 r13 r14 r15 r13d r14d r15d r13b r14b r15b
..B1.111:                       # Preds ..B1.110                # Infreq
..LN474:
	.loc    1  338  is_stmt 1
        movq      %r13, %rdi                                    #338.16
..LN475:
        lea       400(%rsp), %rsi                               #338.16
..LN476:
        movq      %r14, %rdx                                    #338.16
..___tag_value_main.93:
..LN477:
#       mic::copytohost(long, float **, float *)
        call      _ZN3mic10copytohostElPPfS0_                   #338.16
..___tag_value_main.94:
..LN478:
                                # LOE rbx r12 r13 r14 r15 r13d r14d r15d r13b r14b r15b
..B1.112:                       # Preds ..B1.111                # Infreq
..LN479:
	.loc    1  272  is_stmt 1
        xorl      %eax, %eax                                    #272.5
..LN480:
        testq     %r15, %r15                                    #272.28
..LN481:
	.loc    1  270  is_stmt 1
        vxorpd    %xmm1, %xmm1, %xmm1                           #270.16
..LN482:
	.loc    1  272  is_stmt 1
        jle       ..B1.119      # Prob 9%                       #272.28
..LN483:
                                # LOE rax rbx r12 r13 r14 r15 r13d r14d r15d r13b r14b r15b xmm1
..B1.113:                       # Preds ..B1.112                # Infreq
..LN484:
	.loc    1  274  is_stmt 1
        vmovss    .L_2il0floatpacket.4(%rip), %xmm0             #274.65
..LN485:
                                # LOE rax rbx r12 r13 r14 r15 xmm0 xmm1
..B1.114:                       # Preds ..B1.117 ..B1.113       # Infreq
..L95:          # optimization report
                # %s was not vectorized: novector directive used
                # VECTOR TRIP COUNT IS ESTIMATED CONSTANT
..LN486:
        movl      (%r14,%rax,4), %ecx                           #274.20
..LN487:
        cmpl      $10000, %ecx                                  #274.32
..LN488:
        je        ..B1.116      # Prob 16%                      #274.32
..LN489:
                                # LOE rax rbx r12 r13 r14 r15 ecx xmm0 xmm1
..B1.115:                       # Preds ..B1.114                # Infreq
..LN490:
        vxorps    %xmm2, %xmm2, %xmm2                           #274.54
..LN491:
        vcvtsi2ss %ecx, %xmm2, %xmm2                            #274.54
..LN492:
        vdivss    %xmm0, %xmm2, %xmm3                           #274.65
..LN493:
        vcvtss2sd %xmm3, %xmm3, %xmm3                           #274.32
..LN494:
        jmp       ..B1.117      # Prob 100%                     #274.32
..LN495:
                                # LOE rax rbx r12 r13 r14 r15 xmm0 xmm1 xmm3
..B1.116:                       # Preds ..B1.114                # Infreq
..LN496:
        vxorpd    %xmm3, %xmm3, %xmm3                           #274.32
..LN497:
                                # LOE rax rbx r12 r13 r14 r15 xmm0 xmm1 xmm3
..B1.117:                       # Preds ..B1.116 ..B1.115       # Infreq
..LN498:
	.loc    1  275  is_stmt 1
        vmulsd    %xmm3, %xmm3, %xmm2                           #275.18
..LN499:
	.loc    1  272  is_stmt 1
        incq      %rax                                          #272.5
..LN500:
	.loc    1  275  is_stmt 1
        vaddsd    %xmm2, %xmm1, %xmm1                           #275.9
..LN501:
	.loc    1  272  is_stmt 1
        cmpq      %r15, %rax                                    #272.5
..LN502:
        jb        ..B1.114      # Prob 82%                      #272.5
..LN503:
                                # LOE rax rbx r12 r13 r14 r15 xmm0 xmm1
..B1.119:                       # Preds ..B1.117 ..B1.112       # Infreq
..LN504:
	.loc    1  339  is_stmt 1
        vsqrtsd   %xmm1, %xmm1, %xmm1                           #339.16
..LN505:
        vcvtsd2ss %xmm1, %xmm1, %xmm1                           #339.16
..LN506:
        vcvtss2sd %xmm1, %xmm1, %xmm1                           #339.16
..LN507:
        movl      $.L_2__STRING.11, %edi                        #339.16
..LN508:
        movl      $1, %eax                                      #339.16
..LN509:
        vmovapd   %xmm1, %xmm0                                  #339.16
..___tag_value_main.96:
..LN510:
#       printf(const char *, ...)
        call      printf                                        #339.16
..___tag_value_main.97:
..LN511:
                                # LOE rbx r12 r13 r14 r15
..B1.120:                       # Preds ..B1.119                # Infreq
..LN512:
	.loc    1  290  is_stmt 1
        testq     %r15, %r15                                    #290.29
..LN513:
        jle       ..B1.139      # Prob 50%                      #290.29
..LN514:
                                # LOE rbx r12 r13 r14 r15
..B1.121:                       # Preds ..B1.120                # Infreq
..LN515:
        cmpq      $4, %r15                                      #290.5
..LN516:
        jl        ..B1.209      # Prob 10%                      #290.5
..LN517:
                                # LOE rbx r12 r13 r14 r15
..B1.122:                       # Preds ..B1.121                # Infreq
..LN518:
        movq      %r14, %rax                                    #290.5
..LN519:
        andq      $15, %rax                                     #290.5
..LN520:
        je        ..B1.125      # Prob 50%                      #290.5
..LN521:
                                # LOE rax rbx r12 r13 r14 r15
..B1.123:                       # Preds ..B1.122                # Infreq
..LN522:
        testq     $3, %rax                                      #290.5
..LN523:
        jne       ..B1.209      # Prob 10%                      #290.5
..LN524:
                                # LOE rax rbx r12 r13 r14 r15
..B1.124:                       # Preds ..B1.123                # Infreq
..LN525:
        negq      %rax                                          #290.5
..LN526:
        addq      $16, %rax                                     #290.5
..LN527:
        shrq      $2, %rax                                      #290.5
..LN528:
                                # LOE rax rbx r12 r13 r14 r15
..B1.125:                       # Preds ..B1.124 ..B1.122       # Infreq
..LN529:
        lea       4(%rax), %rcx                                 #290.5
..LN530:
        cmpq      %rcx, %r15                                    #290.5
..LN531:
        jl        ..B1.209      # Prob 10%                      #290.5
..LN532:
                                # LOE rax rbx r12 r13 r14 r15
..B1.126:                       # Preds ..B1.125                # Infreq
..LN533:
        movq      %r15, %rcx                                    #290.5
..LN534:
        xorl      %r10d, %r10d                                  #290.5
..LN535:
        subq      %rax, %rcx                                    #290.5
..LN536:
        xorl      %r9d, %r9d                                    #290.5
..LN537:
        andq      $3, %rcx                                      #290.5
..LN538:
        xorl      %r8d, %r8d                                    #290.5
..LN539:
        negq      %rcx                                          #290.5
..LN540:
        addq      %r15, %rcx                                    #290.5
..LN541:
        testq     %rax, %rax                                    #290.5
..LN542:
        jbe       ..B1.130      # Prob 9%                       #290.5
..LN543:
                                # LOE rax rcx rbx r8 r12 r13 r14 r15 r9d r10d
..B1.128:                       # Preds ..B1.126 ..B1.128       # Infreq
..L98:          # optimization report
                # PEELED LOOP FOR VECTORIZATION
..LN544:
        incl      %r10d                                         #290.5
..LN545:
	.loc    1  291  is_stmt 1
        movl      (%r14,%r8,4), %r11d                           #291.20
..LN546:
	.loc    1  290  is_stmt 1
        cmpl      $10000, %r11d                                 #290.5
..LN547:
        cmove     %r9d, %r11d                                   #290.5
..LN548:
	.loc    1  291  is_stmt 1
        movl      %r11d, (%r14,%r8,4)                           #291.9
..LN549:
	.loc    1  290  is_stmt 1
        incq      %r8                                           #290.5
..LN550:
        cmpq      %rax, %r10                                    #290.5
..LN551:
        jb        ..B1.128      # Prob 82%                      #290.5
..LN552:
                                # LOE rax rcx rbx r8 r12 r13 r14 r15 r9d r10d
..B1.130:                       # Preds ..B1.128 ..B1.126       # Infreq
..LN553:
	.loc    1  291  is_stmt 1
        vmovdqu   .L_2il0floatpacket.5(%rip), %xmm0             #291.32
..LN554:
	.loc    1  290  is_stmt 1
        movl      %eax, %r8d                                    #290.5
..LN555:
                                # LOE rax rcx rbx r12 r13 r14 r15 r8d xmm0
..B1.131:                       # Preds ..B1.131 ..B1.130       # Infreq
..L99:          # optimization report
                # LOOP WAS UNROLLED BY 1
                # LOOP WAS VECTORIZED
                # VECTORIZATION SPEEDUP COEFFECIENT 7.230469
                # VECTOR TRIP COUNT IS ESTIMATED CONSTANT
                # VECTOR LENGTH 4
                # NORMALIZED VECTORIZATION OVERHEAD 1.000000
..LN556:
        addl      $4, %r8d                                      #290.5
..LN557:
	.loc    1  291  is_stmt 1
        vmovdqu   (%r14,%rax,4), %xmm2                          #291.9
..LN558:
        vpcmpeqd  %xmm2, %xmm0, %xmm1                           #291.32
..LN559:
        vpandn    %xmm2, %xmm1, %xmm3                           #291.9
..LN560:
        vmovdqu   %xmm3, (%r14,%rax,4)                          #291.9
..LN561:
	.loc    1  290  is_stmt 1
        addq      $4, %rax                                      #290.5
..LN562:
        cmpq      %rcx, %r8                                     #290.5
..LN563:
        jb        ..B1.131      # Prob 82%                      #290.5
..LN564:
                                # LOE rax rcx rbx r12 r13 r14 r15 r8d xmm0
..B1.133:                       # Preds ..B1.131 ..B1.209       # Infreq
..LN565:
        movslq    %ecx, %rax                                    #290.5
..LN566:
        movl      %ecx, %r8d                                    #290.5
..LN567:
        movl      %ecx, %ecx                                    #290.5
..LN568:
        cmpq      %r15, %rcx                                    #290.5
..LN569:
        jae       ..B1.139      # Prob 9%                       #290.5
..LN570:
                                # LOE rax rbx r12 r13 r14 r15 r8d
..B1.135:                       # Preds ..B1.133 ..B1.137       # Infreq
..L100:         # optimization report
                # REMAINDER LOOP FOR VECTORIZATION
..LN571:
	.loc    1  291  is_stmt 1
        cmpl      $10000, (%r14,%rax,4)                         #291.32
..LN572:
        jne       ..B1.137      # Prob 84%                      #291.32
..LN573:
                                # LOE rax rbx r12 r13 r14 r15 r8d
..B1.136:                       # Preds ..B1.135                # Infreq
..LN574:
        movl      $0, (%r14,%rax,4)                             #291.9
..LN575:
                                # LOE rax rbx r12 r13 r14 r15 r8d
..B1.137:                       # Preds ..B1.135 ..B1.136       # Infreq
..LN576:
	.loc    1  290  is_stmt 1
        incl      %r8d                                          #290.5
..LN577:
        incq      %rax                                          #290.5
..LN578:
        cmpq      %r15, %r8                                     #290.5
..LN579:
        jb        ..B1.135      # Prob 82%                      #290.5
..LN580:
                                # LOE rax rbx r12 r13 r14 r15 r8d
..B1.139:                       # Preds ..B1.137 ..B1.120 ..B1.133 # Infreq
..LN581:
	.loc    1  293  is_stmt 1
        movl      $.L_2__STRING.7, %esi                         #293.5
..LN582:
        lea       144(%rsp), %rdi                               #293.5
..LN583:
        movl      $1, %edx                                      #293.5
..LN584:
        xorl      %eax, %eax                                    #293.5
..LN585:
#       sprintf(char *, const char *, ...)
        call      sprintf                                       #293.5
..LN586:
                                # LOE rbx r12 r13 r14 r15
..B1.140:                       # Preds ..B1.139                # Infreq
..LN587:
	.loc    1  294  is_stmt 1
        movq      %r14, %rsi                                    #294.5
..LN588:
        lea       144(%rsp), %rdi                               #294.5
..LN589:
        movl      272(%rdi), %edx                               #294.5
..LN590:
        movl      264(%rdi), %ecx                               #294.5
..___tag_value_main.101:
..LN591:
#       writepng(char *, int *, int, int)
        call      writepng                                      #294.5
..___tag_value_main.102:
..LN592:
                                # LOE rbx r12 r13 r14 r15
..B1.141:                       # Preds ..B1.140                # Infreq
..LN593:
	.loc    4  67  is_stmt 1
        movq      $0, (%rsp)                                    #67.12
..___tag_value_main.103:
..LN594:
	.loc    4  69  is_stmt 1
#       omp_get_wtime()
        call      omp_get_wtime                                 #69.22
..___tag_value_main.104:
..LN595:
                                # LOE rbx r12 r13 r14 r15 xmm0
..B1.245:                       # Preds ..B1.141                # Infreq
..LN596:
        movq      %r13, 272(%rsp)                               #69.22
..LN597:
        vmovsd    %xmm0, 8(%rsp)                                #69.22
..LN598:
        movq      %r15, 288(%rsp)                               #69.22
..LN599:
        movb      $1, %r15b                                     #69.22
..LN600:
        movq      (%rsp), %r13                                  #69.22
..LN601:
                                # LOE rbx r12 r13 r14 r15b
..B1.142:                       # Preds ..B1.149 ..B1.245       # Infreq
..LN602:
	.loc    4  70  is_stmt 1
        movb      %r15b, %al                                    #70.31
..LN603:
        jmp       ..B1.143      # Prob 100%                     #70.31
..LN604:
                                # LOE rbx r12 r13 r14 al r15b
..B1.151:                       # Preds ..B1.149                # Infreq
..LN605:
        xorb      %al, %al                                      #70.31
..LN606:
                                # LOE rbx r12 r13 r14 al r15b
..B1.143:                       # Preds ..B1.142 ..B1.151       # Infreq
..LN607:
        incq      %r13                                          #70.24
..LN608:
        testb     %al, %al                                      #70.31
..LN609:
        je        ..B1.152      # Prob 20%                      #70.31
..LN610:
                                # LOE rbx r12 r13 r14 r15b
..B1.144:                       # Preds ..B1.143                # Infreq
..___tag_value_main.105:
..LN611:
	.loc    4  74  is_stmt 1
#       omp_get_wtime()
        call      omp_get_wtime                                 #74.14
..___tag_value_main.106:
..LN612:
                                # LOE rbx r12 r13 r14 r15b
..B1.145:                       # Preds ..B1.144                # Infreq
..LN613:
	.loc    4  76  is_stmt 1
        movq      %r14, %rdi                                    #76.9
..LN614:
        movq      %r12, %rsi                                    #76.9
..LN615:
        movq      %rbx, %rdx                                    #76.9
..___tag_value_main.107:
..LN616:
#       init(float *, long, long)
        call      _Z4initPfll                                   #76.9
..___tag_value_main.108:
..LN617:
                                # LOE rbx r12 r13 r14 r15b
..B1.146:                       # Preds ..B1.145                # Infreq
..___tag_value_main.109:
..LN618:
	.loc    4  77  is_stmt 1
#       omp_get_wtime()
        call      omp_get_wtime                                 #77.14
..___tag_value_main.110:
..LN619:
                                # LOE rbx r12 r13 r14 r15b
..B1.147:                       # Preds ..B1.146                # Infreq
..___tag_value_main.111:
..LN620:
	.loc    4  71  is_stmt 1
#       omp_get_wtime()
        call      omp_get_wtime                                 #71.15
..___tag_value_main.112:
..LN621:
                                # LOE rbx r12 r13 r14 r15b xmm0
..B1.148:                       # Preds ..B1.147                # Infreq
..LN622:
        vsubsd    8(%rsp), %xmm0, %xmm1                         #71.33
..LN623:
	.loc    4  70  is_stmt 1
        vmovsd    .L_2il0floatpacket.6(%rip), %xmm0             #70.15
..LN624:
        vcomisd   %xmm1, %xmm0                                  #70.15
..LN625:
        jbe       ..B1.152      # Prob 18%                      #70.15
..LN626:
                                # LOE rbx r12 r13 r14 r15b
..B1.149:                       # Preds ..B1.148                # Infreq
..L113:         # optimization report
                # %s was not vectorized: loop control variable %s was found, but loop iteration count cannot be computed before executing the loop
..LN627:
        testq     %r13, %r13                                    #70.31
..LN628:
        jle       ..B1.142      # Prob 50%                      #70.31
..LN629:
        jmp       ..B1.151      # Prob 100%                     #70.31
..LN630:
                                # LOE rbx r12 r13 r14 r15b
..B1.152:                       # Preds ..B1.143 ..B1.148       # Infreq
..LN631:
        movq      288(%rsp), %r15                               #
..LN632:
        movq      272(%rsp), %r13                               #
..LN633:
                                # LOE rbx r12 r13 r14 r15 r13d r15d r13b r15b
..B1.153:                       # Preds ..B1.152                # Infreq
..LN634:
	.loc    1  342  is_stmt 1
        movq      400(%rsp), %rax                               #342.35
..LN635:
        movq      %rax, 8(%rsp)                                 #342.35
..LN636:
	.loc    4  67  is_stmt 1
        movq      $0, (%rsp)                                    #67.12
..___tag_value_main.114:
..LN637:
	.loc    4  69  is_stmt 1
#       omp_get_wtime()
        call      omp_get_wtime                                 #69.22
..___tag_value_main.115:
..LN638:
                                # LOE rbx r12 r13 r14 r15 r13d r15d r13b r15b xmm0
..B1.247:                       # Preds ..B1.153                # Infreq
..LN639:
        movq      %r14, 280(%rsp)                               #69.22
..LN640:
        movq      %r13, 272(%rsp)                               #69.22
..LN641:
        vmovsd    %xmm0, 304(%rsp)                              #69.22
..LN642:
        movq      %r15, 288(%rsp)                               #69.22
..LN643:
        movb      $1, %r15b                                     #69.22
..LN644:
        movq      (%rsp), %r14                                  #69.22
..LN645:
        movq      8(%rsp), %r13                                 #69.22
..LN646:
                                # LOE rbx r12 r13 r14 r15b
..B1.154:                       # Preds ..B1.161 ..B1.247       # Infreq
..LN647:
	.loc    4  70  is_stmt 1
        movb      %r15b, %al                                    #70.31
..LN648:
        jmp       ..B1.155      # Prob 100%                     #70.31
..LN649:
                                # LOE rbx r12 r13 r14 al r15b
..B1.163:                       # Preds ..B1.161                # Infreq
..LN650:
        xorb      %al, %al                                      #70.31
..LN651:
                                # LOE rbx r12 r13 r14 al r15b
..B1.155:                       # Preds ..B1.154 ..B1.163       # Infreq
..LN652:
        incq      %r14                                          #70.24
..LN653:
        testb     %al, %al                                      #70.31
..LN654:
        je        ..B1.164      # Prob 20%                      #70.31
..LN655:
                                # LOE rbx r12 r13 r14 r15b
..B1.156:                       # Preds ..B1.155                # Infreq
..___tag_value_main.116:
..LN656:
	.loc    4  74  is_stmt 1
#       omp_get_wtime()
        call      omp_get_wtime                                 #74.14
..___tag_value_main.117:
..LN657:
                                # LOE rbx r12 r13 r14 r15b xmm0
..B1.248:                       # Preds ..B1.156                # Infreq
..LN658:
        vmovsd    %xmm0, (%rsp)                                 #74.14
..LN659:
                                # LOE rbx r12 r13 r14 r15b
..B1.157:                       # Preds ..B1.248                # Infreq
..LN660:
	.loc    4  76  is_stmt 1
        movq      %r13, %rdi                                    #76.9
..LN661:
        movq      %r12, %rsi                                    #76.9
..LN662:
        movq      %rbx, %rdx                                    #76.9
..___tag_value_main.118:
..LN663:
#       intrinsic(float *, long, long)
        call      _Z9intrinsicPfll                              #76.9
..___tag_value_main.119:
..LN664:
                                # LOE rbx r12 r13 r14 r15b
..B1.158:                       # Preds ..B1.157                # Infreq
..___tag_value_main.120:
..LN665:
	.loc    4  77  is_stmt 1
#       omp_get_wtime()
        call      omp_get_wtime                                 #77.14
..___tag_value_main.121:
..LN666:
                                # LOE rbx r12 r13 r14 r15b xmm0
..B1.159:                       # Preds ..B1.158                # Infreq
..LN667:
	.loc    4  80  is_stmt 1
        vsubsd    (%rsp), %xmm0, %xmm1                          #80.16
..LN668:
        vmovsd    424(%rsp), %xmm0                              #80.16
..LN669:
        call      fmin                                          #80.16
..LN670:
                                # LOE rbx r12 r13 r14 r15b xmm0
..B1.251:                       # Preds ..B1.159                # Infreq
..LN671:
        vmovsd    %xmm0, 424(%rsp)                              #80.16
..___tag_value_main.122:
..LN672:
	.loc    4  71  is_stmt 1
#       omp_get_wtime()
        call      omp_get_wtime                                 #71.15
..___tag_value_main.123:
..LN673:
                                # LOE rbx r12 r13 r14 r15b xmm0
..B1.160:                       # Preds ..B1.251                # Infreq
..LN674:
        vsubsd    304(%rsp), %xmm0, %xmm1                       #71.33
..LN675:
	.loc    4  70  is_stmt 1
        vmovsd    .L_2il0floatpacket.6(%rip), %xmm0             #70.15
..LN676:
        vcomisd   %xmm1, %xmm0                                  #70.15
..LN677:
        jbe       ..B1.164      # Prob 18%                      #70.15
..LN678:
                                # LOE rbx r12 r13 r14 r15b
..B1.161:                       # Preds ..B1.160                # Infreq
..L124:         # optimization report
                # %s was not vectorized: loop control variable %s was found, but loop iteration count cannot be computed before executing the loop
..LN679:
        cmpq      $1000, %r14                                   #70.31
..LN680:
        jl        ..B1.154      # Prob 50%                      #70.31
..LN681:
        jmp       ..B1.163      # Prob 100%                     #70.31
..LN682:
                                # LOE rbx r12 r13 r14 r15b
..B1.164:                       # Preds ..B1.155 ..B1.160       # Infreq
..LN683:
        movq      288(%rsp), %r15                               #
..LN684:
        movq      280(%rsp), %r14                               #
..LN685:
        movq      272(%rsp), %r13                               #
..LN686:
                                # LOE r13 r14 r15 r13d r14d r15d r13b r14b r15b
..B1.165:                       # Preds ..B1.164                # Infreq
..LN687:
	.loc    1  343  is_stmt 1
        vmovsd    424(%rsp), %xmm0                              #343.5
..LN688:
        movl      $.L_2__STRING.13, %edi                        #343.5
..LN689:
        movl      $1, %eax                                      #343.5
..___tag_value_main.125:
..LN690:
#       printf(const char *, ...)
        call      printf                                        #343.5
..___tag_value_main.126:
..LN691:
                                # LOE r13 r14 r15 r13d r14d r15d r13b r14b r15b
..B1.166:                       # Preds ..B1.165                # Infreq
..LN692:
	.loc    1  344  is_stmt 1
        movq      %r13, %rdi                                    #344.16
..LN693:
        lea       400(%rsp), %rsi                               #344.16
..LN694:
        movq      %r14, %rdx                                    #344.16
..___tag_value_main.127:
..LN695:
#       mic::copytohost(long, float **, float *)
        call      _ZN3mic10copytohostElPPfS0_                   #344.16
..___tag_value_main.128:
..LN696:
                                # LOE r14 r15 r14d r15d r14b r15b
..B1.167:                       # Preds ..B1.166                # Infreq
..LN697:
	.loc    1  272  is_stmt 1
        xorl      %eax, %eax                                    #272.5
..LN698:
        testq     %r15, %r15                                    #272.28
..LN699:
        jle       ..B1.174      # Prob 9%                       #272.28
..LN700:
                                # LOE rax r14 r15 r14d r15d r14b r15b
..B1.168:                       # Preds ..B1.167                # Infreq
..LN701:
	.loc    1  274  is_stmt 1
        vmovss    .L_2il0floatpacket.4(%rip), %xmm0             #274.65
..LN702:
        vmovsd    296(%rsp), %xmm3                              #274.65
..LN703:
                                # LOE rax r14 r15 xmm0 xmm3
..B1.169:                       # Preds ..B1.172 ..B1.168       # Infreq
..L129:         # optimization report
                # %s was not vectorized: novector directive used
                # VECTOR TRIP COUNT IS ESTIMATED CONSTANT
..LN704:
        movl      (%r14,%rax,4), %ecx                           #274.20
..LN705:
        cmpl      $10000, %ecx                                  #274.32
..LN706:
        je        ..B1.171      # Prob 16%                      #274.32
..LN707:
                                # LOE rax r14 r15 ecx xmm0 xmm3
..B1.170:                       # Preds ..B1.169                # Infreq
..LN708:
        vxorps    %xmm1, %xmm1, %xmm1                           #274.54
..LN709:
        vcvtsi2ss %ecx, %xmm1, %xmm1                            #274.54
..LN710:
        vdivss    %xmm0, %xmm1, %xmm2                           #274.65
..LN711:
        vcvtss2sd %xmm2, %xmm2, %xmm2                           #274.32
..LN712:
        jmp       ..B1.172      # Prob 100%                     #274.32
..LN713:
                                # LOE rax r14 r15 xmm0 xmm2 xmm3
..B1.171:                       # Preds ..B1.169                # Infreq
..LN714:
        vxorpd    %xmm2, %xmm2, %xmm2                           #274.32
..LN715:
                                # LOE rax r14 r15 xmm0 xmm2 xmm3
..B1.172:                       # Preds ..B1.171 ..B1.170       # Infreq
..LN716:
	.loc    1  275  is_stmt 1
        vmulsd    %xmm2, %xmm2, %xmm1                           #275.18
..LN717:
	.loc    1  272  is_stmt 1
        incq      %rax                                          #272.5
..LN718:
	.loc    1  275  is_stmt 1
        vaddsd    %xmm1, %xmm3, %xmm3                           #275.9
..LN719:
	.loc    1  272  is_stmt 1
        cmpq      %r15, %rax                                    #272.5
..LN720:
        jb        ..B1.169      # Prob 82%                      #272.5
..LN721:
                                # LOE rax r14 r15 xmm0 xmm3
..B1.173:                       # Preds ..B1.172                # Infreq
..LN722:
        vmovsd    %xmm3, 296(%rsp)                              #
..LN723:
                                # LOE r14 r15
..B1.174:                       # Preds ..B1.173 ..B1.167       # Infreq
..LN724:
	.loc    1  345  is_stmt 1
        vmovsd    296(%rsp), %xmm0                              #345.16
..LN725:
        movl      $.L_2__STRING.11, %edi                        #345.16
..LN726:
        vsqrtsd   %xmm0, %xmm0, %xmm0                           #345.16
..LN727:
        vcvtsd2ss %xmm0, %xmm0, %xmm0                           #345.16
..LN728:
        vcvtss2sd %xmm0, %xmm0, %xmm0                           #345.16
..LN729:
        movl      $1, %eax                                      #345.16
..___tag_value_main.130:
..LN730:
#       printf(const char *, ...)
        call      printf                                        #345.16
..___tag_value_main.131:
..LN731:
                                # LOE r14 r15
..B1.175:                       # Preds ..B1.174                # Infreq
..LN732:
	.loc    1  290  is_stmt 1
        testq     %r15, %r15                                    #290.29
..LN733:
        jle       ..B1.194      # Prob 50%                      #290.29
..LN734:
                                # LOE r14 r15
..B1.176:                       # Preds ..B1.175                # Infreq
..LN735:
        cmpq      $4, %r15                                      #290.5
..LN736:
        jl        ..B1.204      # Prob 10%                      #290.5
..LN737:
                                # LOE r14 r15
..B1.177:                       # Preds ..B1.176                # Infreq
..LN738:
        movq      %r14, %r9                                     #290.5
..LN739:
        andq      $15, %r9                                      #290.5
..LN740:
        je        ..B1.180      # Prob 50%                      #290.5
..LN741:
                                # LOE r9 r14 r15
..B1.178:                       # Preds ..B1.177                # Infreq
..LN742:
        testq     $3, %r9                                       #290.5
..LN743:
        jne       ..B1.204      # Prob 10%                      #290.5
..LN744:
                                # LOE r9 r14 r15
..B1.179:                       # Preds ..B1.178                # Infreq
..LN745:
        negq      %r9                                           #290.5
..LN746:
        addq      $16, %r9                                      #290.5
..LN747:
        shrq      $2, %r9                                       #290.5
..LN748:
                                # LOE r9 r14 r15
..B1.180:                       # Preds ..B1.179 ..B1.177       # Infreq
..LN749:
        lea       4(%r9), %rax                                  #290.5
..LN750:
        cmpq      %rax, %r15                                    #290.5
..LN751:
        jl        ..B1.204      # Prob 10%                      #290.5
..LN752:
                                # LOE r9 r14 r15
..B1.181:                       # Preds ..B1.180                # Infreq
..LN753:
        movq      %r15, %rax                                    #290.5
..LN754:
        xorl      %r8d, %r8d                                    #290.5
..LN755:
        subq      %r9, %rax                                     #290.5
..LN756:
        xorl      %ecx, %ecx                                    #290.5
..LN757:
        andq      $3, %rax                                      #290.5
..LN758:
        xorl      %ebx, %ebx                                    #290.5
..LN759:
        negq      %rax                                          #290.5
..LN760:
        addq      %r15, %rax                                    #290.5
..LN761:
        testq     %r9, %r9                                      #290.5
..LN762:
        jbe       ..B1.185      # Prob 9%                       #290.5
..LN763:
                                # LOE rax rcx r9 r14 r15 ebx r8d
..B1.183:                       # Preds ..B1.181 ..B1.183       # Infreq
..L132:         # optimization report
                # PEELED LOOP FOR VECTORIZATION
..LN764:
        incl      %r8d                                          #290.5
..LN765:
	.loc    1  291  is_stmt 1
        movl      (%r14,%rcx,4), %r10d                          #291.20
..LN766:
	.loc    1  290  is_stmt 1
        cmpl      $10000, %r10d                                 #290.5
..LN767:
        cmove     %ebx, %r10d                                   #290.5
..LN768:
	.loc    1  291  is_stmt 1
        movl      %r10d, (%r14,%rcx,4)                          #291.9
..LN769:
	.loc    1  290  is_stmt 1
        incq      %rcx                                          #290.5
..LN770:
        cmpq      %r9, %r8                                      #290.5
..LN771:
        jb        ..B1.183      # Prob 82%                      #290.5
..LN772:
                                # LOE rax rcx r9 r14 r15 ebx r8d
..B1.185:                       # Preds ..B1.183 ..B1.181       # Infreq
..LN773:
	.loc    1  291  is_stmt 1
        vmovdqu   .L_2il0floatpacket.5(%rip), %xmm0             #291.32
..LN774:
	.loc    1  290  is_stmt 1
        movl      %r9d, %ecx                                    #290.5
..LN775:
                                # LOE rax r9 r14 r15 ecx xmm0
..B1.186:                       # Preds ..B1.186 ..B1.185       # Infreq
..L133:         # optimization report
                # LOOP WAS UNROLLED BY 1
                # LOOP WAS VECTORIZED
                # VECTORIZATION SPEEDUP COEFFECIENT 7.230469
                # VECTOR TRIP COUNT IS ESTIMATED CONSTANT
                # VECTOR LENGTH 4
                # NORMALIZED VECTORIZATION OVERHEAD 1.000000
..LN776:
        addl      $4, %ecx                                      #290.5
..LN777:
	.loc    1  291  is_stmt 1
        vmovdqu   (%r14,%r9,4), %xmm2                           #291.9
..LN778:
        vpcmpeqd  %xmm2, %xmm0, %xmm1                           #291.32
..LN779:
        vpandn    %xmm2, %xmm1, %xmm3                           #291.9
..LN780:
        vmovdqu   %xmm3, (%r14,%r9,4)                           #291.9
..LN781:
	.loc    1  290  is_stmt 1
        addq      $4, %r9                                       #290.5
..LN782:
        cmpq      %rax, %rcx                                    #290.5
..LN783:
        jb        ..B1.186      # Prob 82%                      #290.5
..LN784:
                                # LOE rax r9 r14 r15 ecx xmm0
..B1.188:                       # Preds ..B1.186 ..B1.204       # Infreq
..LN785:
        movslq    %eax, %rcx                                    #290.5
..LN786:
        movl      %eax, %ebx                                    #290.5
..LN787:
        movl      %eax, %eax                                    #290.5
..LN788:
        cmpq      %r15, %rax                                    #290.5
..LN789:
        jae       ..B1.194      # Prob 9%                       #290.5
..LN790:
                                # LOE rcx r14 r15 ebx
..B1.190:                       # Preds ..B1.188 ..B1.192       # Infreq
..L134:         # optimization report
                # REMAINDER LOOP FOR VECTORIZATION
..LN791:
	.loc    1  291  is_stmt 1
        cmpl      $10000, (%r14,%rcx,4)                         #291.32
..LN792:
        jne       ..B1.192      # Prob 84%                      #291.32
..LN793:
                                # LOE rcx r14 r15 ebx
..B1.191:                       # Preds ..B1.190                # Infreq
..LN794:
        movl      $0, (%r14,%rcx,4)                             #291.9
..LN795:
                                # LOE rcx r14 r15 ebx
..B1.192:                       # Preds ..B1.190 ..B1.191       # Infreq
..LN796:
	.loc    1  290  is_stmt 1
        incl      %ebx                                          #290.5
..LN797:
        incq      %rcx                                          #290.5
..LN798:
        cmpq      %r15, %rbx                                    #290.5
..LN799:
        jb        ..B1.190      # Prob 82%                      #290.5
..LN800:
                                # LOE rcx r14 r15 ebx
..B1.194:                       # Preds ..B1.192 ..B1.188 ..B1.175 # Infreq
..LN801:
	.loc    1  293  is_stmt 1
        movl      $.L_2__STRING.7, %esi                         #293.5
..LN802:
        lea       272(%rsp), %rdi                               #293.5
..LN803:
        movl      $2, %edx                                      #293.5
..LN804:
        xorl      %eax, %eax                                    #293.5
..LN805:
#       sprintf(char *, const char *, ...)
        call      sprintf                                       #293.5
..LN806:
                                # LOE r14
..B1.195:                       # Preds ..B1.194                # Infreq
..LN807:
	.loc    1  294  is_stmt 1
        movq      %r14, %rsi                                    #294.5
..LN808:
        lea       272(%rsp), %rdi                               #294.5
..LN809:
        movl      144(%rdi), %edx                               #294.5
..LN810:
        movl      136(%rdi), %ecx                               #294.5
..___tag_value_main.135:
..LN811:
#       writepng(char *, int *, int, int)
        call      writepng                                      #294.5
..___tag_value_main.136:
..LN812:
                                # LOE r14
..B1.196:                       # Preds ..B1.195                # Infreq
..LN813:
	.loc    1  349  is_stmt 1
        movl      $il0_peep_printf_format_5, %edi               #349.5
..LN814:
        call      puts                                          #349.5
..LN815:
                                # LOE r14
..B1.197:                       # Preds ..B1.196                # Infreq
..LN816:
	.loc    1  350  is_stmt 1
        vmovsd    432(%rsp), %xmm0                              #350.5
..LN817:
        movl      $.L_2__STRING.14, %edi                        #350.5
..LN818:
        vdivsd    440(%rsp), %xmm0, %xmm0                       #350.5
..LN819:
        movl      $1, %eax                                      #350.5
..___tag_value_main.137:
..LN820:
#       printf(const char *, ...)
        call      printf                                        #350.5
..___tag_value_main.138:
..LN821:
                                # LOE r14
..B1.198:                       # Preds ..B1.197                # Infreq
..LN822:
	.loc    1  351  is_stmt 1
        vmovsd    432(%rsp), %xmm0                              #351.5
..LN823:
        movl      $.L_2__STRING.15, %edi                        #351.5
..LN824:
        vdivsd    424(%rsp), %xmm0, %xmm0                       #351.5
..LN825:
        movl      $1, %eax                                      #351.5
..___tag_value_main.139:
..LN826:
#       printf(const char *, ...)
        call      printf                                        #351.5
..___tag_value_main.140:
..LN827:
                                # LOE r14
..B1.199:                       # Preds ..B1.198                # Infreq
..LN828:
	.loc    1  352  is_stmt 1
        movl      $il0_peep_printf_format_6, %edi               #352.5
..LN829:
        call      puts                                          #352.5
..LN830:
                                # LOE r14
..B1.200:                       # Preds ..B1.199                # Infreq
..LN831:
	.loc    1  355  is_stmt 1
        lea       400(%rsp), %rdi                               #355.5
..___tag_value_main.141:
..LN832:
#       mic::free(float **)
        call      _ZN3mic4freeEPPf                              #355.5
..___tag_value_main.142:
..LN833:
                                # LOE r14
..B1.201:                       # Preds ..B1.200                # Infreq
..LN834:
	.loc    1  356  is_stmt 1
        movq      %r14, %rdi                                    #356.5
..LN835:
#       _mm_free(void *)
        call      _mm_free                                      #356.5
..LN836:
                                # LOE
..B1.202:                       # Preds ..B1.201                # Infreq
..LN837:
	.loc    1  357  is_stmt 1
        movl      $.2.41_2_kmpc_loc_struct_pack.156, %edi       #357.1
..LN838:
        xorl      %eax, %eax                                    #357.1
..___tag_value_main.143:
..LN839:
        call      __kmpc_end                                    #357.1
..___tag_value_main.144:
..LN840:
                                # LOE
..B1.203:                       # Preds ..B1.202                # Infreq
..LN841:
        xorl      %eax, %eax                                    #357.1
..LN842:
	.loc    1  357  epilogue_begin  is_stmt 1
        addq      $472, %rsp                                    #357.1
	.cfi_restore 3
..LN843:
        popq      %rbx                                          #357.1
	.cfi_restore 15
..LN844:
        popq      %r15                                          #357.1
	.cfi_restore 14
..LN845:
        popq      %r14                                          #357.1
	.cfi_restore 13
..LN846:
        popq      %r13                                          #357.1
	.cfi_restore 12
..LN847:
        popq      %r12                                          #357.1
..LN848:
        movq      %rbp, %rsp                                    #357.1
..LN849:
        popq      %rbp                                          #357.1
	.cfi_def_cfa 7, 8
	.cfi_restore 6
..LN850:
        ret                                                     #357.1
	.cfi_def_cfa 6, 16
	.cfi_escape 0x10, 0x03, 0x0e, 0x38, 0x1c, 0x0d, 0x80, 0xff, 0xff, 0xff, 0x1a, 0x0d, 0xd8, 0xff, 0xff, 0xff, 0x22
	.cfi_offset 6, -16
	.cfi_escape 0x10, 0x0c, 0x0e, 0x38, 0x1c, 0x0d, 0x80, 0xff, 0xff, 0xff, 0x1a, 0x0d, 0xf8, 0xff, 0xff, 0xff, 0x22
	.cfi_escape 0x10, 0x0d, 0x0e, 0x38, 0x1c, 0x0d, 0x80, 0xff, 0xff, 0xff, 0x1a, 0x0d, 0xf0, 0xff, 0xff, 0xff, 0x22
	.cfi_escape 0x10, 0x0e, 0x0e, 0x38, 0x1c, 0x0d, 0x80, 0xff, 0xff, 0xff, 0x1a, 0x0d, 0xe8, 0xff, 0xff, 0xff, 0x22
	.cfi_escape 0x10, 0x0f, 0x0e, 0x38, 0x1c, 0x0d, 0x80, 0xff, 0xff, 0xff, 0x1a, 0x0d, 0xe0, 0xff, 0xff, 0xff, 0x22
..LN851:
                                # LOE
..B1.204:                       # Preds ..B1.176 ..B1.178 ..B1.180 # Infreq
..LN852:
	.loc    1  290  is_stmt 1
        xorl      %eax, %eax                                    #290.5
..LN853:
        jmp       ..B1.188      # Prob 100%                     #290.5
..LN854:
                                # LOE rax r14 r15
..B1.209:                       # Preds ..B1.121 ..B1.123 ..B1.125 # Infreq
..LN855:
        xorl      %ecx, %ecx                                    #290.5
..LN856:
        jmp       ..B1.133      # Prob 100%                     #290.5
..LN857:
                                # LOE rcx rbx r12 r13 r14 r15
..B1.214:                       # Preds ..B1.66 ..B1.68 ..B1.70 # Infreq
..LN858:
        xorl      %ecx, %ecx                                    #290.5
..LN859:
        jmp       ..B1.78       # Prob 100%                     #290.5
        .align    16,0x90
	.cfi_endproc
..LN860:
                                # LOE rcx rbx r12 r13 r14 r15
..LN861:
# mark_end;
	.type	main,@function
	.size	main,.-main
..LNmain.862:
.LNmain:
	.data
	.align 4
	.align 4
.2.41_2_kmpc_loc_struct_pack.145:
	.long	0
	.long	2
	.long	0
	.long	0
	.quad	.2.41_2__kmpc_loc_pack.144
	.align 4
.2.41_2__kmpc_loc_pack.144:
	.byte	59
	.byte	117
	.byte	110
	.byte	107
	.byte	110
	.byte	111
	.byte	119
	.byte	110
	.byte	59
	.byte	109
	.byte	97
	.byte	105
	.byte	110
	.byte	59
	.byte	51
	.byte	48
	.byte	55
	.byte	59
	.byte	51
	.byte	48
	.byte	55
	.byte	59
	.byte	59
	.space 1, 0x00 	# pad
	.align 4
.2.41_2_kmpc_loc_struct_pack.156:
	.long	0
	.long	2
	.long	0
	.long	0
	.quad	.2.41_2__kmpc_loc_pack.155
	.align 4
.2.41_2__kmpc_loc_pack.155:
	.byte	59
	.byte	117
	.byte	110
	.byte	107
	.byte	110
	.byte	111
	.byte	119
	.byte	110
	.byte	59
	.byte	109
	.byte	97
	.byte	105
	.byte	110
	.byte	59
	.byte	51
	.byte	53
	.byte	55
	.byte	59
	.byte	51
	.byte	53
	.byte	55
	.byte	59
	.byte	59
	.section .rodata.str1.4, "aMS",@progbits,1
	.align 4
	.align 4
il0_peep_printf_format_0:
	.long	1027423549
	.long	1027423549
	.long	1027423549
	.long	1027423549
	.long	1027423549
	.long	1027423549
	.long	1027423549
	.long	1027423549
	.long	1027423549
	.long	1027423549
	.byte	0
	.space 3, 0x00 	# pad
	.align 4
il0_peep_printf_format_1:
	.long	757935405
	.long	757935405
	.long	757935405
	.long	757935405
	.long	757935405
	.long	757935405
	.long	757935405
	.long	757935405
	.long	757935405
	.long	757935405
	.byte	0
	.space 3, 0x00 	# pad
	.align 4
il0_peep_printf_format_2:
	.long	757935405
	.long	757935405
	.long	757935405
	.long	757935405
	.long	757935405
	.long	757935405
	.long	757935405
	.long	757935405
	.long	757935405
	.long	757935405
	.byte	0
	.space 3, 0x00 	# pad
	.align 4
il0_peep_printf_format_3:
	.long	757935405
	.long	757935405
	.long	757935405
	.long	757935405
	.long	757935405
	.long	757935405
	.long	757935405
	.long	757935405
	.long	757935405
	.long	757935405
	.byte	0
	.space 3, 0x00 	# pad
	.align 4
il0_peep_printf_format_4:
	.long	757935405
	.long	757935405
	.long	757935405
	.long	757935405
	.long	757935405
	.long	757935405
	.long	757935405
	.long	757935405
	.long	757935405
	.long	757935405
	.byte	0
	.space 3, 0x00 	# pad
	.align 4
il0_peep_printf_format_5:
	.long	757935405
	.long	757935405
	.long	757935405
	.long	757935405
	.long	757935405
	.long	757935405
	.long	757935405
	.long	757935405
	.long	757935405
	.long	757935405
	.byte	0
	.space 3, 0x00 	# pad
	.align 4
il0_peep_printf_format_6:
	.long	1027423549
	.long	1027423549
	.long	1027423549
	.long	1027423549
	.long	1027423549
	.long	1027423549
	.long	1027423549
	.long	1027423549
	.long	1027423549
	.long	1027423549
	.byte	0
	.data
	.file   5 "/usr/include/c++/4.4.7/debug/debug.h"
	.file   6 "helper_mic.h"
	.file   7 "/zdata/groups/nfsopt/intel/2016/compilers_and_libraries_2016.0.109/linux/compiler/include/stddef.h"
# -- End  main
	.text
.L_2__routine_start__ZN3mic5allocElPPf_1:
# -- Begin  _ZN3mic5allocElPPf
	.text
# mark_begin;
       .align    16,0x90
	.globl _ZN3mic5allocElPPf
# --- mic::alloc(long, float **)
_ZN3mic5allocElPPf:
# parameter 1(size): %rdi
# parameter 2(mem): %rsi
..B2.1:                         # Preds ..B2.0
	.cfi_startproc
	.cfi_personality 0x3,__gxx_personality_v0
..___tag_value__ZN3mic5allocElPPf.164:
..L165:
                                                        #33.5
..LN863:
	.loc    6  33  is_stmt 1
        subq      $184, %rsp                                    #33.5
	.cfi_def_cfa_offset 192
..LN864:
	.loc    6  34  prologue_end  is_stmt 1
        xorl      %edx, %edx                                    #34.9
..LN865:
	.loc    6  33  is_stmt 1
        movq      %rdi, 160(%rsp)                               #33.5
..LN866:
	.loc    6  34  is_stmt 1
        movl      $2, %edi                                      #34.9
..LN867:
	.loc    6  33  is_stmt 1
        movq      %rsi, 168(%rsp)                               #33.5
..LN868:
	.loc    6  34  is_stmt 1
        movl      $1, %esi                                      #34.9
..LN869:
        xorl      %ecx, %ecx                                    #34.9
..LN870:
        movl      $__sd_2inst_string.1, %r8d                    #34.9
..LN871:
        movl      $34, %r9d                                     #34.9
..LN872:
        xorl      %eax, %eax                                    #34.9
..___tag_value__ZN3mic5allocElPPf.168:
..LN873:
        call      __offload_target_acquire                      #34.9
..___tag_value__ZN3mic5allocElPPf.169:
..LN874:
                                # LOE rax rbx rbp r12 r13 r14 r15
..B2.9:                         # Preds ..B2.1
..LN875:
        movq      %rax, %rdi                                    #34.9
..LN876:
                                # LOE rbx rbp rdi r12 r13 r14 r15
..B2.2:                         # Preds ..B2.9
..LN877:
        testq     %rdi, %rdi                                    #34.9
..LN878:
        je        ..B2.4        # Prob 50%                      #34.9
..LN879:
                                # LOE rbx rbp rdi r12 r13 r14 r15
..B2.3:                         # Preds ..B2.2
..LN880:
        movl      $128, %eax                                    #34.9
..LN881:
        lea       32(%rsp), %r8                                 #34.9
..LN882:
                                # LOE rax rbx rbp rdi r8 r12 r13 r14 r15
..B2.8:                         # Preds ..B2.8 ..B2.3
..LN883:
        lea       -16+.2.42_2__offload_var_desc1_p.26(%rax), %rdx #34.9
..LN884:
        vmovups   (%rdx), %xmm0                                 #34.9
..LN885:
        vmovups   -16(%rdx), %xmm1                              #34.9
..LN886:
        vmovups   -32(%rdx), %xmm2                              #34.9
..LN887:
        vmovups   -48(%rdx), %xmm3                              #34.9
..LN888:
        lea       -16(%r8,%rax), %rcx                           #34.9
..LN889:
        vmovups   %xmm0, (%rcx)                                 #34.9
..LN890:
        vmovups   %xmm1, -16(%rcx)                              #34.9
..LN891:
        vmovups   %xmm2, -32(%rcx)                              #34.9
..LN892:
        vmovups   %xmm3, -48(%rcx)                              #34.9
..LN893:
        subq      $64, %rax                                     #34.9
..LN894:
        jne       ..B2.8        # Prob 50%                      #34.9
..LN895:
                                # LOE rax rbx rbp rdi r8 r12 r13 r14 r15
..B2.7:                         # Preds ..B2.8
..LN896:
        movq      $1, 128(%rsp)                                 #34.9
..LN897:
        lea       168(%rsp), %r10                               #34.9
..LN898:
        movq      %r10, -16(%r10)                               #34.9
..LN899:
        lea       (%rsp), %r9                                   #34.9
..LN900:
        xorl      %r11d, %r11d                                  #34.9
..LN901:
        lea       160(%r9), %rax                                #34.9
..LN902:
        addq      $-32, %rsp                                    #34.9
	.cfi_def_cfa_offset 224
..LN903:
        movl      $__sd_2inst_string.2, %esi                    #34.9
..LN904:
        vmovups   .2.42_2__offload_var_desc2_p.31(%rip), %xmm0  #34.9
..LN905:
        xorl      %edx, %edx                                    #34.9
..LN906:
        vmovups   16+.2.42_2__offload_var_desc2_p.31(%rip), %xmm1 #34.9
..LN907:
        movl      $2, %ecx                                      #34.9
..LN908:
        movq      %rax, 56(%r8)                                 #34.9
..LN909:
        xorl      %eax, %eax                                    #34.9
..LN910:
        movq      %r11, (%rsp)                                  #34.9
..LN911:
        movq      %r11, 8(%rsp)                                 #34.9
..LN912:
        vmovups   %xmm0, (%r9)                                  #34.9
..LN913:
        vmovups   %xmm1, 16(%r9)                                #34.9
..LN914:
        movq      %r11, 16(%rsp)                                #34.9
..___tag_value__ZN3mic5allocElPPf.171:
..LN915:
        call      __offload_offload1                            #34.9
..___tag_value__ZN3mic5allocElPPf.172:
..LN916:
                                # LOE rbx rbp r12 r13 r14 r15
..B2.10:                        # Preds ..B2.7
..LN917:
        addq      $32, %rsp                                     #34.9
	.cfi_def_cfa_offset 192
..LN918:
                                # LOE rbx rbp r12 r13 r14 r15
..B2.4:                         # Preds ..B2.2 ..B2.10
..LN919:
	.loc    6  38  epilogue_begin  is_stmt 1
        addq      $184, %rsp                                    #38.5
	.cfi_def_cfa_offset 8
..LN920:
        ret                                                     #38.5
        .align    16,0x90
	.cfi_endproc
..LN921:
                                # LOE
..LN922:
# mark_end;
	.type	_ZN3mic5allocElPPf,@function
	.size	_ZN3mic5allocElPPf,.-_ZN3mic5allocElPPf
..LN_ZN3mic5allocElPPf.923:
.LN_ZN3mic5allocElPPf:
	.data
	.space 1, 0x00 	# pad
	.align 16
.2.42_2__offload_var_desc1_p.26:
	.byte	17
	.byte	1
	.byte	1
	.byte	1
	.long	8
	.long	0
	.long	0
	.long	0x00000000,0x00000000
	.long	0x00000008,0x00000000
	.long	0x00000001,0x00000000
	.long	0x00000000,0x00000000
	.long	0x00000000,0x00000000
	.long	0x00000000,0x00000000
	.byte	34
	.byte	2
	.byte	1
	.byte	1
	.long	8
	.long	0
	.long	0
	.long	0x00000000,0x00000000
	.long	0x00000008,0x00000000
	.long	0x00000001,0x00000000
	.long	0x00000000,0x00000000
	.long	0x00000000,0x00000000
	.long	0x00000000,0x00000000
	.align 16
.2.42_2__offload_var_desc2_p.31:
	.quad	__sd_2inst_string.3
	.long	0x00000000,0x00000000
	.quad	__sd_2inst_string.4
	.long	0x00000000,0x00000000
	.section .rodata, "a"
	.align 16
	.align 4
__sd_2inst_string.0:
	.byte	95
	.byte	95
	.byte	111
	.byte	102
	.byte	102
	.byte	108
	.byte	111
	.byte	97
	.byte	100
	.byte	95
	.byte	101
	.byte	110
	.byte	116
	.byte	114
	.byte	121
	.byte	95
	.byte	104
	.byte	101
	.byte	108
	.byte	112
	.byte	101
	.byte	114
	.byte	95
	.byte	109
	.byte	105
	.byte	99
	.byte	95
	.byte	104
	.byte	95
	.byte	51
	.byte	52
	.byte	97
	.byte	108
	.byte	108
	.byte	111
	.byte	99
	.byte	95
	.byte	54
	.byte	101
	.byte	53
	.byte	50
	.byte	57
	.byte	52
	.byte	53
	.byte	100
	.byte	51
	.byte	99
	.byte	53
	.byte	51
	.byte	57
	.byte	101
	.byte	51
	.byte	98
	.byte	53
	.byte	53
	.byte	51
	.byte	52
	.byte	57
	.byte	99
	.byte	98
	.byte	48
	.byte	98
	.byte	101
	.byte	49
	.byte	56
	.byte	98
	.byte	49
	.byte	55
	.byte	56
	.byte	105
	.byte	99
	.byte	99
	.byte	48
	.byte	49
	.byte	48
	.byte	57
	.byte	51
	.byte	53
	.byte	52
	.byte	51
	.byte	57
	.byte	48
	.byte	51
	.byte	55
	.byte	80
	.byte	82
	.byte	106
	.byte	100
	.byte	107
	.byte	78
	.byte	0
	.space 1, 0x00 	# pad
	.align 4
__sd_2inst_string.1:
	.byte	104
	.byte	101
	.byte	108
	.byte	112
	.byte	101
	.byte	114
	.byte	95
	.byte	109
	.byte	105
	.byte	99
	.byte	46
	.byte	104
	.byte	0
	.space 3, 0x00 	# pad
	.align 4
__sd_2inst_string.2:
	.byte	95
	.byte	95
	.byte	111
	.byte	102
	.byte	102
	.byte	108
	.byte	111
	.byte	97
	.byte	100
	.byte	95
	.byte	101
	.byte	110
	.byte	116
	.byte	114
	.byte	121
	.byte	95
	.byte	104
	.byte	101
	.byte	108
	.byte	112
	.byte	101
	.byte	114
	.byte	95
	.byte	109
	.byte	105
	.byte	99
	.byte	95
	.byte	104
	.byte	95
	.byte	51
	.byte	52
	.byte	97
	.byte	108
	.byte	108
	.byte	111
	.byte	99
	.byte	95
	.byte	54
	.byte	101
	.byte	53
	.byte	50
	.byte	57
	.byte	52
	.byte	53
	.byte	100
	.byte	51
	.byte	99
	.byte	53
	.byte	51
	.byte	57
	.byte	101
	.byte	51
	.byte	98
	.byte	53
	.byte	53
	.byte	51
	.byte	52
	.byte	57
	.byte	99
	.byte	98
	.byte	48
	.byte	98
	.byte	101
	.byte	49
	.byte	56
	.byte	98
	.byte	49
	.byte	55
	.byte	56
	.byte	105
	.byte	99
	.byte	99
	.byte	48
	.byte	49
	.byte	48
	.byte	57
	.byte	51
	.byte	53
	.byte	52
	.byte	51
	.byte	57
	.byte	48
	.byte	51
	.byte	55
	.byte	80
	.byte	82
	.byte	106
	.byte	100
	.byte	107
	.byte	78
	.byte	0
	.space 1, 0x00 	# pad
	.align 4
__sd_2inst_string.3:
	.byte	115
	.byte	105
	.byte	122
	.byte	101
	.byte	0
	.space 3, 0x00 	# pad
	.align 4
__sd_2inst_string.4:
	.byte	109
	.byte	101
	.byte	109
	.byte	0
	.section .OffloadEntryTable., "waG",@progbits,__offload_entry_helper_mic_h_34alloc_6e52945d3c539e3b55349cb0be18b178icc010935439037PRjdkN_$entry,comdat
	.align 16
__offload_entry_helper_mic_h_34alloc_6e52945d3c539e3b55349cb0be18b178icc010935439037PRjdkN_$entry:
	.type	__offload_entry_helper_mic_h_34alloc_6e52945d3c539e3b55349cb0be18b178icc010935439037PRjdkN_$entry,@object
	.size	__offload_entry_helper_mic_h_34alloc_6e52945d3c539e3b55349cb0be18b178icc010935439037PRjdkN_$entry,16
	.quad	__sd_2inst_string.0
	.quad	__sd_2inst_string.0
	.data
# -- End  _ZN3mic5allocElPPf
	.text
.L_2__routine_start__ZN3mic5clearElPPf_2:
# -- Begin  _ZN3mic5clearElPPf
	.text
# mark_begin;
       .align    16,0x90
	.globl _ZN3mic5clearElPPf
# --- mic::clear(long, float **)
_ZN3mic5clearElPPf:
# parameter 1(size): %rdi
# parameter 2(mem): %rsi
..B3.1:                         # Preds ..B3.0
	.cfi_startproc
	.cfi_personality 0x3,__gxx_personality_v0
..___tag_value__ZN3mic5clearElPPf.179:
..L180:
                                                        #11.5
..LN924:
	.loc    6  11  is_stmt 1
        subq      $184, %rsp                                    #11.5
	.cfi_def_cfa_offset 192
..LN925:
	.loc    6  13  prologue_end  is_stmt 1
        xorl      %edx, %edx                                    #13.9
..LN926:
	.loc    6  12  is_stmt 1
        shrq      $2, %rdi                                      #12.23
..LN927:
	.loc    6  13  is_stmt 1
        xorl      %ecx, %ecx                                    #13.9
..LN928:
	.loc    6  11  is_stmt 1
        movq      %rsi, 160(%rsp)                               #11.5
..LN929:
	.loc    6  13  is_stmt 1
        movl      $1, %esi                                      #13.9
..LN930:
	.loc    6  12  is_stmt 1
        movq      %rdi, 168(%rsp)                               #12.16
..LN931:
	.loc    6  13  is_stmt 1
        movl      $2, %edi                                      #13.9
..LN932:
        movl      $__sd_2inst_string.6, %r8d                    #13.9
..LN933:
        movl      $13, %r9d                                     #13.9
..LN934:
        xorl      %eax, %eax                                    #13.9
..___tag_value__ZN3mic5clearElPPf.183:
..LN935:
        call      __offload_target_acquire                      #13.9
..___tag_value__ZN3mic5clearElPPf.184:
..LN936:
                                # LOE rax rbx rbp r12 r13 r14 r15
..B3.9:                         # Preds ..B3.1
..LN937:
        movq      %rax, %rdi                                    #13.9
..LN938:
                                # LOE rbx rbp rdi r12 r13 r14 r15
..B3.2:                         # Preds ..B3.9
..LN939:
        testq     %rdi, %rdi                                    #13.9
..LN940:
        je        ..B3.4        # Prob 50%                      #13.9
..LN941:
                                # LOE rbx rbp rdi r12 r13 r14 r15
..B3.3:                         # Preds ..B3.2
..LN942:
        movl      $128, %eax                                    #13.9
..LN943:
        lea       32(%rsp), %r8                                 #13.9
..LN944:
                                # LOE rax rbx rbp rdi r8 r12 r13 r14 r15
..B3.8:                         # Preds ..B3.8 ..B3.3
..LN945:
        lea       -16+.2.43_2__offload_var_desc1_p.26(%rax), %rdx #13.9
..LN946:
        vmovups   (%rdx), %xmm0                                 #13.9
..LN947:
        vmovups   -16(%rdx), %xmm1                              #13.9
..LN948:
        vmovups   -32(%rdx), %xmm2                              #13.9
..LN949:
        vmovups   -48(%rdx), %xmm3                              #13.9
..LN950:
        lea       -16(%r8,%rax), %rcx                           #13.9
..LN951:
        vmovups   %xmm0, (%rcx)                                 #13.9
..LN952:
        vmovups   %xmm1, -16(%rcx)                              #13.9
..LN953:
        vmovups   %xmm2, -32(%rcx)                              #13.9
..LN954:
        vmovups   %xmm3, -48(%rcx)                              #13.9
..LN955:
        subq      $64, %rax                                     #13.9
..LN956:
        jne       ..B3.8        # Prob 50%                      #13.9
..LN957:
                                # LOE rax rbx rbp rdi r8 r12 r13 r14 r15
..B3.7:                         # Preds ..B3.8
..LN958:
        xorl      %r11d, %r11d                                  #13.9
..LN959:
        lea       168(%rsp), %r10                               #13.9
..LN960:
        movq      %r10, -16(%r10)                               #13.9
..LN961:
        lea       (%rsp), %r9                                   #13.9
..LN962:
        vmovups   .2.43_2__offload_var_desc2_p.31(%rip), %xmm0  #13.9
..LN963:
        lea       160(%r9), %rax                                #13.9
..LN964:
        addq      $-32, %rsp                                    #13.9
	.cfi_def_cfa_offset 224
..LN965:
        movl      $__sd_2inst_string.7, %esi                    #13.9
..LN966:
        vmovups   16+.2.43_2__offload_var_desc2_p.31(%rip), %xmm1 #13.9
..LN967:
        xorl      %edx, %edx                                    #13.9
..LN968:
        movq      %rax, 56(%r8)                                 #13.9
..LN969:
        movl      $2, %ecx                                      #13.9
..LN970:
        xorl      %eax, %eax                                    #13.9
..LN971:
        movq      %r11, (%rsp)                                  #13.9
..LN972:
        movq      %r11, 8(%rsp)                                 #13.9
..LN973:
        vmovups   %xmm0, (%r9)                                  #13.9
..LN974:
        vmovups   %xmm1, 16(%r9)                                #13.9
..LN975:
        movq      $1, 32(%r8)                                   #13.9
..LN976:
        movq      %r11, 16(%rsp)                                #13.9
..___tag_value__ZN3mic5clearElPPf.186:
..LN977:
        call      __offload_offload1                            #13.9
..___tag_value__ZN3mic5clearElPPf.187:
..LN978:
                                # LOE rbx rbp r12 r13 r14 r15
..B3.10:                        # Preds ..B3.7
..LN979:
        addq      $32, %rsp                                     #13.9
	.cfi_def_cfa_offset 192
..LN980:
                                # LOE rbx rbp r12 r13 r14 r15
..B3.4:                         # Preds ..B3.2 ..B3.10
..LN981:
	.loc    6  19  epilogue_begin  is_stmt 1
        addq      $184, %rsp                                    #19.5
	.cfi_def_cfa_offset 8
..LN982:
        ret                                                     #19.5
        .align    16,0x90
	.cfi_endproc
..LN983:
                                # LOE
..LN984:
# mark_end;
	.type	_ZN3mic5clearElPPf,@function
	.size	_ZN3mic5clearElPPf,.-_ZN3mic5clearElPPf
..LN_ZN3mic5clearElPPf.985:
.LN_ZN3mic5clearElPPf:
	.data
	.align 16
.2.43_2__offload_var_desc1_p.26:
	.byte	34
	.byte	1
	.byte	1
	.byte	1
	.long	8
	.long	0
	.long	0
	.long	0x00000000,0x00000000
	.long	0x00000008,0x00000000
	.long	0x00000001,0x00000000
	.long	0x00000000,0x00000000
	.long	0x00000000,0x00000000
	.long	0x00000000,0x00000000
	.byte	17
	.byte	3
	.byte	1
	.byte	1
	.long	8
	.long	0
	.long	0
	.long	0x00000000,0x00000000
	.long	0x00000008,0x00000000
	.long	0x00000001,0x00000000
	.long	0x00000000,0x00000000
	.long	0x00000000,0x00000000
	.long	0x00000000,0x00000000
	.align 16
.2.43_2__offload_var_desc2_p.31:
	.quad	__sd_2inst_string.8
	.long	0x00000000,0x00000000
	.quad	__sd_2inst_string.9
	.long	0x00000000,0x00000000
	.section .rodata, "a"
	.align 4
__sd_2inst_string.5:
	.byte	95
	.byte	95
	.byte	111
	.byte	102
	.byte	102
	.byte	108
	.byte	111
	.byte	97
	.byte	100
	.byte	95
	.byte	101
	.byte	110
	.byte	116
	.byte	114
	.byte	121
	.byte	95
	.byte	104
	.byte	101
	.byte	108
	.byte	112
	.byte	101
	.byte	114
	.byte	95
	.byte	109
	.byte	105
	.byte	99
	.byte	95
	.byte	104
	.byte	95
	.byte	49
	.byte	51
	.byte	99
	.byte	108
	.byte	101
	.byte	97
	.byte	114
	.byte	95
	.byte	49
	.byte	57
	.byte	97
	.byte	50
	.byte	52
	.byte	98
	.byte	102
	.byte	101
	.byte	50
	.byte	49
	.byte	98
	.byte	48
	.byte	100
	.byte	57
	.byte	52
	.byte	48
	.byte	49
	.byte	98
	.byte	54
	.byte	102
	.byte	101
	.byte	99
	.byte	100
	.byte	56
	.byte	101
	.byte	99
	.byte	56
	.byte	100
	.byte	48
	.byte	97
	.byte	97
	.byte	54
	.byte	105
	.byte	99
	.byte	99
	.byte	48
	.byte	49
	.byte	48
	.byte	57
	.byte	51
	.byte	53
	.byte	52
	.byte	51
	.byte	57
	.byte	48
	.byte	51
	.byte	55
	.byte	80
	.byte	82
	.byte	106
	.byte	100
	.byte	107
	.byte	78
	.byte	0
	.space 1, 0x00 	# pad
	.align 4
__sd_2inst_string.6:
	.byte	104
	.byte	101
	.byte	108
	.byte	112
	.byte	101
	.byte	114
	.byte	95
	.byte	109
	.byte	105
	.byte	99
	.byte	46
	.byte	104
	.byte	0
	.space 3, 0x00 	# pad
	.align 4
__sd_2inst_string.8:
	.byte	109
	.byte	101
	.byte	109
	.byte	0
	.align 4
__sd_2inst_string.9:
	.byte	110
	.byte	0
	.space 2, 0x00 	# pad
	.align 4
__sd_2inst_string.7:
	.byte	95
	.byte	95
	.byte	111
	.byte	102
	.byte	102
	.byte	108
	.byte	111
	.byte	97
	.byte	100
	.byte	95
	.byte	101
	.byte	110
	.byte	116
	.byte	114
	.byte	121
	.byte	95
	.byte	104
	.byte	101
	.byte	108
	.byte	112
	.byte	101
	.byte	114
	.byte	95
	.byte	109
	.byte	105
	.byte	99
	.byte	95
	.byte	104
	.byte	95
	.byte	49
	.byte	51
	.byte	99
	.byte	108
	.byte	101
	.byte	97
	.byte	114
	.byte	95
	.byte	49
	.byte	57
	.byte	97
	.byte	50
	.byte	52
	.byte	98
	.byte	102
	.byte	101
	.byte	50
	.byte	49
	.byte	98
	.byte	48
	.byte	100
	.byte	57
	.byte	52
	.byte	48
	.byte	49
	.byte	98
	.byte	54
	.byte	102
	.byte	101
	.byte	99
	.byte	100
	.byte	56
	.byte	101
	.byte	99
	.byte	56
	.byte	100
	.byte	48
	.byte	97
	.byte	97
	.byte	54
	.byte	105
	.byte	99
	.byte	99
	.byte	48
	.byte	49
	.byte	48
	.byte	57
	.byte	51
	.byte	53
	.byte	52
	.byte	51
	.byte	57
	.byte	48
	.byte	51
	.byte	55
	.byte	80
	.byte	82
	.byte	106
	.byte	100
	.byte	107
	.byte	78
	.byte	0
	.section .OffloadEntryTable., "waG",@progbits,__offload_entry_helper_mic_h_13clear_19a24bfe21b0d9401b6fecd8ec8d0aa6icc010935439037PRjdkN_$entry,comdat
	.align 16
__offload_entry_helper_mic_h_13clear_19a24bfe21b0d9401b6fecd8ec8d0aa6icc010935439037PRjdkN_$entry:
	.type	__offload_entry_helper_mic_h_13clear_19a24bfe21b0d9401b6fecd8ec8d0aa6icc010935439037PRjdkN_$entry,@object
	.size	__offload_entry_helper_mic_h_13clear_19a24bfe21b0d9401b6fecd8ec8d0aa6icc010935439037PRjdkN_$entry,16
	.quad	__sd_2inst_string.5
	.quad	__sd_2inst_string.5
	.data
# -- End  _ZN3mic5clearElPPf
	.text
.L_2__routine_start__Z6scalarPfll_3:
# -- Begin  _Z6scalarPfll, L__Z6scalarPfll_161__par_loop1_2.9
	.text
# mark_begin;
       .align    16,0x90
	.globl _Z6scalarPfll
# --- scalar(float *, long, long)
_Z6scalarPfll:
# parameter 1(A): %rdi
# parameter 2(N): %rsi
# parameter 3(M): %rdx
..B4.1:                         # Preds ..B4.0
	.cfi_startproc
	.cfi_personality 0x3,__gxx_personality_v0
..___tag_value__Z6scalarPfll.194:
..L195:
                                                        #153.1
..LN986:
	.loc    1  153  is_stmt 1
        subq      $488, %rsp                                    #153.1
	.cfi_def_cfa_offset 496
..LN987:
	.loc    1  157  prologue_end  is_stmt 1
        vxorps    %xmm0, %xmm0, %xmm0                           #157.34
..LN988:
	.loc    1  158  is_stmt 1
        vxorps    %xmm3, %xmm3, %xmm3                           #158.34
..LN989:
	.loc    1  154  is_stmt 1
        lea       400(%rsp), %rax                               #154.37
..LN990:
	.loc    1  157  is_stmt 1
        vcvtsi2ssq %rsi, %xmm0, %xmm0                           #157.34
..LN991:
	.loc    1  158  is_stmt 1
        vcvtsi2ssq %rdx, %xmm3, %xmm3                           #158.34
..LN992:
	.loc    1  157  is_stmt 1
        vmovss    .L_2il0floatpacket.11(%rip), %xmm2            #157.22
..LN993:
	.loc    1  160  is_stmt 1
        movl      $__sd_2inst_string.11, %r8d                   #160.5
..LN994:
	.loc    1  157  is_stmt 1
        vdivss    %xmm0, %xmm2, %xmm1                           #157.34
..LN995:
	.loc    1  158  is_stmt 1
        vdivss    %xmm3, %xmm2, %xmm4                           #158.34
..LN996:
	.loc    1  153  is_stmt 1
        movq      %rdx, 16(%rax)                                #153.1
..LN997:
	.loc    1  160  is_stmt 1
        xorl      %edx, %edx                                    #160.5
..LN998:
	.loc    1  153  is_stmt 1
        movq      %rdi, (%rax)                                  #153.1
..LN999:
	.loc    1  160  is_stmt 1
        movl      $2, %edi                                      #160.5
..LN1000:
	.loc    1  153  is_stmt 1
        movq      %rsi, 8(%rax)                                 #153.1
..LN1001:
	.loc    1  160  is_stmt 1
        movl      $1, %esi                                      #160.5
..LN1002:
	.loc    1  154  is_stmt 1
        movq      %rax, 24(%rax)                                #154.34
..LN1003:
	.loc    1  160  is_stmt 1
        xorl      %ecx, %ecx                                    #160.5
..LN1004:
        movl      $160, %r9d                                    #160.5
..LN1005:
        xorl      %eax, %eax                                    #160.5
..LN1006:
	.loc    1  153  is_stmt 1
        movq      %rbp, 472(%rsp)                               #153.1
..LN1007:
        movq      %rbx, 464(%rsp)                               #153.1
..LN1008:
        movq      %r15, 432(%rsp)                               #153.1
..LN1009:
        movq      %r14, 440(%rsp)                               #153.1
..LN1010:
        movq      %r13, 448(%rsp)                               #153.1
..LN1011:
        movq      %r12, 456(%rsp)                               #153.1
..LN1012:
	.loc    1  157  is_stmt 1
        vmovss    %xmm1, 480(%rsp)                              #157.20
..LN1013:
	.loc    1  158  is_stmt 1
        vmovss    %xmm4, 484(%rsp)                              #158.20
..___tag_value__Z6scalarPfll.198:
..LN1014:
	.loc    1  160  is_stmt 1
        call      __offload_target_acquire                      #160.5
..___tag_value__Z6scalarPfll.199:
	.cfi_offset 3, -32
	.cfi_offset 6, -24
	.cfi_offset 12, -40
	.cfi_offset 13, -48
	.cfi_offset 14, -56
	.cfi_offset 15, -64
..LN1015:
                                # LOE rax
..B4.10:                        # Preds ..B4.1
..LN1016:
        movq      %rax, %rdi                                    #160.5
..LN1017:
                                # LOE rdi
..B4.2:                         # Preds ..B4.10
..LN1018:
        testq     %rdi, %rdi                                    #160.5
..LN1019:
        je        ..B4.4        # Prob 50%                      #160.5
..LN1020:
                                # LOE rdi
..B4.3:                         # Preds ..B4.2
..LN1021:
        movl      $320, %eax                                    #160.5
..LN1022:
        lea       80(%rsp), %r8                                 #160.5
..LN1023:
                                # LOE rax rdi r8
..B4.9:                         # Preds ..B4.9 ..B4.3
..LN1024:
        lea       -16+.2.44_2__offload_var_desc1_p.72(%rax), %rdx #160.5
..LN1025:
        vmovups   (%rdx), %xmm0                                 #160.5
..LN1026:
        vmovups   -16(%rdx), %xmm1                              #160.5
..LN1027:
        vmovups   -32(%rdx), %xmm2                              #160.5
..LN1028:
        vmovups   -48(%rdx), %xmm3                              #160.5
..LN1029:
        lea       -16(%r8,%rax), %rcx                           #160.5
..LN1030:
        vmovups   %xmm0, (%rcx)                                 #160.5
..LN1031:
        vmovups   %xmm1, -16(%rcx)                              #160.5
..LN1032:
        vmovups   %xmm2, -32(%rcx)                              #160.5
..LN1033:
        vmovups   %xmm3, -48(%rcx)                              #160.5
..LN1034:
        subq      $64, %rax                                     #160.5
..LN1035:
        jne       ..B4.9        # Prob 80%                      #160.5
..LN1036:
                                # LOE rax rdi r8
..B4.8:                         # Preds ..B4.9
..LN1037:
        xorl      %r12d, %r12d                                  #160.5
..LN1038:
        lea       416(%rsp), %rbx                               #160.5
..LN1039:
        movq      %rbx, -216(%rbx)                              #160.5
..LN1040:
        lea       68(%rbx), %rbp                                #160.5
..LN1041:
        movq      %rbp, -152(%rbx)                              #160.5
..LN1042:
        lea       -8(%rbx), %r10                                #160.5
..LN1043:
        movq      %r10, -88(%rbx)                               #160.5
..LN1044:
        lea       64(%rbx), %r11                                #160.5
..LN1045:
        movq      %r11, -24(%rbx)                               #160.5
..LN1046:
        lea       (%rsp), %r9                                   #160.5
..LN1047:
        vmovups   .2.44_2__offload_var_desc2_p.77(%rip), %xmm0  #160.5
..LN1048:
        lea       8(%rbx), %rax                                 #160.5
..LN1049:
        addq      $-32, %rsp                                    #160.5
	.cfi_def_cfa_offset 528
..LN1050:
        movl      $__sd_2inst_string.12, %esi                   #160.5
..LN1051:
        lea       16+.2.44_2__offload_var_desc2_p.77(%rip), %rbx #160.5
..LN1052:
        vmovups   (%rbx), %xmm1                                 #160.5
..LN1053:
        xorl      %edx, %edx                                    #160.5
..LN1054:
        vmovups   16(%rbx), %xmm2                               #160.5
..LN1055:
        movl      $5, %ecx                                      #160.5
..LN1056:
        vmovups   32(%rbx), %xmm3                               #160.5
..LN1057:
        vmovups   48(%rbx), %xmm4                               #160.5
..LN1058:
        movq      %rax, 56(%r8)                                 #160.5
..LN1059:
        xorl      %eax, %eax                                    #160.5
..LN1060:
        movq      %r12, (%rsp)                                  #160.5
..LN1061:
        movq      %r12, 8(%rsp)                                 #160.5
..LN1062:
        lea       (%r9), %rbp                                   #160.5
..LN1063:
        vmovups   %xmm0, (%rbp)                                 #160.5
..LN1064:
        vmovups   %xmm1, 16(%rbp)                               #160.5
..LN1065:
        vmovups   %xmm2, 32(%rbp)                               #160.5
..LN1066:
        vmovups   %xmm3, 48(%rbp)                               #160.5
..LN1067:
        vmovups   %xmm4, 64(%rbp)                               #160.5
..LN1068:
        movq      $1, 32(%r8)                                   #160.5
..LN1069:
        movq      %r12, 16(%rsp)                                #160.5
..___tag_value__Z6scalarPfll.207:
..LN1070:
        call      __offload_offload1                            #160.5
..___tag_value__Z6scalarPfll.208:
..LN1071:
                                # LOE
..B4.11:                        # Preds ..B4.8
..LN1072:
        addq      $32, %rsp                                     #160.5
	.cfi_def_cfa_offset 496
..LN1073:
                                # LOE
..B4.4:                         # Preds ..B4.2 ..B4.11
..LN1074:
	.loc    1  178  is_stmt 1
        movq      432(%rsp), %r15                               #178.1
	.cfi_restore 15
..LN1075:
        movq      440(%rsp), %r14                               #178.1
	.cfi_restore 14
..LN1076:
        movq      448(%rsp), %r13                               #178.1
	.cfi_restore 13
..LN1077:
        movq      456(%rsp), %r12                               #178.1
	.cfi_restore 12
..LN1078:
        movq      464(%rsp), %rbx                               #178.1
	.cfi_restore 3
..LN1079:
        movq      472(%rsp), %rbp                               #178.1
	.cfi_restore 6
..LN1080:
	.loc    1  178  epilogue_begin  is_stmt 1
        addq      $488, %rsp                                    #178.1
	.cfi_def_cfa_offset 8
..LN1081:
        ret                                                     #178.1
	.cfi_def_cfa_offset 496
..LN1082:
                                # LOE
L__Z6scalarPfll_161__par_loop1_2.9:
# parameter 1: %rdi
# parameter 2: %rsi
# parameter 3: %rdx
# parameter 4: %rcx
# parameter 5: %r8
# parameter 6: %r9
# parameter 7: 496 + %rsp
..B4.5:                         # Preds ..B4.0
..LN1083:
	.loc    1  161  is_stmt 1
        subq      $488, %rsp                                    #161.5
..LN1084:
        movq      %r15, 432(%rsp)                               #161.5
..LN1085:
        movq      %r14, 440(%rsp)                               #161.5
..LN1086:
        movq      %r13, 448(%rsp)                               #161.5
..LN1087:
        movq      %r12, 456(%rsp)                               #161.5
..LN1088:
        movq      %rbp, 472(%rsp)                               #161.5
..LN1089:
        movq      %rbx, 464(%rsp)                               #161.5
..LN1090:
        movq      432(%rsp), %r15                               #161.5
	.cfi_offset 3, -32
	.cfi_offset 6, -24
	.cfi_offset 12, -40
	.cfi_offset 13, -48
	.cfi_offset 14, -56
..LN1091:
        movq      440(%rsp), %r14                               #161.5
	.cfi_restore 14
..LN1092:
        movq      448(%rsp), %r13                               #161.5
	.cfi_restore 13
..LN1093:
        movq      456(%rsp), %r12                               #161.5
	.cfi_restore 12
..LN1094:
        movq      464(%rsp), %rbx                               #161.5
	.cfi_restore 3
..LN1095:
        movq      472(%rsp), %rbp                               #161.5
	.cfi_restore 6
..LN1096:
	.loc    1  161  epilogue_begin  is_stmt 1
        addq      $488, %rsp                                    #161.5
	.cfi_def_cfa_offset 8
..LN1097:
        ret                                                     #161.5
        .align    16,0x90
	.cfi_endproc
..LN1098:
                                # LOE
..LN1099:
# mark_end;
	.type	_Z6scalarPfll,@function
	.size	_Z6scalarPfll,.-_Z6scalarPfll
..LN_Z6scalarPfll.1100:
.LN_Z6scalarPfll:
	.data
	.align 16
.2.44_2__offload_var_desc1_p.72:
	.byte	34
	.byte	1
	.byte	1
	.byte	1
	.long	8
	.long	0
	.long	0
	.long	0x00000000,0x00000000
	.long	0x00000008,0x00000000
	.long	0x00000001,0x00000000
	.long	0x00000000,0x00000000
	.long	0x00000000,0x00000000
	.long	0x00000000,0x00000000
	.byte	17
	.byte	3
	.byte	1
	.byte	1
	.long	8
	.long	0
	.long	0
	.long	0x00000000,0x00000000
	.long	0x00000008,0x00000000
	.long	0x00000001,0x00000000
	.long	0x00000000,0x00000000
	.long	0x00000000,0x00000000
	.long	0x00000000,0x00000000
	.byte	17
	.byte	3
	.byte	1
	.byte	1
	.long	4
	.long	0
	.long	0
	.long	0x00000000,0x00000000
	.long	0x00000004,0x00000000
	.long	0x00000001,0x00000000
	.long	0x00000000,0x00000000
	.long	0x00000000,0x00000000
	.long	0x00000000,0x00000000
	.byte	17
	.byte	3
	.byte	1
	.byte	1
	.long	8
	.long	0
	.long	0
	.long	0x00000000,0x00000000
	.long	0x00000008,0x00000000
	.long	0x00000001,0x00000000
	.long	0x00000000,0x00000000
	.long	0x00000000,0x00000000
	.long	0x00000000,0x00000000
	.byte	17
	.byte	3
	.byte	1
	.byte	1
	.long	4
	.long	0
	.long	0
	.long	0x00000000,0x00000000
	.long	0x00000004,0x00000000
	.long	0x00000001,0x00000000
	.long	0x00000000,0x00000000
	.long	0x00000000,0x00000000
	.long	0x00000000,0x00000000
	.align 16
.2.44_2__offload_var_desc2_p.77:
	.quad	__sd_2inst_string.13
	.long	0x00000000,0x00000000
	.quad	__sd_2inst_string.14
	.long	0x00000000,0x00000000
	.quad	__sd_2inst_string.15
	.long	0x00000000,0x00000000
	.quad	__sd_2inst_string.16
	.long	0x00000000,0x00000000
	.quad	__sd_2inst_string.17
	.long	0x00000000,0x00000000
	.section .rodata, "a"
	.space 1, 0x00 	# pad
	.align 4
__sd_2inst_string.10:
	.byte	95
	.byte	95
	.byte	111
	.byte	102
	.byte	102
	.byte	108
	.byte	111
	.byte	97
	.byte	100
	.byte	95
	.byte	101
	.byte	110
	.byte	116
	.byte	114
	.byte	121
	.byte	95
	.byte	109
	.byte	97
	.byte	110
	.byte	100
	.byte	101
	.byte	108
	.byte	98
	.byte	114
	.byte	111
	.byte	116
	.byte	95
	.byte	99
	.byte	112
	.byte	112
	.byte	95
	.byte	49
	.byte	54
	.byte	48
	.byte	115
	.byte	99
	.byte	97
	.byte	108
	.byte	97
	.byte	114
	.byte	95
	.byte	53
	.byte	48
	.byte	57
	.byte	55
	.byte	97
	.byte	53
	.byte	100
	.byte	101
	.byte	55
	.byte	54
	.byte	54
	.byte	101
	.byte	57
	.byte	56
	.byte	57
	.byte	50
	.byte	56
	.byte	57
	.byte	50
	.byte	100
	.byte	102
	.byte	54
	.byte	98
	.byte	52
	.byte	100
	.byte	102
	.byte	51
	.byte	102
	.byte	102
	.byte	102
	.byte	97
	.byte	101
	.byte	105
	.byte	99
	.byte	99
	.byte	48
	.byte	49
	.byte	48
	.byte	57
	.byte	51
	.byte	53
	.byte	52
	.byte	51
	.byte	57
	.byte	48
	.byte	51
	.byte	55
	.byte	80
	.byte	82
	.byte	106
	.byte	100
	.byte	107
	.byte	78
	.byte	0
	.space 1, 0x00 	# pad
	.align 4
__sd_2inst_string.11:
	.byte	109
	.byte	97
	.byte	110
	.byte	100
	.byte	101
	.byte	108
	.byte	98
	.byte	114
	.byte	111
	.byte	116
	.byte	46
	.byte	99
	.byte	112
	.byte	112
	.byte	0
	.space 1, 0x00 	# pad
	.align 4
__sd_2inst_string.13:
	.byte	112
	.byte	65
	.byte	95
	.byte	109
	.byte	105
	.byte	99
	.byte	0
	.space 1, 0x00 	# pad
	.align 4
__sd_2inst_string.14:
	.byte	77
	.byte	0
	.space 2, 0x00 	# pad
	.align 4
__sd_2inst_string.15:
	.byte	100
	.byte	121
	.byte	0
	.space 1, 0x00 	# pad
	.align 4
__sd_2inst_string.16:
	.byte	78
	.byte	0
	.space 2, 0x00 	# pad
	.align 4
__sd_2inst_string.17:
	.byte	100
	.byte	120
	.byte	0
	.space 1, 0x00 	# pad
	.align 4
__sd_2inst_string.12:
	.byte	95
	.byte	95
	.byte	111
	.byte	102
	.byte	102
	.byte	108
	.byte	111
	.byte	97
	.byte	100
	.byte	95
	.byte	101
	.byte	110
	.byte	116
	.byte	114
	.byte	121
	.byte	95
	.byte	109
	.byte	97
	.byte	110
	.byte	100
	.byte	101
	.byte	108
	.byte	98
	.byte	114
	.byte	111
	.byte	116
	.byte	95
	.byte	99
	.byte	112
	.byte	112
	.byte	95
	.byte	49
	.byte	54
	.byte	48
	.byte	115
	.byte	99
	.byte	97
	.byte	108
	.byte	97
	.byte	114
	.byte	95
	.byte	53
	.byte	48
	.byte	57
	.byte	55
	.byte	97
	.byte	53
	.byte	100
	.byte	101
	.byte	55
	.byte	54
	.byte	54
	.byte	101
	.byte	57
	.byte	56
	.byte	57
	.byte	50
	.byte	56
	.byte	57
	.byte	50
	.byte	100
	.byte	102
	.byte	54
	.byte	98
	.byte	52
	.byte	100
	.byte	102
	.byte	51
	.byte	102
	.byte	102
	.byte	102
	.byte	97
	.byte	101
	.byte	105
	.byte	99
	.byte	99
	.byte	48
	.byte	49
	.byte	48
	.byte	57
	.byte	51
	.byte	53
	.byte	52
	.byte	51
	.byte	57
	.byte	48
	.byte	51
	.byte	55
	.byte	80
	.byte	82
	.byte	106
	.byte	100
	.byte	107
	.byte	78
	.byte	0
	.section .OffloadEntryTable., "waG",@progbits,__offload_entry_mandelbrot_cpp_160scalar_5097a5de766e9892892df6b4df3fffaeicc010935439037PRjdkN_$entry,comdat
	.align 16
__offload_entry_mandelbrot_cpp_160scalar_5097a5de766e9892892df6b4df3fffaeicc010935439037PRjdkN_$entry:
	.type	__offload_entry_mandelbrot_cpp_160scalar_5097a5de766e9892892df6b4df3fffaeicc010935439037PRjdkN_$entry,@object
	.size	__offload_entry_mandelbrot_cpp_160scalar_5097a5de766e9892892df6b4df3fffaeicc010935439037PRjdkN_$entry,16
	.quad	__sd_2inst_string.10
	.quad	__sd_2inst_string.10
	.data
# -- End  _Z6scalarPfll, L__Z6scalarPfll_161__par_loop1_2.9
	.text
.L_2__routine_start__Z4simdPfll_4:
# -- Begin  _Z4simdPfll, L__Z4simdPfll_189__par_loop1_2.12
	.text
# mark_begin;
       .align    16,0x90
	.globl _Z4simdPfll
# --- simd(float *, long, long)
_Z4simdPfll:
# parameter 1(A): %rdi
# parameter 2(N): %rsi
# parameter 3(M): %rdx
..B5.1:                         # Preds ..B5.0
	.cfi_startproc
	.cfi_personality 0x3,__gxx_personality_v0
..___tag_value__Z4simdPfll.237:
..L238:
                                                        #181.1
..LN1101:
	.loc    1  181  is_stmt 1
        subq      $488, %rsp                                    #181.1
	.cfi_def_cfa_offset 496
..LN1102:
	.loc    1  185  prologue_end  is_stmt 1
        vxorps    %xmm0, %xmm0, %xmm0                           #185.34
..LN1103:
	.loc    1  186  is_stmt 1
        vxorps    %xmm3, %xmm3, %xmm3                           #186.34
..LN1104:
	.loc    1  182  is_stmt 1
        lea       400(%rsp), %rax                               #182.37
..LN1105:
	.loc    1  185  is_stmt 1
        vcvtsi2ssq %rsi, %xmm0, %xmm0                           #185.34
..LN1106:
	.loc    1  186  is_stmt 1
        vcvtsi2ssq %rdx, %xmm3, %xmm3                           #186.34
..LN1107:
	.loc    1  185  is_stmt 1
        vmovss    .L_2il0floatpacket.11(%rip), %xmm2            #185.22
..LN1108:
	.loc    1  188  is_stmt 1
        movl      $__sd_2inst_string.19, %r8d                   #188.5
..LN1109:
	.loc    1  185  is_stmt 1
        vdivss    %xmm0, %xmm2, %xmm1                           #185.34
..LN1110:
	.loc    1  186  is_stmt 1
        vdivss    %xmm3, %xmm2, %xmm4                           #186.34
..LN1111:
	.loc    1  181  is_stmt 1
        movq      %rdx, 16(%rax)                                #181.1
..LN1112:
	.loc    1  188  is_stmt 1
        xorl      %edx, %edx                                    #188.5
..LN1113:
	.loc    1  181  is_stmt 1
        movq      %rdi, (%rax)                                  #181.1
..LN1114:
	.loc    1  188  is_stmt 1
        movl      $2, %edi                                      #188.5
..LN1115:
	.loc    1  181  is_stmt 1
        movq      %rsi, 8(%rax)                                 #181.1
..LN1116:
	.loc    1  188  is_stmt 1
        movl      $1, %esi                                      #188.5
..LN1117:
	.loc    1  182  is_stmt 1
        movq      %rax, 24(%rax)                                #182.34
..LN1118:
	.loc    1  188  is_stmt 1
        xorl      %ecx, %ecx                                    #188.5
..LN1119:
        movl      $188, %r9d                                    #188.5
..LN1120:
        xorl      %eax, %eax                                    #188.5
..LN1121:
	.loc    1  181  is_stmt 1
        movq      %rbp, 472(%rsp)                               #181.1
..LN1122:
        movq      %rbx, 464(%rsp)                               #181.1
..LN1123:
        movq      %r15, 432(%rsp)                               #181.1
..LN1124:
        movq      %r14, 440(%rsp)                               #181.1
..LN1125:
        movq      %r13, 448(%rsp)                               #181.1
..LN1126:
        movq      %r12, 456(%rsp)                               #181.1
..LN1127:
	.loc    1  185  is_stmt 1
        vmovss    %xmm1, 480(%rsp)                              #185.20
..LN1128:
	.loc    1  186  is_stmt 1
        vmovss    %xmm4, 484(%rsp)                              #186.20
..___tag_value__Z4simdPfll.241:
..LN1129:
	.loc    1  188  is_stmt 1
        call      __offload_target_acquire                      #188.5
..___tag_value__Z4simdPfll.242:
	.cfi_offset 3, -32
	.cfi_offset 6, -24
	.cfi_offset 12, -40
	.cfi_offset 13, -48
	.cfi_offset 14, -56
	.cfi_offset 15, -64
..LN1130:
                                # LOE rax
..B5.10:                        # Preds ..B5.1
..LN1131:
        movq      %rax, %rdi                                    #188.5
..LN1132:
                                # LOE rdi
..B5.2:                         # Preds ..B5.10
..LN1133:
        testq     %rdi, %rdi                                    #188.5
..LN1134:
        je        ..B5.4        # Prob 50%                      #188.5
..LN1135:
                                # LOE rdi
..B5.3:                         # Preds ..B5.2
..LN1136:
        movl      $320, %eax                                    #188.5
..LN1137:
        lea       80(%rsp), %r8                                 #188.5
..LN1138:
                                # LOE rax rdi r8
..B5.9:                         # Preds ..B5.9 ..B5.3
..LN1139:
        lea       -16+.2.45_2__offload_var_desc1_p.71(%rax), %rdx #188.5
..LN1140:
        vmovups   (%rdx), %xmm0                                 #188.5
..LN1141:
        vmovups   -16(%rdx), %xmm1                              #188.5
..LN1142:
        vmovups   -32(%rdx), %xmm2                              #188.5
..LN1143:
        vmovups   -48(%rdx), %xmm3                              #188.5
..LN1144:
        lea       -16(%r8,%rax), %rcx                           #188.5
..LN1145:
        vmovups   %xmm0, (%rcx)                                 #188.5
..LN1146:
        vmovups   %xmm1, -16(%rcx)                              #188.5
..LN1147:
        vmovups   %xmm2, -32(%rcx)                              #188.5
..LN1148:
        vmovups   %xmm3, -48(%rcx)                              #188.5
..LN1149:
        subq      $64, %rax                                     #188.5
..LN1150:
        jne       ..B5.9        # Prob 80%                      #188.5
..LN1151:
                                # LOE rax rdi r8
..B5.8:                         # Preds ..B5.9
..LN1152:
        xorl      %r12d, %r12d                                  #188.5
..LN1153:
        lea       416(%rsp), %rbx                               #188.5
..LN1154:
        movq      %rbx, -216(%rbx)                              #188.5
..LN1155:
        lea       68(%rbx), %rbp                                #188.5
..LN1156:
        movq      %rbp, -152(%rbx)                              #188.5
..LN1157:
        lea       -8(%rbx), %r10                                #188.5
..LN1158:
        movq      %r10, -88(%rbx)                               #188.5
..LN1159:
        lea       64(%rbx), %r11                                #188.5
..LN1160:
        movq      %r11, -24(%rbx)                               #188.5
..LN1161:
        lea       (%rsp), %r9                                   #188.5
..LN1162:
        vmovups   .2.45_2__offload_var_desc2_p.76(%rip), %xmm0  #188.5
..LN1163:
        lea       8(%rbx), %rax                                 #188.5
..LN1164:
        addq      $-32, %rsp                                    #188.5
	.cfi_def_cfa_offset 528
..LN1165:
        movl      $__sd_2inst_string.20, %esi                   #188.5
..LN1166:
        lea       16+.2.45_2__offload_var_desc2_p.76(%rip), %rbx #188.5
..LN1167:
        vmovups   (%rbx), %xmm1                                 #188.5
..LN1168:
        xorl      %edx, %edx                                    #188.5
..LN1169:
        vmovups   16(%rbx), %xmm2                               #188.5
..LN1170:
        movl      $5, %ecx                                      #188.5
..LN1171:
        vmovups   32(%rbx), %xmm3                               #188.5
..LN1172:
        vmovups   48(%rbx), %xmm4                               #188.5
..LN1173:
        movq      %rax, 56(%r8)                                 #188.5
..LN1174:
        xorl      %eax, %eax                                    #188.5
..LN1175:
        movq      %r12, (%rsp)                                  #188.5
..LN1176:
        movq      %r12, 8(%rsp)                                 #188.5
..LN1177:
        lea       (%r9), %rbp                                   #188.5
..LN1178:
        vmovups   %xmm0, (%rbp)                                 #188.5
..LN1179:
        vmovups   %xmm1, 16(%rbp)                               #188.5
..LN1180:
        vmovups   %xmm2, 32(%rbp)                               #188.5
..LN1181:
        vmovups   %xmm3, 48(%rbp)                               #188.5
..LN1182:
        vmovups   %xmm4, 64(%rbp)                               #188.5
..LN1183:
        movq      $1, 32(%r8)                                   #188.5
..LN1184:
        movq      %r12, 16(%rsp)                                #188.5
..___tag_value__Z4simdPfll.250:
..LN1185:
        call      __offload_offload1                            #188.5
..___tag_value__Z4simdPfll.251:
..LN1186:
                                # LOE
..B5.11:                        # Preds ..B5.8
..LN1187:
        addq      $32, %rsp                                     #188.5
	.cfi_def_cfa_offset 496
..LN1188:
                                # LOE
..B5.4:                         # Preds ..B5.2 ..B5.11
..LN1189:
	.loc    1  206  is_stmt 1
        movq      432(%rsp), %r15                               #206.1
	.cfi_restore 15
..LN1190:
        movq      440(%rsp), %r14                               #206.1
	.cfi_restore 14
..LN1191:
        movq      448(%rsp), %r13                               #206.1
	.cfi_restore 13
..LN1192:
        movq      456(%rsp), %r12                               #206.1
	.cfi_restore 12
..LN1193:
        movq      464(%rsp), %rbx                               #206.1
	.cfi_restore 3
..LN1194:
        movq      472(%rsp), %rbp                               #206.1
	.cfi_restore 6
..LN1195:
	.loc    1  206  epilogue_begin  is_stmt 1
        addq      $488, %rsp                                    #206.1
	.cfi_def_cfa_offset 8
..LN1196:
        ret                                                     #206.1
	.cfi_def_cfa_offset 496
..LN1197:
                                # LOE
L__Z4simdPfll_189__par_loop1_2.12:
# parameter 1: %rdi
# parameter 2: %rsi
# parameter 3: %rdx
# parameter 4: %rcx
# parameter 5: %r8
# parameter 6: %r9
# parameter 7: 496 + %rsp
..B5.5:                         # Preds ..B5.0
..LN1198:
	.loc    1  189  is_stmt 1
        subq      $488, %rsp                                    #189.5
..LN1199:
        movq      %r15, 432(%rsp)                               #189.5
..LN1200:
        movq      %r14, 440(%rsp)                               #189.5
..LN1201:
        movq      %r13, 448(%rsp)                               #189.5
..LN1202:
        movq      %r12, 456(%rsp)                               #189.5
..LN1203:
        movq      %rbp, 472(%rsp)                               #189.5
..LN1204:
        movq      %rbx, 464(%rsp)                               #189.5
..LN1205:
        movq      432(%rsp), %r15                               #189.5
	.cfi_offset 3, -32
	.cfi_offset 6, -24
	.cfi_offset 12, -40
	.cfi_offset 13, -48
	.cfi_offset 14, -56
..LN1206:
        movq      440(%rsp), %r14                               #189.5
	.cfi_restore 14
..LN1207:
        movq      448(%rsp), %r13                               #189.5
	.cfi_restore 13
..LN1208:
        movq      456(%rsp), %r12                               #189.5
	.cfi_restore 12
..LN1209:
        movq      464(%rsp), %rbx                               #189.5
	.cfi_restore 3
..LN1210:
        movq      472(%rsp), %rbp                               #189.5
	.cfi_restore 6
..LN1211:
	.loc    1  189  epilogue_begin  is_stmt 1
        addq      $488, %rsp                                    #189.5
	.cfi_def_cfa_offset 8
..LN1212:
        ret                                                     #189.5
        .align    16,0x90
	.cfi_endproc
..LN1213:
                                # LOE
..LN1214:
# mark_end;
	.type	_Z4simdPfll,@function
	.size	_Z4simdPfll,.-_Z4simdPfll
..LN_Z4simdPfll.1215:
.LN_Z4simdPfll:
	.data
	.align 16
.2.45_2__offload_var_desc1_p.71:
	.byte	34
	.byte	1
	.byte	1
	.byte	1
	.long	8
	.long	0
	.long	0
	.long	0x00000000,0x00000000
	.long	0x00000008,0x00000000
	.long	0x00000001,0x00000000
	.long	0x00000000,0x00000000
	.long	0x00000000,0x00000000
	.long	0x00000000,0x00000000
	.byte	17
	.byte	3
	.byte	1
	.byte	1
	.long	8
	.long	0
	.long	0
	.long	0x00000000,0x00000000
	.long	0x00000008,0x00000000
	.long	0x00000001,0x00000000
	.long	0x00000000,0x00000000
	.long	0x00000000,0x00000000
	.long	0x00000000,0x00000000
	.byte	17
	.byte	3
	.byte	1
	.byte	1
	.long	4
	.long	0
	.long	0
	.long	0x00000000,0x00000000
	.long	0x00000004,0x00000000
	.long	0x00000001,0x00000000
	.long	0x00000000,0x00000000
	.long	0x00000000,0x00000000
	.long	0x00000000,0x00000000
	.byte	17
	.byte	3
	.byte	1
	.byte	1
	.long	8
	.long	0
	.long	0
	.long	0x00000000,0x00000000
	.long	0x00000008,0x00000000
	.long	0x00000001,0x00000000
	.long	0x00000000,0x00000000
	.long	0x00000000,0x00000000
	.long	0x00000000,0x00000000
	.byte	17
	.byte	3
	.byte	1
	.byte	1
	.long	4
	.long	0
	.long	0
	.long	0x00000000,0x00000000
	.long	0x00000004,0x00000000
	.long	0x00000001,0x00000000
	.long	0x00000000,0x00000000
	.long	0x00000000,0x00000000
	.long	0x00000000,0x00000000
	.align 16
.2.45_2__offload_var_desc2_p.76:
	.quad	__sd_2inst_string.21
	.long	0x00000000,0x00000000
	.quad	__sd_2inst_string.22
	.long	0x00000000,0x00000000
	.quad	__sd_2inst_string.23
	.long	0x00000000,0x00000000
	.quad	__sd_2inst_string.24
	.long	0x00000000,0x00000000
	.quad	__sd_2inst_string.25
	.long	0x00000000,0x00000000
	.section .rodata, "a"
	.space 1, 0x00 	# pad
	.align 4
__sd_2inst_string.18:
	.byte	95
	.byte	95
	.byte	111
	.byte	102
	.byte	102
	.byte	108
	.byte	111
	.byte	97
	.byte	100
	.byte	95
	.byte	101
	.byte	110
	.byte	116
	.byte	114
	.byte	121
	.byte	95
	.byte	109
	.byte	97
	.byte	110
	.byte	100
	.byte	101
	.byte	108
	.byte	98
	.byte	114
	.byte	111
	.byte	116
	.byte	95
	.byte	99
	.byte	112
	.byte	112
	.byte	95
	.byte	49
	.byte	56
	.byte	56
	.byte	115
	.byte	105
	.byte	109
	.byte	100
	.byte	95
	.byte	100
	.byte	53
	.byte	49
	.byte	52
	.byte	52
	.byte	100
	.byte	50
	.byte	51
	.byte	54
	.byte	99
	.byte	54
	.byte	48
	.byte	100
	.byte	101
	.byte	51
	.byte	99
	.byte	98
	.byte	54
	.byte	98
	.byte	54
	.byte	97
	.byte	100
	.byte	98
	.byte	48
	.byte	57
	.byte	48
	.byte	102
	.byte	53
	.byte	101
	.byte	49
	.byte	53
	.byte	49
	.byte	105
	.byte	99
	.byte	99
	.byte	48
	.byte	49
	.byte	48
	.byte	57
	.byte	51
	.byte	53
	.byte	52
	.byte	51
	.byte	57
	.byte	48
	.byte	51
	.byte	55
	.byte	80
	.byte	82
	.byte	106
	.byte	100
	.byte	107
	.byte	78
	.byte	0
	.space 3, 0x00 	# pad
	.align 4
__sd_2inst_string.19:
	.byte	109
	.byte	97
	.byte	110
	.byte	100
	.byte	101
	.byte	108
	.byte	98
	.byte	114
	.byte	111
	.byte	116
	.byte	46
	.byte	99
	.byte	112
	.byte	112
	.byte	0
	.space 1, 0x00 	# pad
	.align 4
__sd_2inst_string.21:
	.byte	112
	.byte	65
	.byte	95
	.byte	109
	.byte	105
	.byte	99
	.byte	0
	.space 1, 0x00 	# pad
	.align 4
__sd_2inst_string.22:
	.byte	77
	.byte	0
	.space 2, 0x00 	# pad
	.align 4
__sd_2inst_string.23:
	.byte	100
	.byte	121
	.byte	0
	.space 1, 0x00 	# pad
	.align 4
__sd_2inst_string.24:
	.byte	78
	.byte	0
	.space 2, 0x00 	# pad
	.align 4
__sd_2inst_string.25:
	.byte	100
	.byte	120
	.byte	0
	.space 1, 0x00 	# pad
	.align 4
__sd_2inst_string.20:
	.byte	95
	.byte	95
	.byte	111
	.byte	102
	.byte	102
	.byte	108
	.byte	111
	.byte	97
	.byte	100
	.byte	95
	.byte	101
	.byte	110
	.byte	116
	.byte	114
	.byte	121
	.byte	95
	.byte	109
	.byte	97
	.byte	110
	.byte	100
	.byte	101
	.byte	108
	.byte	98
	.byte	114
	.byte	111
	.byte	116
	.byte	95
	.byte	99
	.byte	112
	.byte	112
	.byte	95
	.byte	49
	.byte	56
	.byte	56
	.byte	115
	.byte	105
	.byte	109
	.byte	100
	.byte	95
	.byte	100
	.byte	53
	.byte	49
	.byte	52
	.byte	52
	.byte	100
	.byte	50
	.byte	51
	.byte	54
	.byte	99
	.byte	54
	.byte	48
	.byte	100
	.byte	101
	.byte	51
	.byte	99
	.byte	98
	.byte	54
	.byte	98
	.byte	54
	.byte	97
	.byte	100
	.byte	98
	.byte	48
	.byte	57
	.byte	48
	.byte	102
	.byte	53
	.byte	101
	.byte	49
	.byte	53
	.byte	49
	.byte	105
	.byte	99
	.byte	99
	.byte	48
	.byte	49
	.byte	48
	.byte	57
	.byte	51
	.byte	53
	.byte	52
	.byte	51
	.byte	57
	.byte	48
	.byte	51
	.byte	55
	.byte	80
	.byte	82
	.byte	106
	.byte	100
	.byte	107
	.byte	78
	.byte	0
	.section .OffloadEntryTable., "waG",@progbits,__offload_entry_mandelbrot_cpp_188simd_d5144d236c60de3cb6b6adb090f5e151icc010935439037PRjdkN_$entry,comdat
	.align 16
__offload_entry_mandelbrot_cpp_188simd_d5144d236c60de3cb6b6adb090f5e151icc010935439037PRjdkN_$entry:
	.type	__offload_entry_mandelbrot_cpp_188simd_d5144d236c60de3cb6b6adb090f5e151icc010935439037PRjdkN_$entry,@object
	.size	__offload_entry_mandelbrot_cpp_188simd_d5144d236c60de3cb6b6adb090f5e151icc010935439037PRjdkN_$entry,16
	.quad	__sd_2inst_string.18
	.quad	__sd_2inst_string.18
	.data
# -- End  _Z4simdPfll, L__Z4simdPfll_189__par_loop1_2.12
	.text
.L_2__routine_start__ZGVxN32vvu_9mandel_v4ffi_5:
# -- Begin  _ZGVxN32vvu_9mandel_v4ffi
	.text
# mark_begin;
       .align    16,0x90
	.globl _ZGVxN32vvu_9mandel_v4ffi
# --- mandel_v4..xN32vvu(float, float, int)
_ZGVxN32vvu_9mandel_v4ffi:
# parameter 1: %xmm0
# parameter 2: %xmm1
# parameter 3: %xmm2
# parameter 4: %xmm3
# parameter 5: %xmm4
# parameter 6: %xmm5
# parameter 7: %xmm6
# parameter 8: %xmm7
# parameter 9: %xmm8
# parameter 10: %xmm9
# parameter 11: %xmm10
# parameter 12: %xmm11
# parameter 13: %xmm12
# parameter 14: %xmm13
# parameter 15: %xmm14
# parameter 16: %xmm15
# parameter 17(max_iter): %eax
..B6.1:                         # Preds ..B6.0
	.cfi_startproc
	.cfi_personality 0x3,__gxx_personality_v0
..___tag_value__ZGVxN32vvu_9mandel_v4ffi.280:
..L281:
                                                        #124.1
..LN1216:
	.loc    1  124  is_stmt 1
        pushq     %rbx                                          #124.1
	.cfi_def_cfa_offset 16
..LN1217:
        movq      %rsp, %rbx                                    #124.1
	.cfi_def_cfa 3, 16
	.cfi_offset 3, -16
..LN1218:
        andq      $-32, %rsp                                    #124.1
..LN1219:
        pushq     %rbp                                          #124.1
..LN1220:
        pushq     %rbp                                          #124.1
..LN1221:
        movq      8(%rbx), %rbp                                 #124.1
..LN1222:
        movq      %rbp, 8(%rsp)                                 #124.1
..LN1223:
        movq      %rsp, %rbp                                    #124.1
	.cfi_escape 0x10, 0x06, 0x02, 0x76, 0x00
..LN1224:
        subq      $1872, %rsp                                   #124.1
..LN1225:
	.loc    1  125  prologue_end  is_stmt 1
        xorl      %ecx, %ecx                                    #125.14
..LN1226:
        incl      %ecx                                          #125.14
..LN1227:
	.loc    1  124  is_stmt 1
        movl      %eax, %edx                                    #124.1
..LN1228:
        vinsertf128 $1, %xmm1, %ymm0, %ymm1                     #124.1
..LN1229:
        vinsertf128 $1, %xmm3, %ymm2, %ymm0                     #124.1
..LN1230:
        vinsertf128 $1, %xmm9, %ymm8, %ymm2                     #124.1
..LN1231:
	.loc    1  126  is_stmt 1
        vmovups   %ymm1, -1232(%rbp)                            #126.13
..LN1232:
        vmovups   %ymm0, -1200(%rbp)                            #126.13
..LN1233:
        vmovups   %ymm2, -1104(%rbp)                            #126.20
..LN1234:
	.loc    1  124  is_stmt 1
        vinsertf128 $1, %xmm13, %ymm12, %ymm12                  #124.1
..LN1235:
        vinsertf128 $1, %xmm15, %ymm14, %ymm13                  #124.1
..LN1236:
	.loc    1  127  is_stmt 1
        vmulps    %ymm1, %ymm1, %ymm15                          #127.16
..LN1237:
        vmulps    %ymm2, %ymm2, %ymm14                          #127.24
..LN1238:
	.loc    1  124  is_stmt 1
        vmovups   %ymm12, -848(%rbp)                            #124.1
..LN1239:
	.loc    1  126  is_stmt 1
        vmovups   %ymm12, -1040(%rbp)                           #126.20
..LN1240:
	.loc    1  127  is_stmt 1
        vmulps    %ymm12, %ymm12, %ymm12                        #127.24
..LN1241:
	.loc    1  124  is_stmt 1
        vmovups   %ymm13, -1264(%rbp)                           #124.1
..LN1242:
	.loc    1  126  is_stmt 1
        vmovups   %ymm13, -1008(%rbp)                           #126.20
..LN1243:
	.loc    1  127  is_stmt 1
        vaddps    %ymm14, %ymm15, %ymm15                        #127.24
..LN1244:
        lea       -1744(%rbp), %rax                             #127.24
..LN1245:
        vmovups   %ymm15, (%rax)                                #127.24
..LN1246:
	.loc    1  124  is_stmt 1
        vinsertf128 $1, %xmm5, %ymm4, %ymm4                     #124.1
..LN1247:
	.loc    1  125  is_stmt 1
        vmovd     %ecx, %xmm5                                   #125.14
..LN1248:
        vpshufd   $0, %xmm5, %xmm9                              #125.14
..LN1249:
        vmovdqu   %xmm9, -1808(%rbp)                            #125.14
..LN1250:
        vmovdqa   %xmm9, %xmm8                                  #125.14
..LN1251:
        vmovdqu   %xmm9, -1824(%rbp)                            #125.14
..LN1252:
        vmovdqa   %xmm9, %xmm5                                  #125.14
..LN1253:
        vmovdqu   %xmm9, -1760(%rbp)                            #125.14
..LN1254:
        vmovdqu   %xmm9, -1776(%rbp)                            #125.14
..LN1255:
	.loc    1  126  is_stmt 1
        vmovups   %ymm4, -1168(%rbp)                            #126.13
..LN1256:
	.loc    1  124  is_stmt 1
        vinsertf128 $1, %xmm7, %ymm6, %ymm3                     #124.1
..LN1257:
	.loc    1  125  is_stmt 1
        vmovdqa   %xmm9, %xmm6                                  #125.14
..LN1258:
	.loc    1  124  is_stmt 1
        vinsertf128 $1, %xmm11, %ymm10, %ymm7                   #124.1
..LN1259:
	.loc    1  127  is_stmt 1
        vmulps    %ymm4, %ymm4, %ymm11                          #127.16
..LN1260:
        vmulps    %ymm0, %ymm0, %ymm10                          #127.16
..LN1261:
        vmulps    %ymm7, %ymm7, %ymm15                          #127.24
..LN1262:
	.loc    1  126  is_stmt 1
        vmovups   %ymm3, -1136(%rbp)                            #126.13
..LN1263:
        vmovups   %ymm7, -1072(%rbp)                            #126.20
..LN1264:
	.loc    1  127  is_stmt 1
        lea       -1872(%rbp), %rcx                             #127.16
..LN1265:
        vmovups   %ymm11, (%rcx)                                #127.16
..LN1266:
        vmulps    %ymm3, %ymm3, %ymm11                          #127.16
..LN1267:
        vaddps    %ymm15, %ymm10, %ymm14                        #127.24
..LN1268:
        vaddps    (%rcx), %ymm12, %ymm15                        #127.24
..LN1269:
        vmulps    %ymm13, %ymm13, %ymm10                        #127.24
..LN1270:
        vmovups   .L_2il0floatpacket.14(%rip), %ymm12           #127.28
..LN1271:
        vaddps    %ymm10, %ymm11, %ymm11                        #127.24
..LN1272:
        vcmpgtps  (%rax), %ymm12, %ymm13                        #127.28
..LN1273:
        vcmpltps  %ymm12, %ymm14, %ymm10                        #127.28
..LN1274:
        vcmpltps  %ymm12, %ymm15, %ymm14                        #127.28
..LN1275:
        vcmpltps  %ymm12, %ymm11, %ymm15                        #127.28
..LN1276:
        vmovups   %ymm13, -976(%rbp)                            #127.28
..LN1277:
        vmovups   %ymm10, -944(%rbp)                            #127.28
..LN1278:
        vmovups   %ymm14, -912(%rbp)                            #127.28
..LN1279:
        vmovups   %ymm15, -880(%rbp)                            #127.28
..LN1280:
        vorps     %ymm10, %ymm13, %ymm13                        #127.28
..LN1281:
        vorps     %ymm14, %ymm13, %ymm10                        #127.28
..LN1282:
        vorps     %ymm15, %ymm10, %ymm11                        #127.28
..LN1283:
        vmovdqu   .L_2il0floatpacket.15(%rip), %ymm10           #127.28
..LN1284:
        vptest    %ymm10, %ymm11                                #127.28
..LN1285:
        je        ..B6.7        # Prob 50%                      #127.28
..LN1286:
                                # LOE r12 r13 r14 r15 edx xmm0 xmm1 xmm2 xmm3 xmm4 xmm5 xmm6 xmm7 xmm8 xmm9 xmm14 ymm0 ymm1 ymm2 ymm3 ymm4 ymm5 ymm6 ymm7 ymm8 ymm9 ymm10 ymm12 ymm14 zmm0 zmm1 zmm2 zmm3 zmm4 zmm5 zmm6 zmm7 zmm8 zmm9 zmm14
..B6.2:                         # Preds ..B6.1
..LN1287:
        vmovups   -976(%rbp), %ymm15                            #127.5
..LN1288:
        xorl      %eax, %eax                                    #127.5
..LN1289:
        vmovups   -944(%rbp), %ymm11                            #127.5
..LN1290:
        vmovaps   %ymm14, %ymm13                                #127.5
..LN1291:
        vmovups   -880(%rbp), %ymm14                            #127.5
..LN1292:
        vmovups   %ymm1, -656(%rbp)                             #127.5
..LN1293:
        vmovdqu   %xmm5, -1872(%rbp)                            #127.5
..LN1294:
        vmovdqu   %xmm6, -1856(%rbp)                            #127.5
..LN1295:
        vmovdqu   %xmm8, -1840(%rbp)                            #127.5
..LN1296:
        vmovdqu   %xmm9, -1792(%rbp)                            #127.5
..LN1297:
        vmovups   %ymm11, -624(%rbp)                            #127.5
..LN1298:
        vmovdqu   -1760(%rbp), %xmm1                            #127.5
..LN1299:
        vmovups   %ymm13, -592(%rbp)                            #127.5
..LN1300:
        vmovups   %ymm14, -560(%rbp)                            #127.5
..LN1301:
        vmovups   %ymm15, -816(%rbp)                            #127.5
..LN1302:
        vmovups   %ymm7, -752(%rbp)                             #127.5
..LN1303:
        vmovups   %ymm2, -784(%rbp)                             #127.5
..LN1304:
        vmovups   %ymm3, -688(%rbp)                             #127.5
..LN1305:
        vmovups   %ymm4, -720(%rbp)                             #127.5
..LN1306:
                                # LOE r12 r13 r14 r15 eax edx xmm1 ymm0
..B6.3:                         # Preds ..B6.4 ..B6.2
..L287:         # optimization report
                # LOOP WAS VECTORIZED
                # loop was vectorized along with the enclosing function
..LN1307:
        incl      %eax                                          #127.5
..LN1308:
	.loc    1  146  is_stmt 1
        lea       -3(,%rax,4), %ecx                             #146.5
..LN1309:
        lea       (,%rax,4), %r8d                               #146.5
..LN1310:
	.loc    1  127  is_stmt 1
        cmpl      %ecx, %edx                                    #127.43
..LN1311:
        jle       ..B6.11       # Prob 50%                      #127.43
..LN1312:
                                # LOE r12 r13 r14 r15 eax edx ecx r8d xmm1 ymm0
..B6.4:                         # Preds ..B6.3
..LN1313:
	.loc    1  128  is_stmt 1
        lea       -1104(%rbp), %r9                              #128.27
..LN1314:
        vmovups   (%r9), %ymm2                                  #128.27
..LN1315:
	.loc    1  125  is_stmt 1
        lea       -2(,%rax,4), %esi                             #125.14
..LN1316:
        lea       -1760(%rbp), %r10                             #
..LN1317:
        vmovdqu   %xmm1, (%r10)                                 #
..LN1318:
	.loc    1  128  is_stmt 1
        vmovups   -1232(%rbp), %ymm1                            #128.31
..LN1319:
        vmovups   -1200(%rbp), %ymm13                           #128.31
..LN1320:
        lea       -752(%rbp), %r11                              #128.35
..LN1321:
        vmovups   (%r11), %ymm8                                 #128.35
..LN1322:
        vmovups   -1168(%rbp), %ymm14                           #128.31
..LN1323:
        vmovups   -784(%rbp), %ymm5                             #128.35
..LN1324:
        vmovups   %ymm0, -528(%rbp)                             #
..LN1325:
        vaddps    %ymm2, %ymm2, %ymm9                           #128.27
..LN1326:
	.loc    1  129  is_stmt 1
        vmulps    %ymm2, %ymm2, %ymm2                           #129.32
..LN1327:
	.loc    1  128  is_stmt 1
        vmulps    %ymm9, %ymm1, %ymm3                           #128.31
..LN1328:
        vmovups   -1072(%rbp), %ymm9                            #128.27
..LN1329:
	.loc    1  129  is_stmt 1
        vmulps    %ymm1, %ymm1, %ymm1                           #129.24
..LN1330:
	.loc    1  128  is_stmt 1
        vaddps    %ymm3, %ymm5, %ymm12                          #128.35
..LN1331:
        vaddps    %ymm9, %ymm9, %ymm10                          #128.27
..LN1332:
	.loc    1  129  is_stmt 1
        vmulps    %ymm9, %ymm9, %ymm9                           #129.32
..LN1333:
	.loc    1  128  is_stmt 1
        vmulps    %ymm10, %ymm13, %ymm7                         #128.31
..LN1334:
        vmovups   -1008(%rbp), %ymm10                           #128.27
..LN1335:
	.loc    1  129  is_stmt 1
        vmulps    %ymm13, %ymm13, %ymm13                        #129.24
..LN1336:
	.loc    1  128  is_stmt 1
        vaddps    %ymm7, %ymm8, %ymm6                           #128.35
..LN1337:
        vaddps    %ymm10, %ymm10, %ymm11                        #128.27
..LN1338:
	.loc    1  129  is_stmt 1
        vaddps    %ymm13, %ymm0, %ymm0                          #129.36
..LN1339:
	.loc    1  128  is_stmt 1
        vmovups   -1040(%rbp), %ymm7                            #128.27
..LN1340:
	.loc    1  129  is_stmt 1
        vmulps    %ymm10, %ymm10, %ymm10                        #129.32
..LN1341:
        vsubps    %ymm9, %ymm0, %ymm0                           #129.32
..LN1342:
	.loc    1  128  is_stmt 1
        vaddps    %ymm7, %ymm7, %ymm4                           #128.27
..LN1343:
	.loc    1  129  is_stmt 1
        vmulps    %ymm7, %ymm7, %ymm7                           #129.32
..LN1344:
	.loc    1  128  is_stmt 1
        vmulps    %ymm4, %ymm14, %ymm15                         #128.31
..LN1345:
	.loc    1  129  is_stmt 1
        vmulps    %ymm14, %ymm14, %ymm14                        #129.24
..LN1346:
	.loc    1  128  is_stmt 1
        vaddps    -848(%rbp), %ymm15, %ymm4                     #128.35
..LN1347:
	.loc    1  129  is_stmt 1
        vaddps    -720(%rbp), %ymm14, %ymm13                    #129.36
..LN1348:
	.loc    1  128  is_stmt 1
        vmovups   -1136(%rbp), %ymm15                           #128.31
..LN1349:
	.loc    1  129  is_stmt 1
        vsubps    %ymm7, %ymm13, %ymm13                         #129.32
..LN1350:
	.loc    1  128  is_stmt 1
        vmulps    %ymm11, %ymm15, %ymm3                         #128.31
..LN1351:
	.loc    1  129  is_stmt 1
        vmulps    %ymm15, %ymm15, %ymm14                        #129.24
..LN1352:
        vmovups   -688(%rbp), %ymm15                            #129.36
..LN1353:
	.loc    1  128  is_stmt 1
        vaddps    -1264(%rbp), %ymm3, %ymm11                    #128.35
..LN1354:
	.loc    1  129  is_stmt 1
        vmovups   -656(%rbp), %ymm3                             #129.36
..LN1355:
        vaddps    %ymm14, %ymm15, %ymm14                        #129.36
..LN1356:
        vaddps    %ymm1, %ymm3, %ymm1                           #129.36
..LN1357:
        vsubps    %ymm10, %ymm14, %ymm9                         #129.32
..LN1358:
	.loc    1  127  is_stmt 1
        vmovups   -976(%rbp), %ymm10                            #127.43
..LN1359:
        vmovups   -816(%rbp), %ymm14                            #127.43
..LN1360:
	.loc    1  129  is_stmt 1
        vsubps    %ymm2, %ymm1, %ymm1                           #129.32
..LN1361:
	.loc    1  125  is_stmt 1
        lea       -1(,%rax,4), %edi                             #125.14
..LN1362:
	.loc    1  127  is_stmt 1
        vpand     %xmm14, %xmm10, %xmm2                         #127.43
..LN1363:
        vextractf128 $1, %ymm10, %xmm7                          #127.43
..LN1364:
        vextractf128 $1, %ymm14, %xmm10                         #127.43
..LN1365:
        vmovdqu   %xmm2, -1744(%rbp)                            #127.43
..LN1366:
        vpand     %xmm10, %xmm7, %xmm7                          #127.43
..LN1367:
        vmovdqu   %xmm7, -1728(%rbp)                            #127.43
..LN1368:
        vmovups   -944(%rbp), %ymm10                            #127.43
..LN1369:
        vmovups   -624(%rbp), %ymm7                             #127.43
..LN1370:
        vpand     %xmm7, %xmm10, %xmm14                         #127.43
..LN1371:
        vextractf128 $1, %ymm10, %xmm10                         #127.43
..LN1372:
        vextractf128 $1, %ymm7, %xmm7                           #127.43
..LN1373:
        vmovdqu   %xmm14, -1712(%rbp)                           #127.43
..LN1374:
        vpand     %xmm7, %xmm10, %xmm14                         #127.43
..LN1375:
        vmovdqu   %xmm14, -1696(%rbp)                           #127.43
..LN1376:
        vmovups   -912(%rbp), %ymm10                            #127.43
..LN1377:
        vmovups   -592(%rbp), %ymm14                            #127.43
..LN1378:
        vpand     %xmm14, %xmm10, %xmm7                         #127.43
..LN1379:
        vmovdqu   %xmm7, -1680(%rbp)                            #127.43
..LN1380:
        vextractf128 $1, %ymm10, %xmm10                         #127.43
..LN1381:
        vextractf128 $1, %ymm14, %xmm7                          #127.43
..LN1382:
        vpand     %xmm7, %xmm10, %xmm14                         #127.43
..LN1383:
        vmovdqu   %xmm14, -1664(%rbp)                           #127.43
..LN1384:
        vmovups   -880(%rbp), %ymm7                             #127.43
..LN1385:
        vmovups   -560(%rbp), %ymm14                            #127.43
..LN1386:
        vpand     %xmm14, %xmm7, %xmm10                         #127.43
..LN1387:
        vextractf128 $1, %ymm7, %xmm7                           #127.43
..LN1388:
        vextractf128 $1, %ymm14, %xmm14                         #127.43
..LN1389:
        vmovdqu   %xmm10, -1648(%rbp)                           #127.43
..LN1390:
        vpand     %xmm14, %xmm7, %xmm7                          #127.43
..LN1391:
	.loc    1  131  is_stmt 1
        vmulps    %ymm12, %ymm12, %ymm14                        #131.24
..LN1392:
	.loc    1  127  is_stmt 1
        vmovdqu   %xmm7, -1632(%rbp)                            #127.43
..LN1393:
	.loc    1  132  is_stmt 1
        vaddps    %ymm12, %ymm12, %ymm12                        #132.27
..LN1394:
        vmulps    %ymm12, %ymm1, %ymm12                         #132.32
..LN1395:
	.loc    1  131  is_stmt 1
        vmulps    %ymm1, %ymm1, %ymm1                           #131.14
..LN1396:
	.loc    1  132  is_stmt 1
        vaddps    %ymm12, %ymm5, %ymm12                         #132.37
..LN1397:
	.loc    1  131  is_stmt 1
        vmulps    %ymm6, %ymm6, %ymm5                           #131.24
..LN1398:
	.loc    1  132  is_stmt 1
        vaddps    %ymm6, %ymm6, %ymm6                           #132.27
..LN1399:
        vmulps    %ymm6, %ymm0, %ymm6                           #132.32
..LN1400:
	.loc    1  131  is_stmt 1
        vmulps    %ymm0, %ymm0, %ymm0                           #131.14
..LN1401:
	.loc    1  132  is_stmt 1
        vaddps    %ymm6, %ymm8, %ymm8                           #132.37
..LN1402:
        vmovups   %ymm8, -496(%rbp)                             #132.37
..LN1403:
	.loc    1  131  is_stmt 1
        vmulps    %ymm4, %ymm4, %ymm8                           #131.24
..LN1404:
	.loc    1  132  is_stmt 1
        vaddps    %ymm4, %ymm4, %ymm4                           #132.27
..LN1405:
        vmulps    %ymm4, %ymm13, %ymm6                          #132.32
..LN1406:
	.loc    1  131  is_stmt 1
        vmulps    %ymm13, %ymm13, %ymm4                         #131.14
..LN1407:
	.loc    1  132  is_stmt 1
        vaddps    -848(%rbp), %ymm6, %ymm13                     #132.37
..LN1408:
	.loc    1  131  is_stmt 1
        vmulps    %ymm9, %ymm9, %ymm6                           #131.14
..LN1409:
	.loc    1  132  is_stmt 1
        vmovups   %ymm13, -464(%rbp)                            #132.37
..LN1410:
	.loc    1  131  is_stmt 1
        vmulps    %ymm11, %ymm11, %ymm13                        #131.24
..LN1411:
	.loc    1  132  is_stmt 1
        vaddps    %ymm11, %ymm11, %ymm11                        #132.27
..LN1412:
        vmulps    %ymm11, %ymm9, %ymm11                         #132.32
..LN1413:
        vaddps    -1264(%rbp), %ymm11, %ymm9                    #132.37
..LN1414:
	.loc    1  131  is_stmt 1
        vaddps    %ymm1, %ymm14, %ymm11                         #131.24
..LN1415:
	.loc    1  133  is_stmt 1
        vaddps    %ymm1, %ymm3, %ymm1                           #133.40
..LN1416:
	.loc    1  132  is_stmt 1
        vmovups   %ymm9, -432(%rbp)                             #132.37
..LN1417:
	.loc    1  131  is_stmt 1
        vmovups   .L_2il0floatpacket.14(%rip), %ymm9            #131.29
..LN1418:
	.loc    1  133  is_stmt 1
        vsubps    %ymm14, %ymm1, %ymm3                          #133.35
..LN1419:
	.loc    1  131  is_stmt 1
        vaddps    %ymm0, %ymm5, %ymm1                           #131.24
..LN1420:
	.loc    1  133  is_stmt 1
        vaddps    -528(%rbp), %ymm0, %ymm0                      #133.40
..LN1421:
	.loc    1  131  is_stmt 1
        vcmpltps  %ymm9, %ymm11, %ymm11                         #131.29
..LN1422:
        vcmpltps  %ymm9, %ymm1, %ymm14                          #131.29
..LN1423:
	.loc    1  133  is_stmt 1
        vsubps    %ymm5, %ymm0, %ymm0                           #133.35
..LN1424:
	.loc    1  131  is_stmt 1
        vaddps    %ymm4, %ymm8, %ymm5                           #131.24
..LN1425:
	.loc    1  133  is_stmt 1
        vmovups   -720(%rbp), %ymm1                             #133.40
..LN1426:
	.loc    1  131  is_stmt 1
        vcmpltps  %ymm9, %ymm5, %ymm5                           #131.29
..LN1427:
	.loc    1  133  is_stmt 1
        vaddps    %ymm4, %ymm1, %ymm4                           #133.40
..LN1428:
        vsubps    %ymm8, %ymm4, %ymm4                           #133.35
..LN1429:
	.loc    1  131  is_stmt 1
        vaddps    %ymm6, %ymm13, %ymm8                          #131.24
..LN1430:
	.loc    1  133  is_stmt 1
        vaddps    %ymm6, %ymm15, %ymm6                          #133.40
..LN1431:
	.loc    1  131  is_stmt 1
        vcmpltps  %ymm9, %ymm8, %ymm8                           #131.29
..LN1432:
	.loc    1  133  is_stmt 1
        vsubps    %ymm13, %ymm6, %ymm13                         #133.35
..LN1433:
	.loc    1  131  is_stmt 1
        vpand     %xmm8, %xmm10, %xmm10                         #131.29
..LN1434:
        vmovdqu   %xmm10, -1520(%rbp)                           #131.29
..LN1435:
        vextractf128 $1, %ymm8, %xmm10                          #131.29
..LN1436:
	.loc    1  135  is_stmt 1
        vmulps    %ymm12, %ymm12, %ymm8                         #135.24
..LN1437:
	.loc    1  131  is_stmt 1
        vpand     %xmm10, %xmm7, %xmm7                          #131.29
..LN1438:
	.loc    1  136  is_stmt 1
        vaddps    %ymm12, %ymm12, %ymm12                        #136.27
..LN1439:
	.loc    1  131  is_stmt 1
        vmovdqu   %xmm7, -1504(%rbp)                            #131.29
..LN1440:
	.loc    1  135  is_stmt 1
        vmulps    %ymm3, %ymm3, %ymm7                           #135.14
..LN1441:
	.loc    1  136  is_stmt 1
        vmulps    %ymm12, %ymm3, %ymm12                         #136.32
..LN1442:
        vaddps    -784(%rbp), %ymm12, %ymm3                     #136.37
..LN1443:
        vmovups   %ymm3, -400(%rbp)                             #136.37
..LN1444:
	.loc    1  135  is_stmt 1
        vmovups   -496(%rbp), %ymm3                             #135.24
..LN1445:
	.loc    1  136  is_stmt 1
        vaddps    %ymm3, %ymm3, %ymm12                          #136.27
..LN1446:
	.loc    1  135  is_stmt 1
        vmulps    %ymm3, %ymm3, %ymm10                          #135.24
..LN1447:
	.loc    1  131  is_stmt 1
        vpand     %xmm11, %xmm2, %xmm2                          #131.29
..LN1448:
        vextractf128 $1, %ymm11, %xmm6                          #131.29
..LN1449:
        vmovdqu   %xmm2, -1616(%rbp)                            #131.29
..LN1450:
        vpand     -1728(%rbp), %xmm6, %xmm6                     #131.29
..LN1451:
        vmovdqu   %xmm6, -1600(%rbp)                            #131.29
..LN1452:
        vpand     -1712(%rbp), %xmm14, %xmm11                   #131.29
..LN1453:
        vextractf128 $1, %ymm14, %xmm14                         #131.29
..LN1454:
        vmovdqu   %xmm11, -1584(%rbp)                           #131.29
..LN1455:
        vpand     -1696(%rbp), %xmm14, %xmm11                   #131.29
..LN1456:
        vmovdqu   %xmm11, -1568(%rbp)                           #131.29
..LN1457:
        vpand     -1680(%rbp), %xmm5, %xmm14                    #131.29
..LN1458:
        vextractf128 $1, %ymm5, %xmm5                           #131.29
..LN1459:
        vmovdqu   %xmm14, -1552(%rbp)                           #131.29
..LN1460:
        vpand     -1664(%rbp), %xmm5, %xmm5                     #131.29
..LN1461:
        vmovdqu   %xmm5, -1536(%rbp)                            #131.29
..LN1462:
	.loc    1  136  is_stmt 1
        vmulps    %ymm12, %ymm0, %ymm5                          #136.32
..LN1463:
	.loc    1  135  is_stmt 1
        vmulps    %ymm0, %ymm0, %ymm12                          #135.14
..LN1464:
	.loc    1  136  is_stmt 1
        vaddps    (%r11), %ymm5, %ymm0                          #136.37
..LN1465:
	.loc    1  135  is_stmt 1
        vmovups   -464(%rbp), %ymm5                             #135.24
..LN1466:
	.loc    1  136  is_stmt 1
        vmovups   %ymm0, -368(%rbp)                             #136.37
..LN1467:
	.loc    1  135  is_stmt 1
        vmulps    %ymm4, %ymm4, %ymm0                           #135.14
..LN1468:
        vmulps    %ymm5, %ymm5, %ymm3                           #135.24
..LN1469:
	.loc    1  136  is_stmt 1
        vaddps    %ymm5, %ymm5, %ymm14                          #136.27
..LN1470:
        vmulps    %ymm14, %ymm4, %ymm5                          #136.32
..LN1471:
        vaddps    -848(%rbp), %ymm5, %ymm4                      #136.37
..LN1472:
        vmovups   %ymm4, -336(%rbp)                             #136.37
..LN1473:
	.loc    1  135  is_stmt 1
        vmovups   -432(%rbp), %ymm4                             #135.24
..LN1474:
	.loc    1  136  is_stmt 1
        vaddps    %ymm4, %ymm4, %ymm14                          #136.27
..LN1475:
	.loc    1  135  is_stmt 1
        vmulps    %ymm4, %ymm4, %ymm5                           #135.24
..LN1476:
	.loc    1  136  is_stmt 1
        vmulps    %ymm14, %ymm13, %ymm4                         #136.32
..LN1477:
	.loc    1  135  is_stmt 1
        vmulps    %ymm13, %ymm13, %ymm13                        #135.14
..LN1478:
	.loc    1  136  is_stmt 1
        vaddps    -1264(%rbp), %ymm4, %ymm14                    #136.37
..LN1479:
	.loc    1  135  is_stmt 1
        vaddps    %ymm7, %ymm8, %ymm4                           #135.24
..LN1480:
	.loc    1  137  is_stmt 1
        vaddps    -656(%rbp), %ymm7, %ymm7                      #137.40
..LN1481:
	.loc    1  136  is_stmt 1
        vmovups   %ymm14, -304(%rbp)                            #136.37
..LN1482:
	.loc    1  137  is_stmt 1
        vmovups   -528(%rbp), %ymm14                            #137.40
..LN1483:
        vsubps    %ymm8, %ymm7, %ymm7                           #137.35
..LN1484:
	.loc    1  135  is_stmt 1
        vaddps    %ymm12, %ymm10, %ymm8                         #135.24
..LN1485:
	.loc    1  137  is_stmt 1
        vaddps    %ymm12, %ymm14, %ymm12                        #137.40
..LN1486:
	.loc    1  135  is_stmt 1
        vcmpltps  %ymm9, %ymm4, %ymm4                           #135.29
..LN1487:
        vcmpltps  %ymm9, %ymm8, %ymm8                           #135.29
..LN1488:
	.loc    1  137  is_stmt 1
        vsubps    %ymm10, %ymm12, %ymm12                        #137.35
..LN1489:
	.loc    1  135  is_stmt 1
        vaddps    %ymm0, %ymm3, %ymm10                          #135.24
..LN1490:
	.loc    1  137  is_stmt 1
        vaddps    %ymm0, %ymm1, %ymm0                           #137.40
..LN1491:
	.loc    1  135  is_stmt 1
        vcmpltps  %ymm9, %ymm10, %ymm10                         #135.29
..LN1492:
	.loc    1  137  is_stmt 1
        vsubps    %ymm3, %ymm0, %ymm0                           #137.35
..LN1493:
	.loc    1  135  is_stmt 1
        vaddps    %ymm13, %ymm5, %ymm3                          #135.24
..LN1494:
	.loc    1  137  is_stmt 1
        vaddps    %ymm13, %ymm15, %ymm13                        #137.40
..LN1495:
	.loc    1  135  is_stmt 1
        vcmpltps  %ymm9, %ymm3, %ymm3                           #135.29
..LN1496:
	.loc    1  137  is_stmt 1
        vsubps    %ymm5, %ymm13, %ymm5                          #137.35
..LN1497:
	.loc    1  135  is_stmt 1
        vpand     %xmm4, %xmm2, %xmm2                           #135.29
..LN1498:
        vextractf128 $1, %ymm4, %xmm13                          #135.29
..LN1499:
        vpand     %xmm13, %xmm6, %xmm6                          #135.29
..LN1500:
        vpand     -1584(%rbp), %xmm8, %xmm4                     #135.29
..LN1501:
        vmovdqu   %xmm4, -1488(%rbp)                            #135.29
..LN1502:
        vextractf128 $1, %ymm8, %xmm8                           #135.29
..LN1503:
        vpand     %xmm8, %xmm11, %xmm11                         #135.29
..LN1504:
        vmovdqu   %xmm11, -1472(%rbp)                           #135.29
..LN1505:
        vpand     -1552(%rbp), %xmm10, %xmm4                    #135.29
..LN1506:
        vmovdqu   %xmm4, -1456(%rbp)                            #135.29
..LN1507:
	.loc    1  139  is_stmt 1
        vmovups   -400(%rbp), %ymm4                             #139.24
..LN1508:
	.loc    1  135  is_stmt 1
        vextractf128 $1, %ymm10, %xmm10                         #135.29
..LN1509:
        vpand     -1536(%rbp), %xmm10, %xmm8                    #135.29
..LN1510:
        vmovdqu   %xmm8, -1440(%rbp)                            #135.29
..LN1511:
	.loc    1  140  is_stmt 1
        vaddps    %ymm4, %ymm4, %ymm8                           #140.27
..LN1512:
        vmulps    %ymm8, %ymm7, %ymm13                          #140.32
..LN1513:
	.loc    1  139  is_stmt 1
        vmulps    %ymm7, %ymm7, %ymm8                           #139.14
..LN1514:
	.loc    1  140  is_stmt 1
        vaddps    -784(%rbp), %ymm13, %ymm7                     #140.37
..LN1515:
        vmovups   %ymm7, -272(%rbp)                             #140.37
..LN1516:
	.loc    1  135  is_stmt 1
        vpand     -1520(%rbp), %xmm3, %xmm11                    #135.29
..LN1517:
        vextractf128 $1, %ymm3, %xmm3                           #135.29
..LN1518:
        vmovdqu   %xmm11, -1424(%rbp)                           #135.29
..LN1519:
	.loc    1  139  is_stmt 1
        vmulps    %ymm4, %ymm4, %ymm11                          #139.24
..LN1520:
	.loc    1  135  is_stmt 1
        vpand     -1504(%rbp), %xmm3, %xmm10                    #135.29
..LN1521:
        vmovdqu   %xmm10, -1408(%rbp)                           #135.29
..LN1522:
	.loc    1  139  is_stmt 1
        vmovups   -368(%rbp), %ymm3                             #139.24
..LN1523:
	.loc    1  140  is_stmt 1
        vaddps    %ymm3, %ymm3, %ymm10                          #140.27
..LN1524:
	.loc    1  139  is_stmt 1
        vmulps    %ymm3, %ymm3, %ymm4                           #139.24
..LN1525:
	.loc    1  140  is_stmt 1
        vmulps    %ymm10, %ymm12, %ymm7                         #140.32
..LN1526:
	.loc    1  139  is_stmt 1
        vmulps    %ymm12, %ymm12, %ymm10                        #139.14
..LN1527:
	.loc    1  140  is_stmt 1
        .byte     144                                           #140.37
..LN1528:
        vaddps    (%r11), %ymm7, %ymm12                         #140.37
..LN1529:
	.loc    1  141  is_stmt 1
        vaddps    %ymm10, %ymm14, %ymm14                        #141.40
..LN1530:
	.loc    1  140  is_stmt 1
        vmovups   %ymm12, -240(%rbp)                            #140.37
..LN1531:
	.loc    1  139  is_stmt 1
        vmovups   -336(%rbp), %ymm12                            #139.24
..LN1532:
	.loc    1  140  is_stmt 1
        vaddps    %ymm12, %ymm12, %ymm7                         #140.27
..LN1533:
	.loc    1  139  is_stmt 1
        vmulps    %ymm12, %ymm12, %ymm3                         #139.24
..LN1534:
	.loc    1  140  is_stmt 1
        vmulps    %ymm7, %ymm0, %ymm13                          #140.32
..LN1535:
	.loc    1  139  is_stmt 1
        vmovups   -304(%rbp), %ymm7                             #139.24
..LN1536:
        vmulps    %ymm0, %ymm0, %ymm0                           #139.14
..LN1537:
	.loc    1  140  is_stmt 1
        vaddps    -848(%rbp), %ymm13, %ymm12                    #140.37
..LN1538:
        vaddps    %ymm7, %ymm7, %ymm13                          #140.27
..LN1539:
	.loc    1  141  is_stmt 1
        vaddps    %ymm0, %ymm1, %ymm1                           #141.40
..LN1540:
	.loc    1  140  is_stmt 1
        vmovups   %ymm12, -208(%rbp)                            #140.37
..LN1541:
        vmulps    %ymm13, %ymm5, %ymm13                         #140.32
..LN1542:
	.loc    1  139  is_stmt 1
        vmulps    %ymm7, %ymm7, %ymm12                          #139.24
..LN1543:
        vmulps    %ymm5, %ymm5, %ymm7                           #139.14
..LN1544:
	.loc    1  140  is_stmt 1
        vaddps    -1264(%rbp), %ymm13, %ymm5                    #140.37
..LN1545:
	.loc    1  141  is_stmt 1
        vsubps    %ymm3, %ymm1, %ymm1                           #141.35
..LN1546:
	.loc    1  140  is_stmt 1
        vmovups   %ymm5, -176(%rbp)                             #140.37
..LN1547:
	.loc    1  141  is_stmt 1
        vmovups   %ymm1, -80(%rbp)                              #141.35
..LN1548:
	.loc    1  139  is_stmt 1
        vaddps    %ymm8, %ymm11, %ymm5                          #139.24
..LN1549:
	.loc    1  141  is_stmt 1
        vaddps    -656(%rbp), %ymm8, %ymm8                      #141.40
..LN1550:
	.loc    1  139  is_stmt 1
        vcmpltps  %ymm9, %ymm5, %ymm13                          #139.29
..LN1551:
        vaddps    %ymm10, %ymm4, %ymm5                          #139.24
..LN1552:
	.loc    1  141  is_stmt 1
        vsubps    %ymm4, %ymm14, %ymm10                         #141.35
..LN1553:
	.loc    1  139  is_stmt 1
        vaddps    %ymm0, %ymm3, %ymm4                           #139.24
..LN1554:
        vaddps    %ymm7, %ymm12, %ymm3                          #139.24
..LN1555:
        vcmpltps  %ymm9, %ymm5, %ymm5                           #139.29
..LN1556:
        vcmpltps  %ymm9, %ymm4, %ymm4                           #139.29
..LN1557:
	.loc    1  141  is_stmt 1
        vsubps    %ymm11, %ymm8, %ymm11                         #141.35
..LN1558:
	.loc    1  130  is_stmt 1
        vmovdqu   .L_2il0floatpacket.16(%rip), %xmm14           #130.3
..LN1559:
	.loc    1  141  is_stmt 1
        vmovups   %ymm10, -112(%rbp)                            #141.35
..LN1560:
        vmovups   %ymm11, -144(%rbp)                            #141.35
..LN1561:
	.loc    1  139  is_stmt 1
        vcmpltps  %ymm9, %ymm3, %ymm10                          #139.29
..LN1562:
	.loc    1  141  is_stmt 1
        vaddps    %ymm7, %ymm15, %ymm9                          #141.40
..LN1563:
        vsubps    %ymm12, %ymm9, %ymm15                         #141.35
..LN1564:
        vmovups   %ymm15, -48(%rbp)                             #141.35
..LN1565:
	.loc    1  139  is_stmt 1
        vmovdqu   -1488(%rbp), %xmm15                           #139.29
..LN1566:
        vpand     %xmm13, %xmm2, %xmm1                          #139.29
..LN1567:
        vextractf128 $1, %ymm13, %xmm9                          #139.29
..LN1568:
        vmovdqu   %xmm1, -1392(%rbp)                            #139.29
..LN1569:
        vmovdqu   -1456(%rbp), %xmm1                            #139.29
..LN1570:
        vpand     %xmm9, %xmm6, %xmm3                           #139.29
..LN1571:
        vmovdqu   %xmm3, -1376(%rbp)                            #139.29
..LN1572:
        vmovdqu   -1472(%rbp), %xmm9                            #139.29
..LN1573:
	.loc    1  125  is_stmt 1
        vmovdqu   -1792(%rbp), %xmm13                           #125.14
..LN1574:
	.loc    1  139  is_stmt 1
        vpand     %xmm5, %xmm15, %xmm12                         #139.29
..LN1575:
        vextractf128 $1, %ymm5, %xmm7                           #139.29
..LN1576:
        vmovdqu   %xmm12, -1360(%rbp)                           #139.29
..LN1577:
        vpand     %xmm7, %xmm9, %xmm8                           #139.29
..LN1578:
        vmovdqu   %xmm8, -1344(%rbp)                            #139.29
..LN1579:
	.loc    1  146  is_stmt 1
        vmovd     %ecx, %xmm8                                   #146.5
..LN1580:
        vpshufd   $0, %xmm8, %xmm11                             #146.5
..LN1581:
	.loc    1  125  is_stmt 1
        vmovdqu   (%r10), %xmm8                                 #125.14
..LN1582:
	.loc    1  139  is_stmt 1
        vpand     %xmm4, %xmm1, %xmm0                           #139.29
..LN1583:
        vextractf128 $1, %ymm4, %xmm3                           #139.29
..LN1584:
        lea       -1328(%rbp), %rcx                             #139.29
..LN1585:
        vmovdqu   %xmm0, (%rcx)                                 #139.29
..LN1586:
	.loc    1  125  is_stmt 1
        vmovdqu   -1744(%rbp), %xmm0                            #125.14
..LN1587:
	.loc    1  139  is_stmt 1
        vpand     -1440(%rbp), %xmm3, %xmm12                    #139.29
..LN1588:
        vmovdqu   %xmm12, -1312(%rbp)                           #139.29
..LN1589:
	.loc    1  125  is_stmt 1
        vmovdqu   -1808(%rbp), %xmm12                           #125.14
..LN1590:
	.loc    1  139  is_stmt 1
        vextractf128 $1, %ymm10, %xmm4                          #139.29
..LN1591:
        vpand     -1424(%rbp), %xmm10, %xmm7                    #139.29
..LN1592:
        vmovdqu   %xmm7, -1296(%rbp)                            #139.29
..LN1593:
        vpand     -1408(%rbp), %xmm4, %xmm5                     #139.29
..LN1594:
	.loc    1  125  is_stmt 1
        vmovdqu   -1728(%rbp), %xmm10                           #125.14
..LN1595:
        vmovdqu   -1712(%rbp), %xmm4                            #125.14
..LN1596:
        vmovdqu   -1824(%rbp), %xmm7                            #125.14
..LN1597:
	.loc    1  139  is_stmt 1
        vmovdqu   %xmm5, -1280(%rbp)                            #139.29
..LN1598:
	.loc    1  130  is_stmt 1
        vpaddd    %xmm14, %xmm11, %xmm5                         #130.3
..LN1599:
	.loc    1  125  is_stmt 1
        vmovdqu   -1696(%rbp), %xmm11                           #125.14
..LN1600:
        vpblendvb %xmm0, %xmm5, %xmm13, %xmm3                   #125.14
..LN1601:
        vpblendvb %xmm10, %xmm5, %xmm12, %xmm0                  #125.14
..LN1602:
        vmovdqu   -1776(%rbp), %xmm10                           #125.14
..LN1603:
        vpblendvb %xmm4, %xmm5, %xmm7, %xmm12                   #125.14
..LN1604:
        vmovdqu   -1680(%rbp), %xmm4                            #125.14
..LN1605:
        vpblendvb %xmm11, %xmm5, %xmm8, %xmm7                   #125.14
..LN1606:
        vmovdqu   -1664(%rbp), %xmm11                           #125.14
..LN1607:
        vmovdqu   -1840(%rbp), %xmm8                            #125.14
..LN1608:
        vmovdqu   -1856(%rbp), %xmm13                           #125.14
..LN1609:
        vpblendvb %xmm4, %xmm5, %xmm10, %xmm10                  #125.14
..LN1610:
        vpblendvb %xmm11, %xmm5, %xmm8, %xmm4                   #125.14
..LN1611:
        vmovdqu   -1648(%rbp), %xmm8                            #125.14
..LN1612:
        vpblendvb %xmm8, %xmm5, %xmm13, %xmm11                  #125.14
..LN1613:
        vmovdqu   -1632(%rbp), %xmm8                            #125.14
..LN1614:
        vmovdqu   -1872(%rbp), %xmm13                           #125.14
..LN1615:
        vpblendvb %xmm8, %xmm5, %xmm13, %xmm13                  #125.14
..LN1616:
        vmovd     %esi, %xmm5                                   #125.14
..LN1617:
        vpshufd   $0, %xmm5, %xmm5                              #125.14
..LN1618:
	.loc    1  134  is_stmt 1
        vpaddd    %xmm14, %xmm5, %xmm8                          #134.3
..LN1619:
	.loc    1  125  is_stmt 1
        vmovdqu   -1616(%rbp), %xmm5                            #125.14
..LN1620:
        vpblendvb %xmm5, %xmm8, %xmm3, %xmm5                    #125.14
..LN1621:
        vmovdqu   -1600(%rbp), %xmm3                            #125.14
..LN1622:
        vpblendvb %xmm3, %xmm8, %xmm0, %xmm0                    #125.14
..LN1623:
        vmovdqu   -1584(%rbp), %xmm3                            #125.14
..LN1624:
        vpblendvb %xmm3, %xmm8, %xmm12, %xmm12                  #125.14
..LN1625:
        vmovdqu   -1568(%rbp), %xmm3                            #125.14
..LN1626:
        vpblendvb %xmm3, %xmm8, %xmm7, %xmm7                    #125.14
..LN1627:
        vmovdqu   -1552(%rbp), %xmm3                            #125.14
..LN1628:
        vpblendvb %xmm3, %xmm8, %xmm10, %xmm3                   #125.14
..LN1629:
        vmovdqu   -1536(%rbp), %xmm10                           #125.14
..LN1630:
        vpblendvb %xmm10, %xmm8, %xmm4, %xmm10                  #125.14
..LN1631:
        vmovdqu   -1520(%rbp), %xmm4                            #125.14
..LN1632:
        vpblendvb %xmm4, %xmm8, %xmm11, %xmm11                  #125.14
..LN1633:
        vmovdqu   -1504(%rbp), %xmm4                            #125.14
..LN1634:
        vpblendvb %xmm4, %xmm8, %xmm13, %xmm8                   #125.14
..LN1635:
        vmovd     %edi, %xmm13                                  #125.14
..LN1636:
        vpshufd   $0, %xmm13, %xmm4                             #125.14
..LN1637:
	.loc    1  138  is_stmt 1
        vpaddd    %xmm14, %xmm4, %xmm4                          #138.3
..LN1638:
	.loc    1  125  is_stmt 1
        vpblendvb %xmm1, %xmm4, %xmm3, %xmm3                    #125.14
..LN1639:
        vmovdqu   -1440(%rbp), %xmm1                            #125.14
..LN1640:
        vpblendvb %xmm15, %xmm4, %xmm12, %xmm15                 #125.14
..LN1641:
        vmovdqu   -1408(%rbp), %xmm12                           #125.14
..LN1642:
        vpblendvb %xmm9, %xmm4, %xmm7, %xmm9                    #125.14
..LN1643:
        vmovd     %r8d, %xmm7                                   #125.14
..LN1644:
        vpblendvb %xmm1, %xmm4, %xmm10, %xmm10                  #125.14
..LN1645:
        vmovdqu   -1424(%rbp), %xmm1                            #125.14
..LN1646:
        vpblendvb %xmm2, %xmm4, %xmm5, %xmm2                    #125.14
..LN1647:
        vpblendvb %xmm6, %xmm4, %xmm0, %xmm6                    #125.14
..LN1648:
        vpblendvb %xmm1, %xmm4, %xmm11, %xmm0                   #125.14
..LN1649:
        vpblendvb %xmm12, %xmm4, %xmm8, %xmm8                   #125.14
..LN1650:
        vpshufd   $0, %xmm7, %xmm4                              #125.14
..LN1651:
        vmovdqu   -1392(%rbp), %xmm11                           #125.14
..LN1652:
	.loc    1  142  is_stmt 1
        vpaddd    %xmm14, %xmm4, %xmm14                         #142.3
..LN1653:
	.loc    1  125  is_stmt 1
        vpblendvb %xmm11, %xmm14, %xmm2, %xmm2                  #125.14
..LN1654:
        vmovdqu   %xmm2, -1792(%rbp)                            #125.14
..LN1655:
        vmovdqu   -1376(%rbp), %xmm2                            #125.14
..LN1656:
        vmovdqu   -1344(%rbp), %xmm12                           #125.14
..LN1657:
        vmovdqu   (%rcx), %xmm7                                 #125.14
..LN1658:
        vpblendvb %xmm2, %xmm14, %xmm6, %xmm6                   #125.14
..LN1659:
        vpblendvb %xmm12, %xmm14, %xmm9, %xmm1                  #125.14
..LN1660:
        vpblendvb %xmm7, %xmm14, %xmm3, %xmm9                   #125.14
..LN1661:
        vmovdqu   -1312(%rbp), %xmm3                            #125.14
..LN1662:
        vmovdqu   %xmm6, -1808(%rbp)                            #125.14
..LN1663:
        vmovdqu   -1360(%rbp), %xmm6                            #125.14
..LN1664:
        vpblendvb %xmm3, %xmm14, %xmm10, %xmm10                 #125.14
..LN1665:
        vpblendvb %xmm6, %xmm14, %xmm15, %xmm15                 #125.14
..LN1666:
        vmovdqu   %xmm10, -1840(%rbp)                           #125.14
..LN1667:
        vmovdqu   %xmm15, -1824(%rbp)                           #125.14
..LN1668:
        vmovdqu   -1296(%rbp), %xmm15                           #125.14
..LN1669:
	.loc    1  126  is_stmt 1
        lea       -1168(%rbp), %r8                              #126.13
..LN1670:
        .byte     15                                            #126.13
..LN1671:
        .byte     31                                            #126.13
..LN1672:
        .byte     0                                             #126.13
..LN1673:
        vmovups   (%r8), %ymm13                                 #126.13
..LN1674:
	.loc    1  125  is_stmt 1
        vmovdqu   %xmm9, -1776(%rbp)                            #125.14
..LN1675:
        vpblendvb %xmm15, %xmm14, %xmm0, %xmm9                  #125.14
..LN1676:
        vmovdqu   %xmm9, -1856(%rbp)                            #125.14
..LN1677:
        vmovdqu   -1280(%rbp), %xmm9                            #125.14
..LN1678:
        vpblendvb %xmm9, %xmm14, %xmm8, %xmm14                  #125.14
..LN1679:
        vmovdqu   %xmm14, -1872(%rbp)                           #125.14
..LN1680:
	.loc    1  126  is_stmt 1
        lea       -1200(%rbp), %rdi                             #126.13
..LN1681:
        vmovups   (%rdi), %ymm8                                 #126.13
..LN1682:
	.loc    1  139  is_stmt 1
        vinsertf128 $1, %xmm12, %ymm6, %ymm10                   #139.29
..LN1683:
	.loc    1  126  is_stmt 1
        lea       -1232(%rbp), %rsi                             #126.13
..LN1684:
        vmovups   (%rsi), %ymm12                                #126.13
..LN1685:
        vmovups   -144(%rbp), %ymm6                             #126.13
..LN1686:
	.loc    1  139  is_stmt 1
        vinsertf128 $1, %xmm2, %ymm11, %ymm4                    #139.29
..LN1687:
	.loc    1  126  is_stmt 1
        vmovups   -80(%rbp), %ymm11                             #126.13
..LN1688:
        vmovups   -112(%rbp), %ymm2                             #126.13
..LN1689:
        vblendvps %ymm4, %ymm6, %ymm12, %ymm5                   #126.13
..LN1690:
        vblendvps %ymm10, %ymm2, %ymm8, %ymm14                  #126.13
..LN1691:
        vmovups   -1136(%rbp), %ymm12                           #126.13
..LN1692:
        vmovups   %ymm5, (%rsi)                                 #126.13
..LN1693:
        vmovups   (%r9), %ymm5                                  #126.20
..LN1694:
        vmovups   %ymm14, (%rdi)                                #126.13
..LN1695:
        vmovups   -1072(%rbp), %ymm14                           #126.20
..LN1696:
	.loc    1  127  is_stmt 1
        vmulps    %ymm2, %ymm2, %ymm2                           #127.16
..LN1697:
	.loc    1  139  is_stmt 1
        vinsertf128 $1, %xmm9, %ymm15, %ymm9                    #139.29
..LN1698:
	.loc    1  126  is_stmt 1
        vmovups   -48(%rbp), %ymm15                             #126.13
..LN1699:
	.loc    1  139  is_stmt 1
        vinsertf128 $1, %xmm3, %ymm7, %ymm3                     #139.29
..LN1700:
	.loc    1  126  is_stmt 1
        vblendvps %ymm3, %ymm11, %ymm13, %ymm0                  #126.13
..LN1701:
        vblendvps %ymm9, %ymm15, %ymm12, %ymm7                  #126.13
..LN1702:
        vmovups   -272(%rbp), %ymm13                            #126.20
..LN1703:
        vmovups   %ymm0, (%r8)                                  #126.13
..LN1704:
        vmovups   %ymm7, -1136(%rbp)                            #126.13
..LN1705:
        vmovups   -240(%rbp), %ymm0                             #126.20
..LN1706:
        vmovups   -1040(%rbp), %ymm7                            #126.20
..LN1707:
        vblendvps %ymm4, %ymm13, %ymm5, %ymm8                   #126.20
..LN1708:
        vblendvps %ymm10, %ymm0, %ymm14, %ymm12                 #126.20
..LN1709:
        vmovups   -208(%rbp), %ymm5                             #126.20
..LN1710:
        vmovups   -1008(%rbp), %ymm14                           #126.20
..LN1711:
        vmovups   %ymm8, (%r9)                                  #126.20
..LN1712:
        vmovups   %ymm12, -1072(%rbp)                           #126.20
..LN1713:
	.loc    1  127  is_stmt 1
        vmulps    %ymm13, %ymm13, %ymm13                        #127.24
..LN1714:
	.loc    1  126  is_stmt 1
        vblendvps %ymm3, %ymm5, %ymm7, %ymm8                    #126.20
..LN1715:
        vmovups   -176(%rbp), %ymm7                             #126.20
..LN1716:
        vmovups   %ymm8, -1040(%rbp)                            #126.20
..LN1717:
        vblendvps %ymm9, %ymm7, %ymm14, %ymm12                  #126.20
..LN1718:
	.loc    1  127  is_stmt 1
        vmulps    %ymm5, %ymm5, %ymm14                          #127.24
..LN1719:
	.loc    1  126  is_stmt 1
        vmovups   %ymm12, -1008(%rbp)                           #126.20
..LN1720:
	.loc    1  127  is_stmt 1
        vmulps    %ymm0, %ymm0, %ymm12                          #127.24
..LN1721:
        vmulps    %ymm6, %ymm6, %ymm0                           #127.16
..LN1722:
        vmulps    %ymm7, %ymm7, %ymm8                           #127.24
..LN1723:
        vmovups   .L_2il0floatpacket.14(%rip), %ymm6            #127.28
..LN1724:
        vaddps    %ymm2, %ymm12, %ymm7                          #127.24
..LN1725:
        vaddps    %ymm0, %ymm13, %ymm5                          #127.24
..LN1726:
        vmulps    %ymm11, %ymm11, %ymm12                        #127.16
..LN1727:
        vmulps    %ymm15, %ymm15, %ymm0                         #127.16
..LN1728:
        vcmpltps  %ymm6, %ymm5, %ymm5                           #127.28
..LN1729:
        vaddps    %ymm12, %ymm14, %ymm12                        #127.24
..LN1730:
        vaddps    %ymm0, %ymm8, %ymm2                           #127.24
..LN1731:
        vcmpltps  %ymm6, %ymm12, %ymm12                         #127.28
..LN1732:
        vandps    %ymm5, %ymm4, %ymm0                           #127.28
..LN1733:
        vcmpltps  %ymm6, %ymm7, %ymm4                           #127.28
..LN1734:
        vandps    %ymm12, %ymm3, %ymm5                          #127.28
..LN1735:
        vcmpltps  %ymm6, %ymm2, %ymm3                           #127.28
..LN1736:
        vmovups   .L_2il0floatpacket.17(%rip), %ymm6            #127.28
..LN1737:
        vandps    %ymm4, %ymm10, %ymm4                          #127.28
..LN1738:
        vandps    %ymm3, %ymm9, %ymm7                           #127.28
..LN1739:
        vxorps    %ymm0, %ymm6, %ymm2                           #127.28
..LN1740:
        vxorps    %ymm4, %ymm6, %ymm3                           #127.28
..LN1741:
        vandnps   -816(%rbp), %ymm2, %ymm10                     #127.5
..LN1742:
        vandnps   -624(%rbp), %ymm3, %ymm11                     #127.5
..LN1743:
        vxorps    %ymm5, %ymm6, %ymm8                           #127.28
..LN1744:
        vandnps   -592(%rbp), %ymm8, %ymm13                     #127.5
..LN1745:
        vxorps    %ymm7, %ymm6, %ymm9                           #127.28
..LN1746:
        vorps     %ymm11, %ymm10, %ymm12                        #127.5
..LN1747:
        vandnps   -560(%rbp), %ymm9, %ymm15                     #127.5
..LN1748:
        vorps     %ymm13, %ymm12, %ymm14                        #127.5
..LN1749:
        vorps     %ymm15, %ymm14, %ymm0                         #127.5
..LN1750:
        vmovups   %ymm10, -816(%rbp)                            #127.5
..LN1751:
        vmovups   %ymm11, -624(%rbp)                            #127.5
..LN1752:
        vmovups   %ymm13, -592(%rbp)                            #127.5
..LN1753:
        vmovups   %ymm15, -560(%rbp)                            #127.5
..LN1754:
        vptest    .L_2il0floatpacket.15(%rip), %ymm0            #127.5
..LN1755:
        vmovups   -528(%rbp), %ymm0                             #127.5
..LN1756:
        jne       ..B6.3        # Prob 50%                      #127.5
..LN1757:
                                # LOE r12 r13 r14 r15 eax edx xmm1 ymm0
..B6.11:                        # Preds ..B6.4 ..B6.3
..LN1758:
        vmovdqu   %xmm1, -1760(%rbp)                            #
..LN1759:
        vmovdqu   -1872(%rbp), %xmm5                            #
..LN1760:
        vmovdqu   -1856(%rbp), %xmm6                            #
..LN1761:
        vmovdqu   -1840(%rbp), %xmm8                            #
..LN1762:
        vmovdqu   -1792(%rbp), %xmm9                            #
..LN1763:
                                # LOE r12 r13 r14 r15 edx xmm5 xmm6 xmm8 xmm9 ymm5 ymm6 ymm8 ymm9 zmm5 zmm6 zmm8 zmm9
..B6.7:                         # Preds ..B6.11 ..B6.1
..LN1764:
	.loc    1  123  is_stmt 1
        vmovd     %edx, %xmm10                                  #123.5
..LN1765:
        vpshufd   $0, %xmm10, %xmm11                            #123.5
..LN1766:
	.loc    1  146  is_stmt 1
        vpminsd   %xmm5, %xmm11, %xmm7                          #146.5
..LN1767:
        vpminsd   %xmm6, %xmm11, %xmm6                          #146.5
..LN1768:
        vpminsd   %xmm8, %xmm11, %xmm5                          #146.5
..LN1769:
        vpminsd   -1776(%rbp), %xmm11, %xmm4                    #146.5
..LN1770:
        vpminsd   -1760(%rbp), %xmm11, %xmm3                    #146.5
..LN1771:
        vpminsd   -1824(%rbp), %xmm11, %xmm2                    #146.5
..LN1772:
        vpminsd   -1808(%rbp), %xmm11, %xmm1                    #146.5
..LN1773:
        vpminsd   %xmm9, %xmm11, %xmm0                          #146.5
..LN1774:
	.loc    1  147  is_stmt 1
        vzeroupper                                              #147.12
..LN1775:
	.loc    1  147  epilogue_begin  is_stmt 1
        leave                                                   #147.12
	.cfi_restore 6
..LN1776:
        movq      %rbx, %rsp                                    #147.12
..LN1777:
        popq      %rbx                                          #147.12
	.cfi_def_cfa 7, 8
	.cfi_restore 3
..LN1778:
        ret                                                     #147.12
        .align    16,0x90
	.cfi_endproc
..LN1779:
                                # LOE
..LN1780:
# mark_end;
	.type	_ZGVxN32vvu_9mandel_v4ffi,@function
	.size	_ZGVxN32vvu_9mandel_v4ffi,.-_ZGVxN32vvu_9mandel_v4ffi
..LN_ZGVxN32vvu_9mandel_v4ffi.1781:
.LN_ZGVxN32vvu_9mandel_v4ffi:
	.data
# -- End  _ZGVxN32vvu_9mandel_v4ffi
	.text
.L_2__routine_start__ZGVxM32vvu_9mandel_v4ffi_6:
# -- Begin  _ZGVxM32vvu_9mandel_v4ffi
	.text
# mark_begin;
       .align    16,0x90
	.globl _ZGVxM32vvu_9mandel_v4ffi
# --- mandel_v4..xM32vvu(float, float, int)
_ZGVxM32vvu_9mandel_v4ffi:
# parameter 1: %xmm0
# parameter 2: %xmm1
# parameter 3: %xmm2
# parameter 4: %xmm3
# parameter 5: %xmm4
# parameter 6: %xmm5
# parameter 7: %xmm6
# parameter 8: %xmm7
# parameter 9: %xmm8
# parameter 10: %xmm9
# parameter 11: %xmm10
# parameter 12: %xmm11
# parameter 13: %xmm12
# parameter 14: %xmm13
# parameter 15: %xmm14
# parameter 16: %xmm15
# parameter 17(max_iter): %eax
# parameter 18: 16 + %rbx
# parameter 19: 32 + %rbx
# parameter 20: 48 + %rbx
# parameter 21: 64 + %rbx
# parameter 22: 80 + %rbx
# parameter 23: 96 + %rbx
# parameter 24: 112 + %rbx
# parameter 25: 128 + %rbx
..B7.1:                         # Preds ..B7.0
	.cfi_startproc
	.cfi_personality 0x3,__gxx_personality_v0
..___tag_value__ZGVxM32vvu_9mandel_v4ffi.295:
..L296:
                                                        #124.1
..LN1782:
	.loc    1  124  is_stmt 1
        pushq     %rbx                                          #124.1
	.cfi_def_cfa_offset 16
..LN1783:
        movq      %rsp, %rbx                                    #124.1
	.cfi_def_cfa 3, 16
	.cfi_offset 3, -16
..LN1784:
        andq      $-32, %rsp                                    #124.1
..LN1785:
        pushq     %rbp                                          #124.1
..LN1786:
        pushq     %rbp                                          #124.1
..LN1787:
        movq      8(%rbx), %rbp                                 #124.1
..LN1788:
        movq      %rbp, 8(%rsp)                                 #124.1
..LN1789:
        movq      %rsp, %rbp                                    #124.1
	.cfi_escape 0x10, 0x06, 0x02, 0x76, 0x00
..LN1790:
        subq      $1872, %rsp                                   #124.1
..LN1791:
        movl      %eax, %edx                                    #124.1
..LN1792:
        vinsertf128 $1, %xmm1, %ymm0, %ymm0                     #124.1
..LN1793:
        vinsertf128 $1, %xmm3, %ymm2, %ymm1                     #124.1
..LN1794:
        vmovdqu   32(%rbx), %xmm2                               #124.1
..LN1795:
        vinsertf128 $1, %xmm5, %ymm4, %ymm3                     #124.1
..LN1796:
        vmovdqu   48(%rbx), %xmm4                               #124.1
..LN1797:
        vinsertf128 $1, %xmm7, %ymm6, %ymm5                     #124.1
..LN1798:
        vinsertf128 $1, %xmm9, %ymm8, %ymm7                     #124.1
..LN1799:
        vinsertf128 $1, %xmm11, %ymm10, %ymm9                   #124.1
..LN1800:
        vinsertf128 $1, %xmm13, %ymm12, %ymm11                  #124.1
..LN1801:
        vpor      16(%rbx), %xmm2, %xmm12                       #124.1
..LN1802:
        vmovdqu   64(%rbx), %xmm6                               #124.1
..LN1803:
        vpor      %xmm4, %xmm12, %xmm12                         #124.1
..LN1804:
        vpor      %xmm6, %xmm12, %xmm12                         #124.1
..LN1805:
        vmovdqu   96(%rbx), %xmm8                               #124.1
..LN1806:
        vpor      80(%rbx), %xmm12, %xmm12                      #124.1
..LN1807:
        vpor      %xmm8, %xmm12, %xmm12                         #124.1
..LN1808:
        vpor      112(%rbx), %xmm12, %xmm12                     #124.1
..LN1809:
        vmovups   %ymm9, -848(%rbp)                             #124.1
..LN1810:
        vmovups   %ymm11, -816(%rbp)                            #124.1
..LN1811:
        vinsertf128 $1, %xmm15, %ymm14, %ymm13                  #124.1
..LN1812:
        vmovdqu   128(%rbx), %xmm15                             #124.1
..LN1813:
        vpcmpeqd  %xmm14, %xmm14, %xmm14                        #124.1
..LN1814:
        vpor      %xmm15, %xmm12, %xmm12                        #124.1
..LN1815:
        vmovups   %ymm13, -784(%rbp)                            #124.1
..LN1816:
        vptest    %xmm14, %xmm12                                #124.1
..LN1817:
	.loc    1  124  prologue_end  is_stmt 1
        je        ..B7.9        # Prob 50%                      #124.1
..LN1818:
                                # LOE r12 r13 r14 r15 edx xmm2 xmm4 xmm6 xmm8 xmm9 xmm10 xmm11 xmm13 xmm15 ymm0 ymm1 ymm3 ymm5 ymm7
..B7.2:                         # Preds ..B7.1
..LN1819:
	.loc    1  125  is_stmt 1
        xorl      %eax, %eax                                    #125.14
..LN1820:
        incl      %eax                                          #125.14
..LN1821:
	.loc    1  126  is_stmt 1
        vmovups   -816(%rbp), %ymm13                            #126.20
..LN1822:
        vmovups   -848(%rbp), %ymm14                            #126.20
..LN1823:
        lea       -1008(%rbp), %rcx                             #
..LN1824:
        vmovups   %ymm7, (%rcx)                                 #
..LN1825:
	.loc    1  125  is_stmt 1
        vmovd     %eax, %xmm11                                  #125.14
..LN1826:
        vpshufd   $0, %xmm11, %xmm12                            #125.14
..LN1827:
        lea       -1728(%rbp), %rax                             #125.14
..LN1828:
        vmovdqu   %xmm12, (%rax)                                #125.14
..LN1829:
        vmovdqu   %xmm12, -1856(%rbp)                           #125.14
..LN1830:
	.loc    1  126  is_stmt 1
        vmovups   %ymm7, -624(%rbp)                             #126.20
..LN1831:
        vmovups   %ymm13, -560(%rbp)                            #126.20
..LN1832:
	.loc    1  127  is_stmt 1
        vmulps    %ymm0, %ymm0, %ymm9                           #127.16
..LN1833:
        vmulps    %ymm3, %ymm3, %ymm11                          #127.16
..LN1834:
        vmulps    %ymm7, %ymm7, %ymm7                           #127.24
..LN1835:
        vmulps    %ymm13, %ymm13, %ymm13                        #127.24
..LN1836:
	.loc    1  125  is_stmt 1
        lea       -1712(%rbp), %rsi                             #125.14
..LN1837:
        vmovdqu   %xmm12, (%rsi)                                #125.14
..LN1838:
        vmovdqu   %xmm12, -1840(%rbp)                           #125.14
..LN1839:
        vmovdqu   %xmm12, -1824(%rbp)                           #125.14
..LN1840:
        vmovdqu   %xmm12, -1808(%rbp)                           #125.14
..LN1841:
        vmovdqu   %xmm12, -1872(%rbp)                           #125.14
..LN1842:
        vmovdqu   %xmm12, -1792(%rbp)                           #125.14
..LN1843:
	.loc    1  126  is_stmt 1
        vmovups   %ymm14, -592(%rbp)                            #126.20
..LN1844:
        vmovups   -784(%rbp), %ymm12                            #126.20
..LN1845:
	.loc    1  127  is_stmt 1
        vmulps    %ymm1, %ymm1, %ymm10                          #127.16
..LN1846:
        vmulps    %ymm14, %ymm14, %ymm14                        #127.24
..LN1847:
        lea       -944(%rbp), %rdi                              #
..LN1848:
        vmovups   %ymm5, (%rdi)                                 #
..LN1849:
	.loc    1  126  is_stmt 1
        vmovups   %ymm5, -656(%rbp)                             #126.13
..LN1850:
	.loc    1  127  is_stmt 1
        vmulps    %ymm5, %ymm5, %ymm5                           #127.16
..LN1851:
	.loc    1  126  is_stmt 1
        vmovups   %ymm12, -528(%rbp)                            #126.20
..LN1852:
        vmovups   %ymm0, -752(%rbp)                             #126.13
..LN1853:
        vmovups   %ymm1, -720(%rbp)                             #126.13
..LN1854:
        vmovups   %ymm3, -688(%rbp)                             #126.13
..LN1855:
	.loc    1  127  is_stmt 1
        vaddps    %ymm7, %ymm9, %ymm9                           #127.24
..LN1856:
        vaddps    %ymm13, %ymm11, %ymm7                         #127.24
..LN1857:
        vaddps    %ymm14, %ymm10, %ymm10                        #127.24
..LN1858:
        lea       .L_2il0floatpacket.14(%rip), %r8              #127.28
..LN1859:
        vmovups   (%r8), %ymm11                                 #127.28
..LN1860:
        vmulps    %ymm12, %ymm12, %ymm14                        #127.24
..LN1861:
        vcmpltps  %ymm11, %ymm9, %ymm9                          #127.28
..LN1862:
        vaddps    %ymm14, %ymm5, %ymm5                          #127.24
..LN1863:
        vcmpltps  %ymm11, %ymm10, %ymm14                        #127.28
..LN1864:
        vcmpltps  %ymm11, %ymm7, %ymm10                         #127.28
..LN1865:
        vcmpltps  %ymm11, %ymm5, %ymm7                          #127.28
..LN1866:
        vextractf128 $1, %ymm9, %xmm12                          #127.28
..LN1867:
        vpand     16(%rbx), %xmm9, %xmm13                       #127.28
..LN1868:
        vmovdqu   %xmm13, -1696(%rbp)                           #127.28
..LN1869:
        vpand     %xmm12, %xmm2, %xmm5                          #127.28
..LN1870:
        vmovdqu   %xmm5, -1680(%rbp)                            #127.28
..LN1871:
        vpor      %xmm5, %xmm13, %xmm5                          #127.28
..LN1872:
        vpand     %xmm14, %xmm4, %xmm9                          #127.28
..LN1873:
        vextractf128 $1, %ymm14, %xmm11                         #127.28
..LN1874:
        vpor      %xmm9, %xmm5, %xmm13                          #127.28
..LN1875:
        vpand     %xmm11, %xmm6, %xmm12                         #127.28
..LN1876:
        vpor      %xmm12, %xmm13, %xmm5                         #127.28
..LN1877:
        vmovdqu   %xmm12, -1664(%rbp)                           #127.28
..LN1878:
        vpcmpeqd  %xmm13, %xmm13, %xmm13                        #127.28
..LN1879:
        vpand     80(%rbx), %xmm10, %xmm11                      #127.28
..LN1880:
        vextractf128 $1, %ymm10, %xmm10                         #127.28
..LN1881:
        vmovdqu   %xmm11, -1648(%rbp)                           #127.28
..LN1882:
        vpor      %xmm11, %xmm5, %xmm11                         #127.28
..LN1883:
        vmovups   (%rdi), %ymm5                                 #127.28
..LN1884:
        vpand     %xmm10, %xmm8, %xmm14                         #127.28
..LN1885:
        vpor      %xmm14, %xmm11, %xmm12                        #127.28
..LN1886:
        vmovdqu   (%rsi), %xmm11                                #127.28
..LN1887:
        vmovdqu   %xmm14, -1632(%rbp)                           #127.28
..LN1888:
        vpand     112(%rbx), %xmm7, %xmm10                      #127.28
..LN1889:
        vextractf128 $1, %ymm7, %xmm7                           #127.28
..LN1890:
        vmovdqu   %xmm10, -1504(%rbp)                           #127.28
..LN1891:
        vpor      %xmm10, %xmm12, %xmm10                        #127.28
..LN1892:
        vmovdqu   (%rax), %xmm12                                #127.28
..LN1893:
        vpand     %xmm7, %xmm15, %xmm7                          #127.28
..LN1894:
        vmovdqu   %xmm7, -1616(%rbp)                            #127.28
..LN1895:
        vpor      %xmm7, %xmm10, %xmm7                          #127.28
..LN1896:
        vmovups   (%r8), %ymm10                                 #127.28
..LN1897:
        vptest    %xmm13, %xmm7                                 #127.28
..LN1898:
        vmovups   (%rcx), %ymm7                                 #127.28
..LN1899:
        je        ..B7.8        # Prob 50%                      #127.28
..LN1900:
                                # LOE r12 r13 r14 r15 edx xmm0 xmm1 xmm2 xmm3 xmm4 xmm5 xmm6 xmm7 xmm8 xmm9 xmm11 xmm12 xmm15 ymm0 ymm1 ymm3 ymm5 ymm7 ymm10 ymm11 ymm12 zmm0 zmm1 zmm3 zmm5 zmm7 zmm11 zmm12
..B7.3:                         # Preds ..B7.2
..LN1901:
        vmovdqu   -1696(%rbp), %xmm13                           #127.5
..LN1902:
        xorl      %eax, %eax                                    #127.5
..LN1903:
        vmovdqu   %xmm13, -1600(%rbp)                           #127.5
..LN1904:
        vmovdqu   -1680(%rbp), %xmm14                           #127.5
..LN1905:
        vmovdqu   -1664(%rbp), %xmm13                           #127.5
..LN1906:
        vmovdqu   %xmm14, -1584(%rbp)                           #127.5
..LN1907:
        vmovdqu   %xmm13, -1552(%rbp)                           #127.5
..LN1908:
        vmovdqu   -1648(%rbp), %xmm14                           #127.5
..LN1909:
        vmovdqu   -1632(%rbp), %xmm13                           #127.5
..LN1910:
        vmovdqu   %xmm14, -1536(%rbp)                           #127.5
..LN1911:
        vmovdqu   %xmm13, -1520(%rbp)                           #127.5
..LN1912:
        vmovdqu   -1504(%rbp), %xmm14                           #127.5
..LN1913:
        vmovdqu   -1616(%rbp), %xmm13                           #127.5
..LN1914:
        vmovdqu   %xmm9, -1568(%rbp)                            #127.5
..LN1915:
        vmovdqu   %xmm13, -1744(%rbp)                           #127.5
..LN1916:
        vmovdqu   %xmm14, -1760(%rbp)                           #127.5
..LN1917:
        vmovdqu   %xmm9, -1776(%rbp)                            #127.5
..LN1918:
        vmovdqu   %xmm11, -1712(%rbp)                           #127.5
..LN1919:
        vmovdqu   %xmm12, -1728(%rbp)                           #127.5
..LN1920:
        vmovups   %ymm7, -1008(%rbp)                            #127.5
..LN1921:
        vmovups   %ymm5, -944(%rbp)                             #127.5
..LN1922:
        vmovups   %ymm3, -880(%rbp)                             #127.5
..LN1923:
        vmovups   %ymm1, -976(%rbp)                             #127.5
..LN1924:
        vmovups   %ymm0, -912(%rbp)                             #127.5
..LN1925:
                                # LOE r12 r13 r14 r15 eax edx
..B7.4:                         # Preds ..B7.5 ..B7.3
..L302:         # optimization report
                # LOOP WAS VECTORIZED
                # loop was vectorized along with the enclosing function
..LN1926:
        incl      %eax                                          #127.5
..LN1927:
	.loc    1  146  is_stmt 1
        lea       -3(,%rax,4), %ecx                             #146.5
..LN1928:
        lea       (,%rax,4), %r8d                               #146.5
..LN1929:
	.loc    1  127  is_stmt 1
        cmpl      %ecx, %edx                                    #127.43
..LN1930:
        jle       ..B7.13       # Prob 50%                      #127.43
..LN1931:
                                # LOE r12 r13 r14 r15 eax edx ecx r8d
..B7.5:                         # Preds ..B7.4
..LN1932:
	.loc    1  128  is_stmt 1
        vmovups   -624(%rbp), %ymm2                             #128.27
..LN1933:
	.loc    1  125  is_stmt 1
        lea       -2(,%rax,4), %esi                             #125.14
..LN1934:
	.loc    1  128  is_stmt 1
        vmovups   -752(%rbp), %ymm1                             #128.31
..LN1935:
        lea       -592(%rbp), %r9                               #128.27
..LN1936:
        vmovups   (%r9), %ymm4                                  #128.27
..LN1937:
        vmovups   -720(%rbp), %ymm8                             #128.31
..LN1938:
        lea       -560(%rbp), %r10                              #128.27
..LN1939:
        vmovups   (%r10), %ymm6                                 #128.27
..LN1940:
        lea       -848(%rbp), %r11                              #128.35
..LN1941:
        vmovups   (%r11), %ymm14                                #128.35
..LN1942:
        vmovups   -816(%rbp), %ymm0                             #128.35
..LN1943:
        vaddps    %ymm2, %ymm2, %ymm12                          #128.27
..LN1944:
        vaddps    %ymm4, %ymm4, %ymm11                          #128.27
..LN1945:
        vaddps    %ymm6, %ymm6, %ymm5                           #128.27
..LN1946:
        vmulps    %ymm12, %ymm1, %ymm10                         #128.31
..LN1947:
        vmovups   -1008(%rbp), %ymm12                           #128.35
..LN1948:
        vmulps    %ymm11, %ymm8, %ymm13                         #128.31
..LN1949:
        vmovups   -688(%rbp), %ymm11                            #128.31
..LN1950:
	.loc    1  129  is_stmt 1
        vmulps    %ymm1, %ymm1, %ymm1                           #129.24
..LN1951:
        vmulps    %ymm8, %ymm8, %ymm8                           #129.24
..LN1952:
        vmulps    %ymm2, %ymm2, %ymm2                           #129.32
..LN1953:
        vmulps    %ymm4, %ymm4, %ymm4                           #129.32
..LN1954:
	.loc    1  128  is_stmt 1
        vmulps    %ymm5, %ymm11, %ymm3                          #128.31
..LN1955:
	.loc    1  129  is_stmt 1
        vmulps    %ymm11, %ymm11, %ymm11                        #129.24
..LN1956:
        vmulps    %ymm6, %ymm6, %ymm6                           #129.32
..LN1957:
	.loc    1  128  is_stmt 1
        vaddps    %ymm10, %ymm12, %ymm7                         #128.35
..LN1958:
        vaddps    %ymm13, %ymm14, %ymm15                        #128.35
..LN1959:
	.loc    1  129  is_stmt 1
        vaddps    -976(%rbp), %ymm8, %ymm8                      #129.36
..LN1960:
	.loc    1  128  is_stmt 1
        vaddps    %ymm3, %ymm0, %ymm3                           #128.35
..LN1961:
        vmovups   -528(%rbp), %ymm10                            #128.27
..LN1962:
        vmovups   -656(%rbp), %ymm13                            #128.31
..LN1963:
        vaddps    %ymm10, %ymm10, %ymm9                         #128.27
..LN1964:
        vmulps    %ymm9, %ymm13, %ymm5                          #128.31
..LN1965:
	.loc    1  125  is_stmt 1
        lea       -1(,%rax,4), %edi                             #125.14
..LN1966:
	.loc    1  129  is_stmt 1
        vmulps    %ymm13, %ymm13, %ymm13                        #129.24
..LN1967:
        vaddps    -912(%rbp), %ymm1, %ymm9                      #129.36
..LN1968:
        vaddps    -880(%rbp), %ymm11, %ymm1                     #129.36
..LN1969:
	.loc    1  128  is_stmt 1
        vaddps    -784(%rbp), %ymm5, %ymm5                      #128.35
..LN1970:
	.loc    1  129  is_stmt 1
        vsubps    %ymm2, %ymm9, %ymm2                           #129.32
..LN1971:
        vsubps    %ymm4, %ymm8, %ymm9                           #129.32
..LN1972:
        vsubps    %ymm6, %ymm1, %ymm8                           #129.32
..LN1973:
	.loc    1  127  is_stmt 1
        vmovdqu   -1584(%rbp), %xmm4                            #127.43
..LN1974:
        vmovdqu   -1568(%rbp), %xmm6                            #127.43
..LN1975:
	.loc    1  129  is_stmt 1
        vmovups   -944(%rbp), %ymm11                            #129.36
..LN1976:
        vmulps    %ymm10, %ymm10, %ymm1                         #129.32
..LN1977:
	.loc    1  127  is_stmt 1
        vmovdqu   -1600(%rbp), %xmm10                           #127.43
..LN1978:
        vpand     -1696(%rbp), %xmm10, %xmm10                   #127.43
..LN1979:
        vmovdqu   %xmm10, -1488(%rbp)                           #127.43
..LN1980:
	.loc    1  129  is_stmt 1
        vaddps    %ymm13, %ymm11, %ymm13                        #129.36
..LN1981:
        vsubps    %ymm1, %ymm13, %ymm13                         #129.32
..LN1982:
	.loc    1  127  is_stmt 1
        vpand     -1680(%rbp), %xmm4, %xmm1                     #127.43
..LN1983:
        vpand     -1776(%rbp), %xmm6, %xmm4                     #127.43
..LN1984:
        vmovdqu   -1552(%rbp), %xmm6                            #127.43
..LN1985:
        vpand     -1664(%rbp), %xmm6, %xmm6                     #127.43
..LN1986:
        vmovdqu   %xmm6, -1440(%rbp)                            #127.43
..LN1987:
        vmovdqu   -1536(%rbp), %xmm6                            #127.43
..LN1988:
        vpand     -1648(%rbp), %xmm6, %xmm6                     #127.43
..LN1989:
        vmovdqu   %xmm6, -1424(%rbp)                            #127.43
..LN1990:
        vmovdqu   -1520(%rbp), %xmm6                            #127.43
..LN1991:
        vpand     -1632(%rbp), %xmm6, %xmm6                     #127.43
..LN1992:
        vmovdqu   %xmm6, -1408(%rbp)                            #127.43
..LN1993:
        vmovdqu   -1760(%rbp), %xmm6                            #127.43
..LN1994:
        vpand     -1504(%rbp), %xmm6, %xmm6                     #127.43
..LN1995:
        vmovdqu   %xmm6, -1392(%rbp)                            #127.43
..LN1996:
        vmovdqu   -1744(%rbp), %xmm6                            #127.43
..LN1997:
        vpand     -1616(%rbp), %xmm6, %xmm6                     #127.43
..LN1998:
        vmovdqu   %xmm6, -1376(%rbp)                            #127.43
..LN1999:
	.loc    1  131  is_stmt 1
        vmulps    %ymm7, %ymm7, %ymm6                           #131.24
..LN2000:
	.loc    1  127  is_stmt 1
        vmovdqu   %xmm4, -1456(%rbp)                            #127.43
..LN2001:
        vmovdqu   %xmm1, -1472(%rbp)                            #127.43
..LN2002:
	.loc    1  132  is_stmt 1
        vaddps    %ymm7, %ymm7, %ymm7                           #132.27
..LN2003:
        vmulps    %ymm7, %ymm2, %ymm7                           #132.32
..LN2004:
	.loc    1  131  is_stmt 1
        vmulps    %ymm2, %ymm2, %ymm2                           #131.14
..LN2005:
	.loc    1  132  is_stmt 1
        vaddps    %ymm7, %ymm12, %ymm7                          #132.37
..LN2006:
	.loc    1  131  is_stmt 1
        vmulps    %ymm15, %ymm15, %ymm12                        #131.24
..LN2007:
	.loc    1  132  is_stmt 1
        vaddps    %ymm15, %ymm15, %ymm15                        #132.27
..LN2008:
        vmulps    %ymm15, %ymm9, %ymm15                         #132.32
..LN2009:
	.loc    1  131  is_stmt 1
        vmulps    %ymm9, %ymm9, %ymm9                           #131.14
..LN2010:
	.loc    1  132  is_stmt 1
        vaddps    %ymm15, %ymm14, %ymm14                        #132.37
..LN2011:
	.loc    1  131  is_stmt 1
        vmulps    %ymm8, %ymm8, %ymm15                          #131.14
..LN2012:
	.loc    1  132  is_stmt 1
        vmovups   %ymm14, -496(%rbp)                            #132.37
..LN2013:
	.loc    1  131  is_stmt 1
        vmulps    %ymm3, %ymm3, %ymm14                          #131.24
..LN2014:
	.loc    1  132  is_stmt 1
        vaddps    %ymm3, %ymm3, %ymm3                           #132.27
..LN2015:
        vmulps    %ymm3, %ymm8, %ymm3                           #132.32
..LN2016:
        vaddps    %ymm5, %ymm5, %ymm8                           #132.27
..LN2017:
        vaddps    %ymm3, %ymm0, %ymm0                           #132.37
..LN2018:
        vmovups   %ymm0, -464(%rbp)                             #132.37
..LN2019:
	.loc    1  131  is_stmt 1
        vmulps    %ymm5, %ymm5, %ymm0                           #131.24
..LN2020:
	.loc    1  132  is_stmt 1
        vmulps    %ymm8, %ymm13, %ymm5                          #132.32
..LN2021:
	.loc    1  131  is_stmt 1
        vmulps    %ymm13, %ymm13, %ymm13                        #131.14
..LN2022:
        vaddps    %ymm2, %ymm6, %ymm8                           #131.24
..LN2023:
	.loc    1  132  is_stmt 1
        vaddps    -784(%rbp), %ymm5, %ymm3                      #132.37
..LN2024:
	.loc    1  133  is_stmt 1
        vaddps    -912(%rbp), %ymm2, %ymm2                      #133.40
..LN2025:
	.loc    1  131  is_stmt 1
        vmovups   .L_2il0floatpacket.14(%rip), %ymm5            #131.29
..LN2026:
	.loc    1  132  is_stmt 1
        vmovups   %ymm3, -432(%rbp)                             #132.37
..LN2027:
	.loc    1  133  is_stmt 1
        vsubps    %ymm6, %ymm2, %ymm6                           #133.35
..LN2028:
	.loc    1  131  is_stmt 1
        vcmpltps  %ymm5, %ymm8, %ymm3                           #131.29
..LN2029:
        vaddps    %ymm9, %ymm12, %ymm8                          #131.24
..LN2030:
	.loc    1  133  is_stmt 1
        vaddps    -976(%rbp), %ymm9, %ymm9                      #133.40
..LN2031:
	.loc    1  131  is_stmt 1
        vcmpltps  %ymm5, %ymm8, %ymm8                           #131.29
..LN2032:
	.loc    1  133  is_stmt 1
        vsubps    %ymm12, %ymm9, %ymm9                          #133.35
..LN2033:
	.loc    1  131  is_stmt 1
        vaddps    %ymm15, %ymm14, %ymm12                        #131.24
..LN2034:
        vcmpltps  %ymm5, %ymm12, %ymm2                          #131.29
..LN2035:
	.loc    1  133  is_stmt 1
        vmovups   -880(%rbp), %ymm12                            #133.40
..LN2036:
        vaddps    %ymm15, %ymm12, %ymm15                        #133.40
..LN2037:
        vsubps    %ymm14, %ymm15, %ymm15                        #133.35
..LN2038:
	.loc    1  131  is_stmt 1
        vaddps    %ymm13, %ymm0, %ymm14                         #131.24
..LN2039:
	.loc    1  133  is_stmt 1
        vaddps    %ymm13, %ymm11, %ymm13                        #133.40
..LN2040:
	.loc    1  131  is_stmt 1
        vcmpltps  %ymm5, %ymm14, %ymm14                         #131.29
..LN2041:
	.loc    1  133  is_stmt 1
        vsubps    %ymm0, %ymm13, %ymm0                          #133.35
..LN2042:
	.loc    1  131  is_stmt 1
        vpand     %xmm3, %xmm10, %xmm10                         #131.29
..LN2043:
        vextractf128 $1, %ymm3, %xmm13                          #131.29
..LN2044:
        vmovdqu   %xmm10, -1360(%rbp)                           #131.29
..LN2045:
        vpand     %xmm13, %xmm1, %xmm1                          #131.29
..LN2046:
        vmovdqu   %xmm1, -1344(%rbp)                            #131.29
..LN2047:
        vpand     %xmm8, %xmm4, %xmm4                           #131.29
..LN2048:
        vextractf128 $1, %ymm8, %xmm3                           #131.29
..LN2049:
        vmovdqu   %xmm4, -1328(%rbp)                            #131.29
..LN2050:
        vpand     -1440(%rbp), %xmm3, %xmm8                     #131.29
..LN2051:
        vmovdqu   %xmm8, -1312(%rbp)                            #131.29
..LN2052:
        vextractf128 $1, %ymm2, %xmm3                           #131.29
..LN2053:
        vpand     -1424(%rbp), %xmm2, %xmm13                    #131.29
..LN2054:
        vmovdqu   %xmm13, -1296(%rbp)                           #131.29
..LN2055:
        vpand     -1408(%rbp), %xmm3, %xmm8                     #131.29
..LN2056:
        vmovdqu   %xmm8, -1280(%rbp)                            #131.29
..LN2057:
        vextractf128 $1, %ymm14, %xmm3                          #131.29
..LN2058:
        vpand     -1392(%rbp), %xmm14, %xmm2                    #131.29
..LN2059:
        vmovdqu   %xmm2, -1264(%rbp)                            #131.29
..LN2060:
	.loc    1  135  is_stmt 1
        vmulps    %ymm7, %ymm7, %ymm14                          #135.24
..LN2061:
	.loc    1  131  is_stmt 1
        .byte     15                                            #131.29
..LN2062:
        .byte     31                                            #131.29
..LN2063:
        .byte     0                                             #131.29
..LN2064:
        vpand     -1376(%rbp), %xmm3, %xmm8                     #131.29
..LN2065:
        vmovdqu   %xmm8, -1248(%rbp)                            #131.29
..LN2066:
	.loc    1  136  is_stmt 1
        vaddps    %ymm7, %ymm7, %ymm7                           #136.27
..LN2067:
	.loc    1  135  is_stmt 1
        vmulps    %ymm6, %ymm6, %ymm3                           #135.14
..LN2068:
	.loc    1  136  is_stmt 1
        vmulps    %ymm7, %ymm6, %ymm8                           #136.32
..LN2069:
        vaddps    -1008(%rbp), %ymm8, %ymm6                     #136.37
..LN2070:
	.loc    1  135  is_stmt 1
        vmovups   -496(%rbp), %ymm8                             #135.24
..LN2071:
	.loc    1  136  is_stmt 1
        vmovups   %ymm6, -400(%rbp)                             #136.37
..LN2072:
	.loc    1  135  is_stmt 1
        vmulps    %ymm15, %ymm15, %ymm6                         #135.14
..LN2073:
        vmulps    %ymm8, %ymm8, %ymm13                          #135.24
..LN2074:
	.loc    1  136  is_stmt 1
        vaddps    %ymm8, %ymm8, %ymm2                           #136.27
..LN2075:
	.loc    1  135  is_stmt 1
        vmulps    %ymm9, %ymm9, %ymm8                           #135.14
..LN2076:
	.loc    1  136  is_stmt 1
        vmulps    %ymm2, %ymm9, %ymm7                           #136.32
..LN2077:
	.loc    1  135  is_stmt 1
        vmovups   -464(%rbp), %ymm2                             #135.24
..LN2078:
	.loc    1  136  is_stmt 1
        .byte     15                                            #136.37
..LN2079:
        .byte     31                                            #136.37
..LN2080:
        .byte     64                                            #136.37
..LN2081:
        .byte     0                                             #136.37
..LN2082:
        vaddps    (%r11), %ymm7, %ymm9                          #136.37
..LN2083:
	.loc    1  135  is_stmt 1
        vmulps    %ymm2, %ymm2, %ymm7                           #135.24
..LN2084:
	.loc    1  136  is_stmt 1
        vmovups   %ymm9, -368(%rbp)                             #136.37
..LN2085:
        vaddps    %ymm2, %ymm2, %ymm9                           #136.27
..LN2086:
        vmulps    %ymm9, %ymm15, %ymm2                          #136.32
..LN2087:
        vaddps    -816(%rbp), %ymm2, %ymm15                     #136.37
..LN2088:
        vmovups   %ymm15, -336(%rbp)                            #136.37
..LN2089:
	.loc    1  135  is_stmt 1
        vmovups   -432(%rbp), %ymm15                            #135.24
..LN2090:
	.loc    1  136  is_stmt 1
        vaddps    %ymm15, %ymm15, %ymm9                         #136.27
..LN2091:
	.loc    1  135  is_stmt 1
        vmulps    %ymm15, %ymm15, %ymm2                         #135.24
..LN2092:
        vmulps    %ymm0, %ymm0, %ymm15                          #135.14
..LN2093:
	.loc    1  136  is_stmt 1
        vmulps    %ymm9, %ymm0, %ymm9                           #136.32
..LN2094:
        vaddps    -784(%rbp), %ymm9, %ymm0                      #136.37
..LN2095:
        vmovups   %ymm0, -304(%rbp)                             #136.37
..LN2096:
	.loc    1  135  is_stmt 1
        vaddps    %ymm3, %ymm14, %ymm0                          #135.24
..LN2097:
	.loc    1  137  is_stmt 1
        vaddps    -912(%rbp), %ymm3, %ymm3                      #137.40
..LN2098:
	.loc    1  135  is_stmt 1
        vcmpltps  %ymm5, %ymm0, %ymm9                           #135.29
..LN2099:
	.loc    1  137  is_stmt 1
        vsubps    %ymm14, %ymm3, %ymm14                         #137.35
..LN2100:
	.loc    1  135  is_stmt 1
        vaddps    %ymm8, %ymm13, %ymm3                          #135.24
..LN2101:
        vcmpltps  %ymm5, %ymm3, %ymm0                           #135.29
..LN2102:
	.loc    1  137  is_stmt 1
        vmovups   -976(%rbp), %ymm3                             #137.40
..LN2103:
        vaddps    %ymm8, %ymm3, %ymm8                           #137.40
..LN2104:
        vsubps    %ymm13, %ymm8, %ymm8                          #137.35
..LN2105:
	.loc    1  135  is_stmt 1
        vaddps    %ymm6, %ymm7, %ymm13                          #135.24
..LN2106:
	.loc    1  137  is_stmt 1
        vaddps    %ymm6, %ymm12, %ymm6                          #137.40
..LN2107:
	.loc    1  135  is_stmt 1
        vcmpltps  %ymm5, %ymm13, %ymm13                         #135.29
..LN2108:
	.loc    1  137  is_stmt 1
        vsubps    %ymm7, %ymm6, %ymm6                           #137.35
..LN2109:
	.loc    1  135  is_stmt 1
        vaddps    %ymm15, %ymm2, %ymm7                          #135.24
..LN2110:
	.loc    1  137  is_stmt 1
        vaddps    %ymm15, %ymm11, %ymm15                        #137.40
..LN2111:
	.loc    1  135  is_stmt 1
        vcmpltps  %ymm5, %ymm7, %ymm7                           #135.29
..LN2112:
	.loc    1  137  is_stmt 1
        vsubps    %ymm2, %ymm15, %ymm2                          #137.35
..LN2113:
	.loc    1  135  is_stmt 1
        vpand     %xmm9, %xmm10, %xmm10                         #135.29
..LN2114:
        vextractf128 $1, %ymm9, %xmm15                          #135.29
..LN2115:
        vpand     %xmm15, %xmm1, %xmm1                          #135.29
..LN2116:
        vpand     -1296(%rbp), %xmm13, %xmm9                    #135.29
..LN2117:
        vmovdqu   %xmm9, -1200(%rbp)                            #135.29
..LN2118:
	.loc    1  139  is_stmt 1
        vmovups   -400(%rbp), %ymm9                             #139.24
..LN2119:
	.loc    1  135  is_stmt 1
        vpand     %xmm0, %xmm4, %xmm4                           #135.29
..LN2120:
        vextractf128 $1, %ymm0, %xmm15                          #135.29
..LN2121:
        vmovdqu   %xmm4, -1232(%rbp)                            #135.29
..LN2122:
        vextractf128 $1, %ymm13, %xmm4                          #135.29
..LN2123:
        vpand     -1312(%rbp), %xmm15, %xmm0                    #135.29
..LN2124:
        vmovdqu   %xmm0, -1216(%rbp)                            #135.29
..LN2125:
        vpand     -1280(%rbp), %xmm4, %xmm15                    #135.29
..LN2126:
	.loc    1  140  is_stmt 1
        vaddps    %ymm9, %ymm9, %ymm4                           #140.27
..LN2127:
	.loc    1  135  is_stmt 1
        vmovdqu   %xmm15, -1184(%rbp)                           #135.29
..LN2128:
        vextractf128 $1, %ymm7, %xmm15                          #135.29
..LN2129:
        vpand     -1264(%rbp), %xmm7, %xmm0                     #135.29
..LN2130:
        vmovdqu   %xmm0, -1168(%rbp)                            #135.29
..LN2131:
	.loc    1  140  is_stmt 1
        vmulps    %ymm4, %ymm14, %ymm7                          #140.32
..LN2132:
	.loc    1  135  is_stmt 1
        vpand     -1248(%rbp), %xmm15, %xmm13                   #135.29
..LN2133:
        vmovdqu   %xmm13, -1152(%rbp)                           #135.29
..LN2134:
	.loc    1  139  is_stmt 1
        vmovups   -368(%rbp), %ymm15                            #139.24
..LN2135:
        vmulps    %ymm9, %ymm9, %ymm0                           #139.24
..LN2136:
        vmulps    %ymm14, %ymm14, %ymm9                         #139.14
..LN2137:
	.loc    1  140  is_stmt 1
        vaddps    -1008(%rbp), %ymm7, %ymm14                    #140.37
..LN2138:
	.loc    1  139  is_stmt 1
        vmulps    %ymm15, %ymm15, %ymm13                        #139.24
..LN2139:
	.loc    1  140  is_stmt 1
        vmovups   %ymm14, -272(%rbp)                            #140.37
..LN2140:
        vaddps    %ymm15, %ymm15, %ymm14                        #140.27
..LN2141:
        vmulps    %ymm14, %ymm8, %ymm4                          #140.32
..LN2142:
	.loc    1  139  is_stmt 1
        vmovups   -336(%rbp), %ymm14                            #139.24
..LN2143:
        vmulps    %ymm8, %ymm8, %ymm8                           #139.14
..LN2144:
	.loc    1  140  is_stmt 1
        vaddps    (%r11), %ymm4, %ymm7                          #140.37
..LN2145:
        vaddps    %ymm14, %ymm14, %ymm4                         #140.27
..LN2146:
	.loc    1  141  is_stmt 1
        vaddps    %ymm8, %ymm3, %ymm3                           #141.40
..LN2147:
	.loc    1  140  is_stmt 1
        vmovups   %ymm7, -240(%rbp)                             #140.37
..LN2148:
        vmulps    %ymm4, %ymm6, %ymm7                           #140.32
..LN2149:
	.loc    1  139  is_stmt 1
        vmovups   -304(%rbp), %ymm4                             #139.24
..LN2150:
        vmulps    %ymm14, %ymm14, %ymm15                        #139.24
..LN2151:
        vmulps    %ymm6, %ymm6, %ymm14                          #139.14
..LN2152:
	.loc    1  140  is_stmt 1
        vaddps    -816(%rbp), %ymm7, %ymm6                      #140.37
..LN2153:
	.loc    1  139  is_stmt 1
        vmulps    %ymm4, %ymm4, %ymm7                           #139.24
..LN2154:
	.loc    1  140  is_stmt 1
        vmovups   %ymm6, -208(%rbp)                             #140.37
..LN2155:
        vaddps    %ymm4, %ymm4, %ymm6                           #140.27
..LN2156:
	.loc    1  141  is_stmt 1
        vaddps    %ymm14, %ymm12, %ymm12                        #141.40
..LN2157:
	.loc    1  140  is_stmt 1
        vmulps    %ymm6, %ymm2, %ymm4                           #140.32
..LN2158:
	.loc    1  139  is_stmt 1
        vmulps    %ymm2, %ymm2, %ymm2                           #139.14
..LN2159:
	.loc    1  141  is_stmt 1
        vsubps    %ymm15, %ymm12, %ymm12                        #141.35
..LN2160:
	.loc    1  140  is_stmt 1
        vaddps    -784(%rbp), %ymm4, %ymm6                      #140.37
..LN2161:
	.loc    1  139  is_stmt 1
        vaddps    %ymm9, %ymm0, %ymm4                           #139.24
..LN2162:
	.loc    1  141  is_stmt 1
        vaddps    -912(%rbp), %ymm9, %ymm9                      #141.40
..LN2163:
        vaddps    %ymm2, %ymm11, %ymm11                         #141.40
..LN2164:
	.loc    1  139  is_stmt 1
        vcmpltps  %ymm5, %ymm4, %ymm4                           #139.29
..LN2165:
	.loc    1  141  is_stmt 1
        vsubps    %ymm0, %ymm9, %ymm0                           #141.35
..LN2166:
	.loc    1  140  is_stmt 1
        vmovups   %ymm6, -176(%rbp)                             #140.37
..LN2167:
	.loc    1  141  is_stmt 1
        vmovups   %ymm12, -80(%rbp)                             #141.35
..LN2168:
        vmovups   %ymm0, -144(%rbp)                             #141.35
..LN2169:
	.loc    1  139  is_stmt 1
        vaddps    %ymm8, %ymm13, %ymm0                          #139.24
..LN2170:
	.loc    1  141  is_stmt 1
        vsubps    %ymm13, %ymm3, %ymm8                          #141.35
..LN2171:
	.loc    1  139  is_stmt 1
        vaddps    %ymm14, %ymm15, %ymm3                         #139.24
..LN2172:
        vcmpltps  %ymm5, %ymm0, %ymm6                           #139.29
..LN2173:
	.loc    1  141  is_stmt 1
        vsubps    %ymm7, %ymm11, %ymm12                         #141.35
..LN2174:
	.loc    1  139  is_stmt 1
        vcmpltps  %ymm5, %ymm3, %ymm0                           #139.29
..LN2175:
        vaddps    %ymm2, %ymm7, %ymm3                           #139.24
..LN2176:
	.loc    1  141  is_stmt 1
        vmovups   %ymm8, -112(%rbp)                             #141.35
..LN2177:
        vmovups   %ymm12, -48(%rbp)                             #141.35
..LN2178:
	.loc    1  139  is_stmt 1
        vmovdqu   -1232(%rbp), %xmm12                           #139.29
..LN2179:
        vcmpltps  %ymm5, %ymm3, %ymm3                           #139.29
..LN2180:
        vpand     %xmm4, %xmm10, %xmm8                          #139.29
..LN2181:
        vextractf128 $1, %ymm4, %xmm15                          #139.29
..LN2182:
        vmovdqu   %xmm8, -1136(%rbp)                            #139.29
..LN2183:
        vmovdqu   -1200(%rbp), %xmm8                            #139.29
..LN2184:
        vpand     %xmm15, %xmm1, %xmm2                          #139.29
..LN2185:
        vmovdqu   %xmm2, -1120(%rbp)                            #139.29
..LN2186:
        vmovdqu   -1216(%rbp), %xmm2                            #139.29
..LN2187:
	.loc    1  125  is_stmt 1
        vmovdqu   -1472(%rbp), %xmm4                            #125.14
..LN2188:
	.loc    1  139  is_stmt 1
        vpand     -1168(%rbp), %xmm3, %xmm15                    #139.29
..LN2189:
        vextractf128 $1, %ymm3, %xmm3                           #139.29
..LN2190:
        vmovdqu   %xmm15, -1040(%rbp)                           #139.29
..LN2191:
        vpand     %xmm6, %xmm12, %xmm11                         #139.29
..LN2192:
        vextractf128 $1, %ymm6, %xmm13                          #139.29
..LN2193:
        vmovdqu   %xmm11, -1104(%rbp)                           #139.29
..LN2194:
	.loc    1  146  is_stmt 1
        vmovd     %ecx, %xmm11                                  #146.5
..LN2195:
	.loc    1  125  is_stmt 1
        vmovdqu   -1456(%rbp), %xmm6                            #125.14
..LN2196:
	.loc    1  139  is_stmt 1
        vpand     %xmm13, %xmm2, %xmm14                         #139.29
..LN2197:
	.loc    1  146  is_stmt 1
        vpshufd   $0, %xmm11, %xmm13                            #146.5
..LN2198:
	.loc    1  139  is_stmt 1
        lea       -1088(%rbp), %rcx                             #139.29
..LN2199:
        vmovdqu   %xmm14, (%rcx)                                #139.29
..LN2200:
	.loc    1  125  is_stmt 1
        vmovdqu   -1728(%rbp), %xmm14                           #125.14
..LN2201:
	.loc    1  139  is_stmt 1
        vpand     %xmm0, %xmm8, %xmm9                           #139.29
..LN2202:
        vextractf128 $1, %ymm0, %xmm5                           #139.29
..LN2203:
        vpand     -1152(%rbp), %xmm3, %xmm0                     #139.29
..LN2204:
        vmovdqu   %xmm0, -1024(%rbp)                            #139.29
..LN2205:
	.loc    1  130  is_stmt 1
        vmovdqu   .L_2il0floatpacket.16(%rip), %xmm0            #130.3
..LN2206:
	.loc    1  139  is_stmt 1
        vmovdqu   %xmm9, -1072(%rbp)                            #139.29
..LN2207:
	.loc    1  130  is_stmt 1
        vpaddd    %xmm0, %xmm13, %xmm15                         #130.3
..LN2208:
	.loc    1  139  is_stmt 1
        vpand     -1184(%rbp), %xmm5, %xmm7                     #139.29
..LN2209:
	.loc    1  125  is_stmt 1
        vmovdqu   -1488(%rbp), %xmm9                            #125.14
..LN2210:
	.loc    1  139  is_stmt 1
        vmovdqu   %xmm7, -1056(%rbp)                            #139.29
..LN2211:
	.loc    1  125  is_stmt 1
        vpblendvb %xmm9, %xmm15, %xmm14, %xmm11                 #125.14
..LN2212:
        vmovdqu   -1856(%rbp), %xmm5                            #125.14
..LN2213:
        vmovdqu   -1712(%rbp), %xmm7                            #125.14
..LN2214:
        vmovdqu   -1440(%rbp), %xmm14                           #125.14
..LN2215:
        vmovdqu   -1840(%rbp), %xmm13                           #125.14
..LN2216:
        vpblendvb %xmm4, %xmm15, %xmm5, %xmm5                   #125.14
..LN2217:
        vmovdqu   -1824(%rbp), %xmm4                            #125.14
..LN2218:
        vpblendvb %xmm6, %xmm15, %xmm7, %xmm3                   #125.14
..LN2219:
        vmovdqu   -1424(%rbp), %xmm7                            #125.14
..LN2220:
        vmovdqu   -1808(%rbp), %xmm6                            #125.14
..LN2221:
        vpblendvb %xmm14, %xmm15, %xmm13, %xmm9                 #125.14
..LN2222:
        vmovdqu   -1408(%rbp), %xmm13                           #125.14
..LN2223:
        vmovdqu   -1872(%rbp), %xmm14                           #125.14
..LN2224:
        vpblendvb %xmm7, %xmm15, %xmm4, %xmm4                   #125.14
..LN2225:
        vpblendvb %xmm13, %xmm15, %xmm6, %xmm7                  #125.14
..LN2226:
        .byte     15                                            #125.14
..LN2227:
        .byte     31                                            #125.14
..LN2228:
        .byte     0                                             #125.14
..LN2229:
        vmovdqu   -1392(%rbp), %xmm6                            #125.14
..LN2230:
        vpblendvb %xmm6, %xmm15, %xmm14, %xmm13                 #125.14
..LN2231:
        vmovdqu   -1376(%rbp), %xmm6                            #125.14
..LN2232:
        vmovdqu   -1792(%rbp), %xmm14                           #125.14
..LN2233:
        vpblendvb %xmm6, %xmm15, %xmm14, %xmm15                 #125.14
..LN2234:
        vmovd     %esi, %xmm14                                  #125.14
..LN2235:
        vpshufd   $0, %xmm14, %xmm6                             #125.14
..LN2236:
	.loc    1  134  is_stmt 1
        vpaddd    %xmm0, %xmm6, %xmm14                          #134.3
..LN2237:
	.loc    1  125  is_stmt 1
        vmovdqu   -1360(%rbp), %xmm6                            #125.14
..LN2238:
        vpblendvb %xmm6, %xmm14, %xmm11, %xmm11                 #125.14
..LN2239:
        vmovdqu   -1344(%rbp), %xmm6                            #125.14
..LN2240:
        vpblendvb %xmm6, %xmm14, %xmm5, %xmm5                   #125.14
..LN2241:
        vmovdqu   -1328(%rbp), %xmm6                            #125.14
..LN2242:
        vpblendvb %xmm6, %xmm14, %xmm3, %xmm3                   #125.14
..LN2243:
        vmovdqu   -1312(%rbp), %xmm6                            #125.14
..LN2244:
        vpblendvb %xmm6, %xmm14, %xmm9, %xmm6                   #125.14
..LN2245:
        vmovdqu   -1296(%rbp), %xmm9                            #125.14
..LN2246:
        vpblendvb %xmm9, %xmm14, %xmm4, %xmm9                   #125.14
..LN2247:
        vmovdqu   -1280(%rbp), %xmm4                            #125.14
..LN2248:
        vpblendvb %xmm4, %xmm14, %xmm7, %xmm4                   #125.14
..LN2249:
        vmovdqu   -1264(%rbp), %xmm7                            #125.14
..LN2250:
        vpblendvb %xmm7, %xmm14, %xmm13, %xmm7                  #125.14
..LN2251:
        vmovdqu   -1248(%rbp), %xmm13                           #125.14
..LN2252:
        vpblendvb %xmm13, %xmm14, %xmm15, %xmm14                #125.14
..LN2253:
        vmovd     %edi, %xmm15                                  #125.14
..LN2254:
        vpshufd   $0, %xmm15, %xmm15                            #125.14
..LN2255:
	.loc    1  138  is_stmt 1
        vpaddd    %xmm0, %xmm15, %xmm13                         #138.3
..LN2256:
	.loc    1  125  is_stmt 1
        vpblendvb %xmm10, %xmm13, %xmm11, %xmm10                #125.14
..LN2257:
        vpblendvb %xmm1, %xmm13, %xmm5, %xmm15                  #125.14
..LN2258:
        vpblendvb %xmm12, %xmm13, %xmm3, %xmm11                 #125.14
..LN2259:
        vmovdqu   -1184(%rbp), %xmm12                           #125.14
..LN2260:
        vpblendvb %xmm2, %xmm13, %xmm6, %xmm1                   #125.14
..LN2261:
        vmovdqu   -1168(%rbp), %xmm2                            #125.14
..LN2262:
        vpblendvb %xmm8, %xmm13, %xmm9, %xmm8                   #125.14
..LN2263:
        vpblendvb %xmm12, %xmm13, %xmm4, %xmm3                  #125.14
..LN2264:
        vmovdqu   -1152(%rbp), %xmm12                           #125.14
..LN2265:
        vpblendvb %xmm2, %xmm13, %xmm7, %xmm9                   #125.14
..LN2266:
        vmovd     %r8d, %xmm2                                   #125.14
..LN2267:
        vpblendvb %xmm12, %xmm13, %xmm14, %xmm5                 #125.14
..LN2268:
        vpshufd   $0, %xmm2, %xmm13                             #125.14
..LN2269:
	.loc    1  142  is_stmt 1
