	.section .text
.LNDBG_TX:
# mark_description "Intel(R) C Intel(R) 64 Compiler for applications running on Intel(R) MIC Architecture, Version 16.0.0.109 Bu";
# mark_description "ild 20150815";
# mark_description " -I.. -I../pngwriter/include -qoffload -S -g -O3 -opt-gather-scatter-unroll=8 -fopenmp -fimf-domain-exclusio";
# mark_description "n=8 -mkl -mavx -qopt-report=5 -qopt-report-phase=vec -qopt-report-file=stdout -opt-report-routine=simd";
	.file "mandelbrot.cpp"
	.text
..TXTST0:
.L_2__routine_start_main_0:
# -- Begin  main
	.text
# mark_begin;
# Threads 4
        .align    16,0x90
	.globl main
# --- main(int, char **)
main:
# parameter 1(argc): %edi
# parameter 2(argv): %rsi
..B1.1:                         # Preds ..B1.0 Latency 9
	.cfi_startproc
	.cfi_personality 0x3,__gxx_personality_v0
..___tag_value_main.2:
..L3:
                                                          #307.1
..LN0:
	.file   1 "mandelbrot.cpp"
	.loc    1  307  is_stmt 1
        pushq     %rbp                                          #307.1
	.cfi_def_cfa_offset 16
..LN1:
        movq      %rsp, %rbp                                    #307.1
	.cfi_def_cfa 6, 16
	.cfi_offset 6, -16
..LN2:
        andq      $-128, %rsp                                   #307.1
..LN3:
        subq      $128, %rsp                                    #307.1 c1
..LN4:
        xorl      %esi, %esi                                    #307.1 c1
..LN5:
        movl      $3, %edi                                      #307.1 c5
..LN6:
        call      __intel_new_feature_proc_init                 #307.1 c9
..LN7:
                                # LOE rbx r12 r13 r14 r15
..B1.5:                         # Preds ..B1.1 Latency 7
..LN8:
        stmxcsr   (%rsp)                                        #307.1 c1
..LN9:
        xorl      %eax, %eax                                    #307.1 c2
..LN10:
        orl       $32832, (%rsp)                                #307.1 c2
..LN11:
        ldmxcsr   (%rsp)                                        #307.1 c6
..___tag_value_main.8:
..LN12:
        call      __offload_target_main                         #307.1
..___tag_value_main.9:
..LN13:
                                # LOE rbx r12 r13 r14 r15
..B1.2:                         # Preds ..B1.5 Latency 5
..LN14:
        xorl      %eax, %eax                                    #307.1 c1
..LN15:
	.loc    1  307  epilogue_begin  is_stmt 1
        movq      %rbp, %rsp                                    #307.1 c5
..LN16:
        popq      %rbp                                          #307.1
	.cfi_def_cfa 7, 8
	.cfi_restore 6
..LN17:
        ret                                                     #307.1
        .align    16,0x90
	.cfi_endproc
..LN18:
                                # LOE
..LN19:
# mark_end;
	.type	main,@function
	.size	main,.-main
..LNmain.20:
.LNmain:
	.data
	.file   2 "/usr/linux-k1om-4.7/linux-k1om/../x86_64-k1om-linux/include/c++/4.7.0/debug/debug.h"
	.file   3 "helper_mic.h"
	.file   4 "/zdata/groups/nfsopt/intel/2016/compilers_and_libraries_2016.0.109/linux/compiler/include/stddef.h"
# -- End  main
	.text
.L_2__routine_start__ZN3mic10copytohostElPPfS0__1:
# -- Begin  _ZN3mic10copytohostElPPfS0_, __offload_entry_helper_mic_h_24copytohos_2a7ac4e8542455ed9ddae22208068638icc010935439037PRjdkN
	.text
# mark_begin;
# Threads 4
        .align    16,0x90
__offload_entry_helper_mic_h_24copytohos_2a7ac4e8542455ed9ddae22208068638icc010935439037PRjdkN:
# parameter 1: %rdi
..B2.1:                         # Preds ..B2.0 Latency 73
	.cfi_startproc
	.cfi_personality 0x3,__gxx_personality_v0
..___tag_value__ZN3mic10copytohostElPPfS0_.17:
..L18:
                                                         #24.9
..LN21:
	.loc    3  24  is_stmt 1
        pushq     %rbp                                          #24.9
	.cfi_def_cfa_offset 16
..LN22:
        movq      %rsp, %rbp                                    #24.9
	.cfi_def_cfa 6, 16
	.cfi_offset 6, -16
..LN23:
        andq      $-64, %rsp                                    #24.9
..LN24:
        pushq     %r15                                          #24.9 c1
..LN25:
        subq      $312, %rsp                                    #24.9 c1
..LN26:
        vmovaps   .2.26_2__offload_var_desc1_p.30(%rip), %zmm0  #24.9 c5
..LN27:
        vmovaps   64+.2.26_2__offload_var_desc1_p.30(%rip), %zmm1 #24.9 c9
..LN28:
        vmovaps   128+.2.26_2__offload_var_desc1_p.30(%rip), %zmm2 #24.9 c13
..LN29:
        lea       8(%rsp), %rcx                                 #24.9 c17
..LN30:
        lea       64(%rsp), %rdx                                #24.9 c17
..LN31:
        vmovaps   %zmm0, (%rdx)                                 #24.9 c21
..LN32:
        movq      .2.26_2__offload_var_desc2_p.35(%rip), %r8    #24.9 c21
..LN33:
        vmovaps   %zmm1, 64(%rdx)                               #24.9 c25
..LN34:
        movq      8+.2.26_2__offload_var_desc2_p.35(%rip), %r9  #24.9 c25
..LN35:
        vmovaps   %zmm2, 128(%rdx)                              #24.9 c29
..LN36:
        movq      16+.2.26_2__offload_var_desc2_p.35(%rip), %r10 #24.9 c29
..LN37:
        movq      32+.2.26_2__offload_var_desc2_p.35(%rip), %rax #24.9 c33
..LN38:
        movq      40+.2.26_2__offload_var_desc2_p.35(%rip), %rsi #24.9 c33
..LN39:
        movq      %r8, (%rcx)                                   #24.9 c37
..LN40:
        movq      %r9, 8(%rcx)                                  #24.9 c37
..LN41:
        movq      %r10, 16(%rcx)                                #24.9 c41
..LN42:
        movq      %rax, 32(%rcx)                                #24.9 c41
..LN43:
        movq      %rsi, 40(%rcx)                                #24.9 c45
..LN44:
        lea       264(%rsp), %r8                                #24.9 c45
..LN45:
        movq      24+.2.26_2__offload_var_desc2_p.35(%rip), %r11 #24.9 c49
..LN46:
        lea       272(%rsp), %r9                                #24.9 c49
..LN47:
        lea       280(%rsp), %r10                               #24.9 c53
..LN48:
        movl      $3, %esi                                      #24.9 c53
..LN49:
        xorl      %eax, %eax                                    #24.9 c57
	.cfi_escape 0x10, 0x0f, 0x0e, 0x38, 0x1c, 0x0d, 0xc0, 0xff, 0xff, 0xff, 0x1a, 0x0d, 0xf8, 0xff, 0xff, 0xff, 0x22
..LN50:
        movq      %rdi, %r15                                    #24.9 c57
..LN51:
        movq      %r11, 24(%rcx)                                #24.9 c61
..LN52:
        movq      %r8, 56(%rdx)                                 #24.9 c61
..LN53:
        movq      %r9, 120(%rdx)                                #24.9 c65
..LN54:
        movb      %bl, %bl                                      #24.9 c65
..LN55:
        movq      %r10, 184(%rdx)                               #24.9 c69
..___tag_value__ZN3mic10copytohostElPPfS0_.24:
..LN56:
        call      __offload_target_enter                        #24.9
..___tag_value__ZN3mic10copytohostElPPfS0_.25:
..LN57:
                                # LOE rbx r12 r13 r14 r15
..B2.2:                         # Preds ..B2.1 Latency 9
..LN58:
	.loc    3  26  prologue_end  is_stmt 1
        movq      264(%rsp), %rax                               #26.27 c1
..LN59:
	.loc    3  24  is_stmt 1
        movq      280(%rsp), %r9                                #24.9 c1
..LN60:
	.loc    3  26  is_stmt 1
        movq      (%rax), %rcx                                  #26.27 c5
..LN61:
	.loc    3  28  is_stmt 1
        testq     %r9, %r9                                      #28.42 c5
..LN62:
        jle       ..B2.21       # Prob 50%                      #28.42 c9
..LN63:
                                # LOE rcx rbx r9 r12 r13 r14 r15
..B2.3:                         # Preds ..B2.2 Latency 9
..LN64:
        movq      272(%rsp), %rax                               #28.42 c1
..LN65:
        movq      %rax, %r8                                     #28.13 c5
..LN66:
        andq      $63, %r8                                      #28.13 c9
..LN67:
        je        ..B2.5        # Prob 50%                      #28.13 c9
..LN68:
                                # LOE rax rcx rbx r8 r9 r12 r13 r14 r15
..B2.4:                         # Preds ..B2.3 Latency 17
..LN69:
        negq      %r8                                           #28.13 c1
..LN70:
        addq      $64, %r8                                      #28.13 c5
..LN71:
        shrq      $2, %r8                                       #28.13 c9
..LN72:
        cmpq      %r8, %r9                                      #28.13 c13
..LN73:
        jge       ..L26         # Prob 50%                      #28.13 c17
..LN74:
        movq      %r9, %r8                                      #28.13
..L26:                                                          #
..LN75:
                                # LOE rax rcx rbx r8 r9 r12 r13 r14 r15
..B2.5:                         # Preds ..B2.4 ..B2.3 Latency 21
..LN76:
        movq      %r9, %rdx                                     #28.13 c1
..LN77:
        subq      %r8, %rdx                                     #28.13 c5
..LN78:
        andq      $15, %rdx                                     #28.13 c9
..LN79:
        negq      %rdx                                          #28.13 c13
..LN80:
        addq      %r9, %rdx                                     #28.13 c17
..LN81:
        cmpq      $1, %r8                                       #28.13 c21
..LN82:
        jb        ..B2.9        # Prob 50%                      #28.13 c21
..LN83:
                                # LOE rax rdx rcx rbx r8 r9 r12 r13 r14 r15
..B2.6:                         # Preds ..B2.5 Latency 37
..LN84:
        vpbroadcastq .L_2il0floatpacket.1(%rip), %zmm5          #28.13 c1
..LN85:
        vmovdqa32 .L_2il0floatpacket.3(%rip), %zmm4             #28.13 c5
..LN86:
        vmovdqa32 .L_2il0floatpacket.4(%rip), %zmm3             #28.13 c9
..LN87:
        vpxord    %zmm2, %zmm2, %zmm2                           #28.51 c13
..LN88:
        movl      $21845, %edi                                  #28.13 c13
..LN89:
        vmovaps   .L_2il0floatpacket.2(%rip), %zmm0             #28.13 c17
..LN90:
        movq      %r8, (%rsp)                                   #28.13 c21
..LN91:
        kmov      %edi, %k2                                     #28.13 c21
..LN92:
        vpbroadcastq (%rsp), %zmm1                              #28.13 c25
..LN93:
        movl      $43690, %edi                                  #28.13 c25
..LN94:
        xorl      %r10d, %r10d                                  #28.13 c29
..LN95:
        xorl      %esi, %esi                                    #28.13 c29
..LN96:
        kmov      %edi, %k1                                     #28.13 c33
..LN97:
        movq      %r14, 56(%rsp)                                #28.13 c33
..LN98:
        movq      %rbx, 256(%rsp)                               #28.13 c37
	.cfi_escape 0x10, 0x03, 0x0e, 0x38, 0x1c, 0x0d, 0xc0, 0xff, 0xff, 0xff, 0x1a, 0x0d, 0xc0, 0xff, 0xff, 0xff, 0x22
	.cfi_escape 0x10, 0x0e, 0x0e, 0x38, 0x1c, 0x0d, 0xc0, 0xff, 0xff, 0xff, 0x1a, 0x0d, 0xf8, 0xfe, 0xff, 0xff, 0x22
..LN99:
                                # LOE rax rdx rcx rsi r8 r9 r10 r12 r13 r15 zmm0 zmm1 zmm2 zmm3 zmm4 zmm5 k1 k2
..B2.7:                         # Preds ..B2.7 ..B2.6 Latency 137
..L29:          # optimization report
                # LOOP WAS VECTORIZED
                # PEELED LOOP FOR VECTORIZATION
                # SIMD LOOP
                # MASKED VECTORIZATION
                # VECTORIZATION HAS UNALIGNED MEMORY REFERENCES
                # VECTORIZATION SPEEDUP COEFFECIENT 2.134766
                # VECTOR TRIP COUNT IS ESTIMATED CONSTANT
                # VECTOR LENGTH 16
                # NORMALIZED VECTORIZATION OVERHEAD 0.687500
..LN100:
        addq      $16, %r10                                     #28.13 c1
..LN101:
        vpcmpud   $0, %zmm1, %zmm4, %k3                         #28.13 c5
..LN102:
        addq      $64, %rsi                                     #28.13 c5
..LN103:
        vpcmpltd  %zmm1, %zmm4, %k0                             #28.13 c9
..LN104:
        vpcmpud   $2, %zmm1, %zmm4, %k4                         #28.13 c13
..LN105:
        kmov      %k3, %r11d                                    #28.13 c13
..LN106:
        vpcmpud   $2, %zmm1, %zmm3, %k3                         #28.13 c17
..LN107:
        kmov      %k0, %r14d                                    #28.13 c17
..LN108:
        vpcmpud   $0, %zmm1, %zmm3, %k0                         #28.13 c21
..LN109:
        kmov      %k4, %ebx                                     #28.13 c21
..LN110:
        vpcmpltd  %zmm1, %zmm3, %k7                             #28.13 c25
..LN111:
        addl      %ebx, %ebx                                    #28.13 c25
..LN112:
        vmovaps   %zmm2, %zmm6                                  #28.13 c29
..LN113:
        kmov      %k3, %edi                                     #28.13 c29
..LN114:
        vmovaps   %zmm2, %zmm7                                  #28.13 c33
..LN115:
        andl      %r11d, %ebx                                   #28.13 c33
..LN116:
        vmovaps   %zmm2, %zmm8                                  #28.51 c37
..LN117:
        kmov      %k0, %r11d                                    #28.13 c37
..LN118:
        vpaddsetcd %zmm5, %k3, %zmm4{%k2}                       #28.13 c41
..LN119:
        addl      %edi, %edi                                    #28.13 c41
..LN120:
        orl       %r14d, %ebx                                   #28.13 c45
..LN121:
        kmov      %k7, %r14d                                    #28.13 c45
..LN122:
        andl      %r11d, %edi                                   #28.13 c49
..LN123:
        andl      $-21846, %ebx                                 #28.13 c49
..LN124:
        orl       %r14d, %edi                                   #28.13 c53
..LN125:
        kmov      %ebx, %k5                                     #28.13 c53
..LN126:
        vbroadcastss .L_2il0floatpacket.5(%rip), %zmm6{%k5}     #28.13 c57
..LN127:
        vcmpneqpd %zmm6, %zmm2, %k6                             #28.13 c61
..LN128:
        andl      $-21846, %edi                                 #28.13 c61
..LN129:
        kmov      %edi, %k4                                     #28.13 c65
..LN130:
        lea       -64(%rcx,%rsi), %r14                          #28.51 c65
..LN131:
        vbroadcastss .L_2il0floatpacket.5(%rip), %zmm7{%k4}     #28.13 c69
..LN132:
        vcmpneqpd %zmm7, %zmm2, %k5                             #28.13 c73
..LN133:
        kmov      %k6, %ebx                                     #28.13 c73
..LN134:
        movzbl    %bl, %ebx                                     #28.13 c77
..LN135:
        movb      %al, %al                                      #28.13 c77
..LN136:
        kmov      %k5, %r11d                                    #28.13 c81
..LN137:
        shll      $8, %r11d                                     #28.13 c85
..LN138:
        vpaddsetcd %zmm5, %k5, %zmm3{%k2}                       #28.13 c89
..LN139:
        orl       %r11d, %ebx                                   #28.13 c89
..LN140:
        kmov      %ebx, %k7                                     #28.51 c93
..LN141:
        kmov      %k3, %ebx                                     #28.13 c93
..LN142:
        kmov      %k7, %k6                                      #28.51 c97
..LN143:
        kmov      %k5, %r11d                                    #28.13 c97
..LN144:
        vgatherpf0hintdps (%r14,%zmm0,4){%k6}                   #28.51 c101
..LN145:
        vgatherpf0hintdps (%r14,%zmm0,4){%k6}                   #28.51
..LN146:
        nop                                                     #28.51
..L31:                                                          #
..LN147:
        vgatherdps (%r14,%zmm0,4), %zmm8{%k6}                   #28.51
..LN148:
        jkzd      ..L30, %k6    # Prob 50%                      #28.51
..LN149:
        vgatherdps (%r14,%zmm0,4), %zmm8{%k6}                   #28.51
..LN150:
        vgatherdps (%r14,%zmm0,4), %zmm8{%k6}                   #28.51
..LN151:
        vgatherdps (%r14,%zmm0,4), %zmm8{%k6}                   #28.51
..LN152:
        vgatherdps (%r14,%zmm0,4), %zmm8{%k6}                   #28.51
..LN153:
        vgatherdps (%r14,%zmm0,4), %zmm8{%k6}                   #28.51
..LN154:
        vgatherdps (%r14,%zmm0,4), %zmm8{%k6}                   #28.51
..LN155:
        vgatherdps (%r14,%zmm0,4), %zmm8{%k6}                   #28.51
..LN156:
        vgatherdps (%r14,%zmm0,4), %zmm8{%k6}                   #28.51
..LN157:
        jknzd     ..L31, %k6    # Prob 50%                      #28.51
..L30:                                                          #
..LN158:
        vpackstorelps %zmm8, -64(%rsi,%rax){%k7}                #28.42 c121
..LN159:
        addl      %ebx, %ebx                                    #28.13 c121
..LN160:
        addl      %r11d, %r11d                                  #28.13 c125
..LN161:
        kmov      %ebx, %k4                                     #28.13 c125
..LN162:
        vpadcd    %zmm5, %k4, %zmm4{%k1}                        #28.13 c129
..LN163:
        kmov      %r11d, %k3                                    #28.13 c129
..LN164:
        vpadcd    %zmm5, %k3, %zmm3{%k1}                        #28.13 c133
..LN165:
        cmpq      %r8, %r10                                     #28.13 c133
..LN166:
        jb        ..B2.7        # Prob 50%                      #28.13 c137
..LN167:
                                # LOE rax rdx rcx rsi r8 r9 r10 r12 r13 r15 zmm0 zmm1 zmm2 zmm3 zmm4 zmm5 k1 k2
..B2.8:                         # Preds ..B2.7 Latency 5
..LN168:
        movq      56(%rsp), %r14                                # c1
	.cfi_restore 14
..LN169:
        cmpq      %r8, %r9                                      #28.13 c1
..LN170:
        movq      256(%rsp), %rbx                               # c5
	.cfi_restore 3
..LN171:
        je        ..B2.21       # Prob 10%                      #28.13 c5
..LN172:
                                # LOE rax rdx rcx rbx r8 r9 r12 r13 r14 r15
..B2.9:                         # Preds ..B2.8 ..B2.5 Latency 5
..LN173:
        lea       16(%r8), %rsi                                 #28.13 c1
..LN174:
        cmpq      %rsi, %rdx                                    #28.13 c5
..LN175:
        jl        ..B2.17       # Prob 50%                      #28.13 c5
..LN176:
                                # LOE rax rdx rcx rbx r8 r9 r12 r13 r14 r15
..B2.10:                        # Preds ..B2.9 Latency 5
..LN177:
        lea       (%rcx,%r8,4), %rsi                            #28.51 c1
..LN178:
        andq      $63, %rsi                                     #28.13 c5
..LN179:
        je        ..B2.14       # Prob 60%                      #28.13 c5
..LN180:
                                # LOE rax rdx rcx rbx r8 r9 r12 r13 r14 r15
..B2.11:                        # Preds ..B2.10 Latency 21
..LN181:
        vprefetch0 (%rcx)                                       #28.51 c1
..LN182:
        movb      %al, %al                                      #28.51 c1
..LN183:
        vprefetch0 64(%rcx)                                     #28.51 c5
..LN184:
        movb      %al, %al                                      #28.51 c5
..LN185:
        vprefetch0 128(%rcx)                                    #28.51 c9
..LN186:
        movb      %al, %al                                      #28.51 c9
..LN187:
        vprefetch0 192(%rcx)                                    #28.51 c13
..LN188:
        movb      %dl, %dl                                      #28.42 c13
..LN189:
        vprefetche0 (%rax)                                      #28.42 c17
..LN190:
        movb      %dl, %dl                                      #28.42 c17
..LN191:
        vprefetche0 64(%rax)                                    #28.42 c21
..LN192:
                                # LOE rax rdx rcx rbx r8 r9 r12 r13 r14 r15
..B2.12:                        # Preds ..B2.12 ..B2.11 Latency 21
..L34:          # optimization report
                # LOOP WAS PREFETCHED, LINES = 4
                # LOOP WAS VECTORIZED
                # ALTERNATE ALIGNMENT VECTOR LOOP
..LN193:
        vprefetch1 512(%rcx,%r8,4)                              #28.51 c1
..LN194:
        vloadunpackld (%rcx,%r8,4), %zmm0                       #28.51 c5
..LN195:
        vprefetch0 256(%rcx,%r8,4)                              #28.51 c5
..LN196:
        vloadunpackhd 64(%rcx,%r8,4), %zmm0                     #28.51 c9
..LN197:
        vprefetche1 512(%rax,%r8,4)                             #28.42 c9
..LN198:
        vprefetche0 256(%rax,%r8,4)                             #28.42 c13
..LN199:
        addq      $16, %r8                                      #28.13 c13
..LN200:
        vmovaps   %zmm0, -64(%rax,%r8,4)                        #28.42 c17
..LN201:
        cmpq      %rdx, %r8                                     #28.13 c17
..LN202:
        jb        ..B2.12       # Prob 50%                      #28.13 c21
..LN203:
        jmp       ..B2.17       # Prob 100%                     #28.13 c21
..LN204:
                                # LOE rax rdx rcx rbx r8 r9 r12 r13 r14 r15
..B2.14:                        # Preds ..B2.10 Latency 21
..LN205:
        vprefetch0 (%rcx)                                       #28.51 c1
..LN206:
        movb      %al, %al                                      #28.51 c1
..LN207:
        vprefetch0 64(%rcx)                                     #28.51 c5
..LN208:
        movb      %al, %al                                      #28.51 c5
..LN209:
        vprefetch0 128(%rcx)                                    #28.51 c9
..LN210:
        movb      %al, %al                                      #28.51 c9
..LN211:
        vprefetch0 192(%rcx)                                    #28.51 c13
..LN212:
        movb      %dl, %dl                                      #28.42 c13
..LN213:
        vprefetche0 (%rax)                                      #28.42 c17
..LN214:
        movb      %dl, %dl                                      #28.42 c17
..LN215:
        vprefetche0 64(%rax)                                    #28.42 c21
..LN216:
                                # LOE rax rdx rcx rbx r8 r9 r12 r13 r14 r15
..B2.15:                        # Preds ..B2.15 ..B2.14 Latency 17
..L35:          # optimization report
                # LOOP WAS UNROLLED BY 1
                # LOOP WAS PREFETCHED, LINES = 4
                # LOOP WAS VECTORIZED
                # SIMD LOOP
                # VECTORIZATION SPEEDUP COEFFECIENT 23.390625
                # VECTOR TRIP COUNT IS ESTIMATED CONSTANT
                # VECTOR LENGTH 16
                # NORMALIZED VECTORIZATION OVERHEAD 4.500000
..LN217:
        vprefetch1 512(%rcx,%r8,4)                              #28.51 c1
..LN218:
        vmovaps   (%rcx,%r8,4), %zmm0                           #28.51 c5
..LN219:
        vprefetch0 256(%rcx,%r8,4)                              #28.51 c5
..LN220:
        vprefetche1 512(%rax,%r8,4)                             #28.42 c9
..LN221:
        addq      $16, %r8                                      #28.13 c9
..LN222:
        vmovaps   %zmm0, -64(%rax,%r8,4)                        #28.42 c13
..LN223:
        vprefetche0 192(%rax,%r8,4)                             #28.42 c13
..LN224:
        cmpq      %rdx, %r8                                     #28.13 c17
..LN225:
        jb        ..B2.15       # Prob 50%                      #28.13 c17
..LN226:
                                # LOE rax rdx rcx rbx r8 r9 r12 r13 r14 r15
..B2.17:                        # Preds ..B2.15 ..B2.12 ..B2.9 Latency 5
..LN227:
        lea       1(%rdx), %rsi                                 #28.13 c1
..LN228:
        cmpq      %rsi, %r9                                     #28.13 c5
..LN229:
        jb        ..B2.21       # Prob 50%                      #28.13 c5
..LN230:
                                # LOE rax rdx rcx rbx r9 r12 r13 r14 r15
..B2.18:                        # Preds ..B2.17 Latency 41
..LN231:
        vpbroadcastq .L_2il0floatpacket.1(%rip), %zmm5          #28.13 c1
..LN232:
        vmovdqa32 .L_2il0floatpacket.3(%rip), %zmm4             #28.13 c5
..LN233:
        vmovdqa32 .L_2il0floatpacket.4(%rip), %zmm3             #28.13 c9
..LN234:
        vpxord    %zmm1, %zmm1, %zmm1                           #28.51 c13
..LN235:
        movq      %r9, %rsi                                     #28.13 c13
..LN236:
        vmovaps   .L_2il0floatpacket.2(%rip), %zmm0             #28.13 c17
..LN237:
        subq      %rdx, %rsi                                    #28.13 c21
..LN238:
        lea       (%rax,%rdx,4), %r11                           #28.42 c21
..LN239:
        movl      $21845, %eax                                  #28.13 c25
..LN240:
        movq      %rsi, (%rsp)                                  #28.13 c25
..LN241:
        vpbroadcastq (%rsp), %zmm2                              #28.13 c29
..LN242:
        kmov      %eax, %k2                                     #28.13 c29
..LN243:
        movl      $43690, %eax                                  #28.13 c33
..LN244:
        xorl      %r8d, %r8d                                    #28.13 c33
..LN245:
        xorl      %r10d, %r10d                                  #28.13 c37
..LN246:
        kmov      %eax, %k1                                     #28.13 c37
..LN247:
        lea       (%rcx,%rdx,4), %rdx                           #28.51 c41
..LN248:
        movq      %rbx, 256(%rsp)                               #28.51 c41
	.cfi_escape 0x10, 0x03, 0x0e, 0x38, 0x1c, 0x0d, 0xc0, 0xff, 0xff, 0xff, 0x1a, 0x0d, 0xc0, 0xff, 0xff, 0xff, 0x22
..LN249:
                                # LOE rdx rsi r8 r9 r10 r11 r12 r13 r14 r15 zmm0 zmm1 zmm2 zmm3 zmm4 zmm5 k1 k2
..B2.19:                        # Preds ..B2.19 ..B2.18 Latency 137
..L37:          # optimization report
                # LOOP WAS VECTORIZED
                # REMAINDER LOOP FOR VECTORIZATION
                # SIMD LOOP
                # MASKED VECTORIZATION
                # VECTORIZATION HAS UNALIGNED MEMORY REFERENCES
                # VECTORIZATION SPEEDUP COEFFECIENT 2.595703
                # VECTOR TRIP COUNT IS ESTIMATED CONSTANT
                # VECTOR LENGTH 16
                # NORMALIZED VECTORIZATION OVERHEAD 0.750000
..LN250:
        addq      $16, %r8                                      #28.13 c1
..LN251:
        vpcmpud   $0, %zmm2, %zmm4, %k3                         #28.13 c5
..LN252:
        addq      $64, %r10                                     #28.13 c5
..LN253:
        vpcmpltd  %zmm2, %zmm4, %k0                             #28.13 c9
..LN254:
        vpcmpud   $2, %zmm2, %zmm4, %k4                         #28.13 c13
..LN255:
        kmov      %k3, %ecx                                     #28.13 c13
..LN256:
        vpcmpud   $2, %zmm2, %zmm3, %k3                         #28.13 c17
..LN257:
        kmov      %k0, %ebx                                     #28.13 c17
..LN258:
        vpcmpud   $0, %zmm2, %zmm3, %k0                         #28.13 c21
..LN259:
        kmov      %k4, %eax                                     #28.13 c21
..LN260:
        vpcmpltd  %zmm2, %zmm3, %k7                             #28.13 c25
..LN261:
        addl      %eax, %eax                                    #28.13 c25
..LN262:
        vmovaps   %zmm1, %zmm6                                  #28.13 c29
..LN263:
        kmov      %k3, %edi                                     #28.13 c29
..LN264:
        vmovaps   %zmm1, %zmm7                                  #28.13 c33
..LN265:
        andl      %ecx, %eax                                    #28.13 c33
..LN266:
        vmovaps   %zmm1, %zmm8                                  #28.51 c37
..LN267:
        kmov      %k0, %ecx                                     #28.13 c37
..LN268:
        vpaddsetcd %zmm5, %k3, %zmm4{%k2}                       #28.13 c41
..LN269:
        addl      %edi, %edi                                    #28.13 c41
..LN270:
        orl       %ebx, %eax                                    #28.13 c45
..LN271:
        kmov      %k7, %ebx                                     #28.13 c45
..LN272:
        andl      %ecx, %edi                                    #28.13 c49
..LN273:
        andl      $-21846, %eax                                 #28.13 c49
..LN274:
        orl       %ebx, %edi                                    #28.13 c53
..LN275:
        kmov      %eax, %k5                                     #28.13 c53
..LN276:
        vbroadcastss .L_2il0floatpacket.5(%rip), %zmm6{%k5}     #28.13 c57
..LN277:
        vcmpneqpd %zmm6, %zmm1, %k6                             #28.13 c61
..LN278:
        andl      $-21846, %edi                                 #28.13 c61
..LN279:
        kmov      %edi, %k4                                     #28.13 c65
..LN280:
        lea       -64(%rdx,%r10), %rbx                          #28.51 c65
..LN281:
        vbroadcastss .L_2il0floatpacket.5(%rip), %zmm7{%k4}     #28.13 c69
..LN282:
        vcmpneqpd %zmm7, %zmm1, %k5                             #28.13 c73
..LN283:
        kmov      %k6, %eax                                     #28.13 c73
..LN284:
        movzbl    %al, %eax                                     #28.13 c77
..LN285:
        movb      %dl, %dl                                      #28.13 c77
..LN286:
        kmov      %k5, %ecx                                     #28.13 c81
..LN287:
        shll      $8, %ecx                                      #28.13 c85
..LN288:
        vpaddsetcd %zmm5, %k5, %zmm3{%k2}                       #28.13 c89
..LN289:
        orl       %ecx, %eax                                    #28.13 c89
..LN290:
        kmov      %eax, %k7                                     #28.51 c93
..LN291:
        kmov      %k3, %eax                                     #28.13 c93
..LN292:
        kmov      %k7, %k6                                      #28.51 c97
..LN293:
        kmov      %k5, %ecx                                     #28.13 c97
..LN294:
        vgatherpf0hintdps (%rbx,%zmm0,4){%k6}                   #28.51 c101
..LN295:
        vgatherpf0hintdps (%rbx,%zmm0,4){%k6}                   #28.51
..LN296:
        nop                                                     #28.51
..L39:                                                          #
..LN297:
        vgatherdps (%rbx,%zmm0,4), %zmm8{%k6}                   #28.51
..LN298:
        jkzd      ..L38, %k6    # Prob 50%                      #28.51
..LN299:
        vgatherdps (%rbx,%zmm0,4), %zmm8{%k6}                   #28.51
..LN300:
        vgatherdps (%rbx,%zmm0,4), %zmm8{%k6}                   #28.51
..LN301:
        vgatherdps (%rbx,%zmm0,4), %zmm8{%k6}                   #28.51
..LN302:
        vgatherdps (%rbx,%zmm0,4), %zmm8{%k6}                   #28.51
..LN303:
        vgatherdps (%rbx,%zmm0,4), %zmm8{%k6}                   #28.51
..LN304:
        vgatherdps (%rbx,%zmm0,4), %zmm8{%k6}                   #28.51
..LN305:
        vgatherdps (%rbx,%zmm0,4), %zmm8{%k6}                   #28.51
..LN306:
        vgatherdps (%rbx,%zmm0,4), %zmm8{%k6}                   #28.51
..LN307:
        jknzd     ..L39, %k6    # Prob 50%                      #28.51
..L38:                                                          #
..LN308:
        vmovaps   %zmm8, -64(%r10,%r11){%k7}                    #28.42 c121
..LN309:
        addl      %eax, %eax                                    #28.13 c121
..LN310:
        addl      %ecx, %ecx                                    #28.13 c125
..LN311:
        kmov      %eax, %k4                                     #28.13 c125
..LN312:
        vpadcd    %zmm5, %k4, %zmm4{%k1}                        #28.13 c129
..LN313:
        kmov      %ecx, %k3                                     #28.13 c129
..LN314:
        vpadcd    %zmm5, %k3, %zmm3{%k1}                        #28.13 c133
..LN315:
        cmpq      %rsi, %r8                                     #28.13 c133
..LN316:
        jb        ..B2.19       # Prob 50%                      #28.13 c137
..LN317:
                                # LOE rdx rsi r8 r9 r10 r11 r12 r13 r14 r15 zmm0 zmm1 zmm2 zmm3 zmm4 zmm5 k1 k2
..B2.20:                        # Preds ..B2.19 Latency 1
..LN318:
        movq      256(%rsp), %rbx                               # c1
	.cfi_restore 3
..LN319:
                                # LOE rbx r9 r12 r13 r14 r15
..B2.21:                        # Preds ..B2.17 ..B2.8 ..B2.20 ..B2.2 Latency 9
..LN320:
	.loc    3  24  is_stmt 1
        movq      %r15, %rdi                                    #24.9 c1
..LN321:
        xorl      %eax, %eax                                    #24.9 c1
..LN322:
        movq      %r9, 280(%rsp)                                #24.9 c5
..___tag_value__ZN3mic10copytohostElPPfS0_.41:
..LN323:
        call      __offload_target_leave                        #24.9
..___tag_value__ZN3mic10copytohostElPPfS0_.42:
..LN324:
                                # LOE rbx r12 r13 r14
..B2.22:                        # Preds ..B2.21 Latency 9
..LN325:
	.loc    3  24  epilogue_begin  is_stmt 1
        addq      $312, %rsp                                    #24.9
	.cfi_restore 15
..LN326:
        popq      %r15                                          #24.9
..LN327:
        movq      %rbp, %rsp                                    #24.9 c9
..LN328:
        popq      %rbp                                          #24.9
	.cfi_def_cfa 7, 8
	.cfi_restore 6
..LN329:
        ret                                                     #24.9
	.cfi_def_cfa 6, 16
..LN330:
                                # LOE
	.type	__offload_entry_helper_mic_h_24copytohos_2a7ac4e8542455ed9ddae22208068638icc010935439037PRjdkN,@function
	.size	__offload_entry_helper_mic_h_24copytohos_2a7ac4e8542455ed9ddae22208068638icc010935439037PRjdkN,.-__offload_entry_helper_mic_h_24copytohos_2a7ac4e8542455ed9ddae22208068638icc010935439037PRjdkN
	.globl _ZN3mic10copytohostElPPfS0_
_ZN3mic10copytohostElPPfS0_:
# parameter 1(size): %rdi
# parameter 2(src): %rsi
# parameter 3(dst): %rdx
..B2.23:                        # Preds ..B2.0 Latency 13
..LN331:
	.loc    3  22  is_stmt 1
        pushq     %rbp                                          #22.5
	.cfi_def_cfa 7, 16
..LN332:
        movq      %rsp, %rbp                                    #22.5
	.cfi_def_cfa 6, 16
	.cfi_offset 6, -16
..LN333:
        andq      $-64, %rsp                                    #22.5
..LN334:
        pushq     %r15                                          #22.5 c1
..LN335:
        subq      $312, %rsp                                    #22.5 c1
..LN336:
	.loc    3  22  epilogue_begin  is_stmt 1
        addq      $312, %rsp                                    #22.5
	.cfi_escape 0x10, 0x0f, 0x0e, 0x38, 0x1c, 0x0d, 0xc0, 0xff, 0xff, 0xff, 0x1a, 0x0d, 0xf8, 0xff, 0xff, 0xff, 0x22
	.cfi_restore 15
..LN337:
        popq      %r15                                          #22.5
..LN338:
        movq      %rbp, %rsp                                    #22.5 c13
..LN339:
        popq      %rbp                                          #22.5
	.cfi_def_cfa 7, 8
	.cfi_restore 6
..LN340:
        ret                                                     #22.5
        .align    16,0x90
	.cfi_endproc
..LN341:
                                # LOE
..LN342:
# mark_end;
	.type	_ZN3mic10copytohostElPPfS0_,@function
	.size	_ZN3mic10copytohostElPPfS0_,.-_ZN3mic10copytohostElPPfS0_
..LN_ZN3mic10copytohostElPPfS0_.343:
.LN_ZN3mic10copytohostElPPfS0_:
	.data
	.align 64
	.align 64
.2.26_2__offload_var_desc1_p.30:
	.byte	34
	.byte	1
	.byte	1
	.byte	1
	.long	8
	.long	0
	.long	0
	.long	0x00000000,0x00000000
	.long	0x00000008,0x00000000
	.long	0x00000001,0x00000000
	.long	0x00000000,0x00000000
	.long	0x00000000,0x00000000
	.long	0x00000000,0x00000000
	.byte	34
	.byte	2
	.byte	1
	.byte	1
	.long	4
	.long	0
	.long	0
	.long	0x00000000,0x00000000
	.long	0x00000004,0x00000000
	.long	0x00000001,0x00000000
	.long	0x00000000,0x00000000
	.long	0x00000000,0x00000000
	.long	0x00000000,0x00000000
	.byte	17
	.byte	3
	.byte	1
	.byte	1
	.long	8
	.long	0
	.long	0
	.long	0x00000000,0x00000000
	.long	0x00000008,0x00000000
	.long	0x00000001,0x00000000
	.long	0x00000000,0x00000000
	.long	0x00000000,0x00000000
	.long	0x00000000,0x00000000
	.align 8
.2.26_2__offload_var_desc2_p.35:
	.quad	__sd_2inst_string.1
	.long	0x00000000,0x00000000
	.quad	__sd_2inst_string.2
	.long	0x00000000,0x00000000
	.quad	__sd_2inst_string.3
	.long	0x00000000,0x00000000
	.section .rodata, "a"
	.align 64
	.align 4
__sd_2inst_string.0:
	.byte	95
	.byte	95
	.byte	111
	.byte	102
	.byte	102
	.byte	108
	.byte	111
	.byte	97
	.byte	100
	.byte	95
	.byte	101
	.byte	110
	.byte	116
	.byte	114
	.byte	121
	.byte	95
	.byte	104
	.byte	101
	.byte	108
	.byte	112
	.byte	101
	.byte	114
	.byte	95
	.byte	109
	.byte	105
	.byte	99
	.byte	95
	.byte	104
	.byte	95
	.byte	50
	.byte	52
	.byte	99
	.byte	111
	.byte	112
	.byte	121
	.byte	116
	.byte	111
	.byte	104
	.byte	111
	.byte	115
	.byte	95
	.byte	50
	.byte	97
	.byte	55
	.byte	97
	.byte	99
	.byte	52
	.byte	101
	.byte	56
	.byte	53
	.byte	52
	.byte	50
	.byte	52
	.byte	53
	.byte	53
	.byte	101
	.byte	100
	.byte	57
	.byte	100
	.byte	100
	.byte	97
	.byte	101
	.byte	50
	.byte	50
	.byte	50
	.byte	48
	.byte	56
	.byte	48
	.byte	54
	.byte	56
	.byte	54
	.byte	51
	.byte	56
	.byte	105
	.byte	99
	.byte	99
	.byte	48
	.byte	49
	.byte	48
	.byte	57
	.byte	51
	.byte	53
	.byte	52
	.byte	51
	.byte	57
	.byte	48
	.byte	51
	.byte	55
	.byte	80
	.byte	82
	.byte	106
	.byte	100
	.byte	107
	.byte	78
	.byte	0
	.space 1, 0x00 	# pad
	.align 4
__sd_2inst_string.1:
	.byte	115
	.byte	114
	.byte	99
	.byte	0
	.align 4
__sd_2inst_string.2:
	.byte	100
	.byte	115
	.byte	116
	.byte	0
	.align 4
__sd_2inst_string.3:
	.byte	110
	.byte	0
	.section .OffloadEntryTable., "waG",@progbits,__offload_entry_helper_mic_h_24copytohos_2a7ac4e8542455ed9ddae22208068638icc010935439037PRjdkN_$entry,comdat
	.align 16
__offload_entry_helper_mic_h_24copytohos_2a7ac4e8542455ed9ddae22208068638icc010935439037PRjdkN_$entry:
	.type	__offload_entry_helper_mic_h_24copytohos_2a7ac4e8542455ed9ddae22208068638icc010935439037PRjdkN_$entry,@object
	.size	__offload_entry_helper_mic_h_24copytohos_2a7ac4e8542455ed9ddae22208068638icc010935439037PRjdkN_$entry,16
	.quad	__sd_2inst_string.0
	.quad	__offload_entry_helper_mic_h_24copytohos_2a7ac4e8542455ed9ddae22208068638icc010935439037PRjdkN
	.data
# -- End  _ZN3mic10copytohostElPPfS0_, __offload_entry_helper_mic_h_24copytohos_2a7ac4e8542455ed9ddae22208068638icc010935439037PRjdkN
	.text
.L_2__routine_start__ZN3mic5allocElPPf_2:
# -- Begin  _ZN3mic5allocElPPf, __offload_entry_helper_mic_h_34alloc_6e52945d3c539e3b55349cb0be18b178icc010935439037PRjdkN
	.text
# mark_begin;
# Threads 4
        .align    16,0x90
__offload_entry_helper_mic_h_34alloc_6e52945d3c539e3b55349cb0be18b178icc010935439037PRjdkN:
# parameter 1: %rdi
..B3.1:                         # Preds ..B3.0 Latency 57
	.cfi_startproc
	.cfi_personality 0x3,__gxx_personality_v0
..___tag_value__ZN3mic5allocElPPf.63:
..L64:
                                                         #34.9
..LN344:
	.loc    3  34  is_stmt 1
        pushq     %rbp                                          #34.9
	.cfi_def_cfa_offset 16
..LN345:
        movq      %rsp, %rbp                                    #34.9
	.cfi_def_cfa 6, 16
	.cfi_offset 6, -16
..LN346:
        andq      $-64, %rsp                                    #34.9
..LN347:
        pushq     %r15                                          #34.9 c1
..LN348:
        pushq     %rbx                                          #34.9 c5
..LN349:
        subq      $176, %rsp                                    #34.9 c5
..LN350:
        vmovaps   .2.27_2__offload_var_desc1_p.28(%rip), %zmm0  #34.9 c9
..LN351:
        vmovaps   64+.2.27_2__offload_var_desc1_p.28(%rip), %zmm1 #34.9 c13
..LN352:
        lea       (%rsp), %rdx                                  #34.9 c17
..LN353:
        lea       128(%rsp), %rcx                               #34.9 c17
..LN354:
        vmovaps   %zmm0, (%rdx)                                 #34.9 c21
..LN355:
        movq      .2.27_2__offload_var_desc2_p.33(%rip), %r8    #34.9 c21
..LN356:
        vmovaps   %zmm1, 64(%rdx)                               #34.9 c25
..LN357:
        lea       160(%rsp), %rsi                               #34.9 c25
..LN358:
        movq      %r8, (%rcx)                                   #34.9 c29
..LN359:
        lea       168(%rsp), %r8                                #34.9 c29
..LN360:
        movq      8+.2.27_2__offload_var_desc2_p.33(%rip), %r9  #34.9 c33
..LN361:
        movq      16+.2.27_2__offload_var_desc2_p.33(%rip), %r10 #34.9 c33
..LN362:
        movq      24+.2.27_2__offload_var_desc2_p.33(%rip), %r11 #34.9 c37
..LN363:
        movq      %rsi, 56(%rdx)                                #34.9 c37
..LN364:
        movl      $2, %esi                                      #34.9 c41
..LN365:
        xorl      %eax, %eax                                    #34.9 c41
	.cfi_escape 0x10, 0x03, 0x0e, 0x38, 0x1c, 0x0d, 0xc0, 0xff, 0xff, 0xff, 0x1a, 0x0d, 0xf0, 0xff, 0xff, 0xff, 0x22
	.cfi_escape 0x10, 0x0f, 0x0e, 0x38, 0x1c, 0x0d, 0xc0, 0xff, 0xff, 0xff, 0x1a, 0x0d, 0xf8, 0xff, 0xff, 0xff, 0x22
..LN366:
        movq      %rdi, %rbx                                    #34.9 c45
..LN367:
        movq      %r9, 8(%rcx)                                  #34.9 c45
..LN368:
        movq      %r10, 16(%rcx)                                #34.9 c49
..LN369:
        movq      %r11, 24(%rcx)                                #34.9 c49
..LN370:
        movq      %r8, 120(%rdx)                                #34.9 c53
..___tag_value__ZN3mic5allocElPPf.71:
..LN371:
        call      __offload_target_enter                        #34.9
..___tag_value__ZN3mic5allocElPPf.72:
..LN372:
                                # LOE rbx r12 r13 r14
..B3.2:                         # Preds ..B3.1 Latency 9
..LN373:
	.loc    3  34  prologue_end  is_stmt 1
        movq      160(%rsp), %r15                               #34.9 c1
..LN374:
	.loc    3  36  is_stmt 1
        movl      $64, %esi                                     #36.29 c1
..LN375:
        movq      %r15, %rdi                                    #36.29 c5
..LN376:
        call      _mm_malloc                                    #36.29 c9
..LN377:
                                # LOE rax rbx r12 r13 r14 r15
..B3.3:                         # Preds ..B3.2 Latency 13
..LN378:
        movq      168(%rsp), %rdx                               #36.14 c1
..LN379:
	.loc    3  34  is_stmt 1
        movq      %rbx, %rdi                                    #34.9 c1
..LN380:
	.loc    3  36  is_stmt 1
        movq      %rax, (%rdx)                                  #36.14 c5
..LN381:
	.loc    3  34  is_stmt 1
        xorl      %eax, %eax                                    #34.9 c5
..LN382:
        movq      %r15, 160(%rsp)                               #34.9 c9
..___tag_value__ZN3mic5allocElPPf.73:
..LN383:
        call      __offload_target_leave                        #34.9
..___tag_value__ZN3mic5allocElPPf.74:
..LN384:
                                # LOE r12 r13 r14
..B3.4:                         # Preds ..B3.3 Latency 13
..LN385:
	.loc    3  34  epilogue_begin  is_stmt 1
        addq      $176, %rsp                                    #34.9
	.cfi_restore 3
..LN386:
        popq      %rbx                                          #34.9
	.cfi_restore 15
..LN387:
        popq      %r15                                          #34.9
..LN388:
        movq      %rbp, %rsp                                    #34.9 c13
..LN389:
        popq      %rbp                                          #34.9
	.cfi_def_cfa 7, 8
	.cfi_restore 6
..LN390:
        ret                                                     #34.9
	.cfi_def_cfa 6, 16
..LN391:
                                # LOE
	.type	__offload_entry_helper_mic_h_34alloc_6e52945d3c539e3b55349cb0be18b178icc010935439037PRjdkN,@function
	.size	__offload_entry_helper_mic_h_34alloc_6e52945d3c539e3b55349cb0be18b178icc010935439037PRjdkN,.-__offload_entry_helper_mic_h_34alloc_6e52945d3c539e3b55349cb0be18b178icc010935439037PRjdkN
	.globl _ZN3mic5allocElPPf
_ZN3mic5allocElPPf:
# parameter 1(size): %rdi
# parameter 2(mem): %rsi
..B3.5:                         # Preds ..B3.0 Latency 21
..LN392:
	.loc    3  33  is_stmt 1
        pushq     %rbp                                          #33.5
	.cfi_def_cfa 7, 16
..LN393:
        movq      %rsp, %rbp                                    #33.5
	.cfi_def_cfa 6, 16
	.cfi_offset 6, -16
..LN394:
        andq      $-64, %rsp                                    #33.5
..LN395:
        pushq     %r15                                          #33.5 c1
..LN396:
        pushq     %rbx                                          #33.5 c5
..LN397:
        subq      $176, %rsp                                    #33.5 c5
..LN398:
	.loc    3  33  epilogue_begin  is_stmt 1
        addq      $176, %rsp                                    #33.5
	.cfi_escape 0x10, 0x03, 0x0e, 0x38, 0x1c, 0x0d, 0xc0, 0xff, 0xff, 0xff, 0x1a, 0x0d, 0xf0, 0xff, 0xff, 0xff, 0x22
	.cfi_escape 0x10, 0x0f, 0x0e, 0x38, 0x1c, 0x0d, 0xc0, 0xff, 0xff, 0xff, 0x1a, 0x0d, 0xf8, 0xff, 0xff, 0xff, 0x22
	.cfi_restore 3
..LN399:
        popq      %rbx                                          #33.5
	.cfi_restore 15
..LN400:
        popq      %r15                                          #33.5
..LN401:
        movq      %rbp, %rsp                                    #33.5 c21
..LN402:
        popq      %rbp                                          #33.5
	.cfi_def_cfa 7, 8
	.cfi_restore 6
..LN403:
        ret                                                     #33.5
        .align    16,0x90
	.cfi_endproc
..LN404:
                                # LOE
..LN405:
# mark_end;
	.type	_ZN3mic5allocElPPf,@function
	.size	_ZN3mic5allocElPPf,.-_ZN3mic5allocElPPf
..LN_ZN3mic5allocElPPf.406:
.LN_ZN3mic5allocElPPf:
	.data
	.space 16, 0x00 	# pad
	.align 64
.2.27_2__offload_var_desc1_p.28:
	.byte	17
	.byte	1
	.byte	1
	.byte	1
	.long	8
	.long	0
	.long	0
	.long	0x00000000,0x00000000
	.long	0x00000008,0x00000000
	.long	0x00000001,0x00000000
	.long	0x00000000,0x00000000
	.long	0x00000000,0x00000000
	.long	0x00000000,0x00000000
	.byte	34
	.byte	2
	.byte	1
	.byte	1
	.long	8
	.long	0
	.long	0
	.long	0x00000000,0x00000000
	.long	0x00000008,0x00000000
	.long	0x00000001,0x00000000
	.long	0x00000000,0x00000000
	.long	0x00000000,0x00000000
	.long	0x00000000,0x00000000
	.align 8
.2.27_2__offload_var_desc2_p.33:
	.quad	__sd_2inst_string.5
	.long	0x00000000,0x00000000
	.quad	__sd_2inst_string.6
	.long	0x00000000,0x00000000
	.section .rodata, "a"
	.space 2, 0x00 	# pad
	.align 4
__sd_2inst_string.4:
	.byte	95
	.byte	95
	.byte	111
	.byte	102
	.byte	102
	.byte	108
	.byte	111
	.byte	97
	.byte	100
	.byte	95
	.byte	101
	.byte	110
	.byte	116
	.byte	114
	.byte	121
	.byte	95
	.byte	104
	.byte	101
	.byte	108
	.byte	112
	.byte	101
	.byte	114
	.byte	95
	.byte	109
	.byte	105
	.byte	99
	.byte	95
	.byte	104
	.byte	95
	.byte	51
	.byte	52
	.byte	97
	.byte	108
	.byte	108
	.byte	111
	.byte	99
	.byte	95
	.byte	54
	.byte	101
	.byte	53
	.byte	50
	.byte	57
	.byte	52
	.byte	53
	.byte	100
	.byte	51
	.byte	99
	.byte	53
	.byte	51
	.byte	57
	.byte	101
	.byte	51
	.byte	98
	.byte	53
	.byte	53
	.byte	51
	.byte	52
	.byte	57
	.byte	99
	.byte	98
	.byte	48
	.byte	98
	.byte	101
	.byte	49
	.byte	56
	.byte	98
	.byte	49
	.byte	55
	.byte	56
	.byte	105
	.byte	99
	.byte	99
	.byte	48
	.byte	49
	.byte	48
	.byte	57
	.byte	51
	.byte	53
	.byte	52
	.byte	51
	.byte	57
	.byte	48
	.byte	51
	.byte	55
	.byte	80
	.byte	82
	.byte	106
	.byte	100
	.byte	107
	.byte	78
	.byte	0
	.space 1, 0x00 	# pad
	.align 4
__sd_2inst_string.5:
	.byte	115
	.byte	105
	.byte	122
	.byte	101
	.byte	0
	.space 3, 0x00 	# pad
	.align 4
__sd_2inst_string.6:
	.byte	109
	.byte	101
	.byte	109
	.byte	0
	.section .OffloadEntryTable., "waG",@progbits,__offload_entry_helper_mic_h_34alloc_6e52945d3c539e3b55349cb0be18b178icc010935439037PRjdkN_$entry,comdat
	.align 16
__offload_entry_helper_mic_h_34alloc_6e52945d3c539e3b55349cb0be18b178icc010935439037PRjdkN_$entry:
	.type	__offload_entry_helper_mic_h_34alloc_6e52945d3c539e3b55349cb0be18b178icc010935439037PRjdkN_$entry,@object
	.size	__offload_entry_helper_mic_h_34alloc_6e52945d3c539e3b55349cb0be18b178icc010935439037PRjdkN_$entry,16
	.quad	__sd_2inst_string.4
	.quad	__offload_entry_helper_mic_h_34alloc_6e52945d3c539e3b55349cb0be18b178icc010935439037PRjdkN
	.data
# -- End  _ZN3mic5allocElPPf, __offload_entry_helper_mic_h_34alloc_6e52945d3c539e3b55349cb0be18b178icc010935439037PRjdkN
	.text
.L_2__routine_start__ZN3mic5clearElPPf_3:
# -- Begin  _ZN3mic5clearElPPf, __offload_entry_helper_mic_h_13clear_19a24bfe21b0d9401b6fecd8ec8d0aa6icc010935439037PRjdkN
	.text
# mark_begin;
# Threads 4
        .align    16,0x90
__offload_entry_helper_mic_h_13clear_19a24bfe21b0d9401b6fecd8ec8d0aa6icc010935439037PRjdkN:
# parameter 1: %rdi
..B4.1:                         # Preds ..B4.0 Latency 53
	.cfi_startproc
	.cfi_personality 0x3,__gxx_personality_v0
..___tag_value__ZN3mic5clearElPPf.98:
..L99:
                                                         #13.9
..LN407:
	.loc    3  13  is_stmt 1
        pushq     %rbp                                          #13.9
	.cfi_def_cfa_offset 16
..LN408:
        movq      %rsp, %rbp                                    #13.9
	.cfi_def_cfa 6, 16
	.cfi_offset 6, -16
..LN409:
        andq      $-64, %rsp                                    #13.9
..LN410:
        pushq     %rbx                                          #13.9 c1
..LN411:
        subq      $248, %rsp                                    #13.9 c1
..LN412:
        vmovaps   .2.28_2__offload_var_desc1_p.28(%rip), %zmm0  #13.9 c5
..LN413:
        vmovaps   64+.2.28_2__offload_var_desc1_p.28(%rip), %zmm1 #13.9 c9
..LN414:
        lea       64(%rsp), %rdx                                #13.9 c13
..LN415:
        lea       8(%rsp), %rcx                                 #13.9 c13
..LN416:
        vmovaps   %zmm0, (%rdx)                                 #13.9 c17
..LN417:
        lea       48(%rsp), %rax                                #13.9 c17
..LN418:
        vmovaps   %zmm1, 64(%rdx)                               #13.9 c21
..LN419:
        lea       56(%rsp), %rsi                                #13.9 c21
..LN420:
        movq      .2.28_2__offload_var_desc2_p.33(%rip), %r8    #13.9 c25
..LN421:
        movq      8+.2.28_2__offload_var_desc2_p.33(%rip), %r9  #13.9 c25
..LN422:
        movq      16+.2.28_2__offload_var_desc2_p.33(%rip), %r10 #13.9 c29
..LN423:
        movq      24+.2.28_2__offload_var_desc2_p.33(%rip), %r11 #13.9 c29
..LN424:
        movq      %rax, 56(%rdx)                                #13.9 c33
	.cfi_escape 0x10, 0x03, 0x0e, 0x38, 0x1c, 0x0d, 0xc0, 0xff, 0xff, 0xff, 0x1a, 0x0d, 0xf8, 0xff, 0xff, 0xff, 0x22
..LN425:
        movq      %rdi, %rbx                                    #13.9 c33
..LN426:
        movq      %rsi, 136(%rax)                               #13.9 c37
..LN427:
        movl      $2, %esi                                      #13.9 c37
..LN428:
        xorl      %eax, %eax                                    #13.9 c41
..LN429:
        movq      %r8, (%rcx)                                   #13.9 c41
..LN430:
        movq      %r9, 8(%rcx)                                  #13.9 c45
..LN431:
        movq      %r10, 16(%rcx)                                #13.9 c45
..LN432:
        movq      %r11, 24(%rcx)                                #13.9 c49
..___tag_value__ZN3mic5clearElPPf.105:
..LN433:
        call      __offload_target_enter                        #13.9
..___tag_value__ZN3mic5clearElPPf.106:
..LN434:
                                # LOE rbx r12 r13 r14 r15
..B4.2:                         # Preds ..B4.1 Latency 9
..LN435:
	.loc    3  15  prologue_end  is_stmt 1
        movq      48(%rsp), %rdx                                #15.27 c1
..LN436:
	.loc    3  13  is_stmt 1
        movq      56(%rsp), %rax                                #13.9 c1
..LN437:
	.loc    3  15  is_stmt 1
        movq      (%rdx), %r11                                  #15.27 c5
..LN438:
	.loc    3  17  is_stmt 1
        testq     %rax, %rax                                    #17.42 c5
..LN439:
        jle       ..B4.17       # Prob 50%                      #17.42 c9
..LN440:
                                # LOE rax rbx r11 r12 r13 r14 r15
..B4.3:                         # Preds ..B4.2 Latency 5
..LN441:
        movq      %r11, %rsi                                    #17.13 c1
..LN442:
        andq      $63, %rsi                                     #17.13 c5
..LN443:
        je        ..B4.5        # Prob 50%                      #17.13 c5
..LN444:
                                # LOE rax rbx rsi r11 r12 r13 r14 r15
..B4.4:                         # Preds ..B4.3 Latency 17
..LN445:
        negq      %rsi                                          #17.13 c1
..LN446:
        addq      $64, %rsi                                     #17.13 c5
..LN447:
        shrq      $2, %rsi                                      #17.13 c9
..LN448:
        cmpq      %rsi, %rax                                    #17.13 c13
..LN449:
        jge       ..L107        # Prob 50%                      #17.13 c17
..LN450:
        movq      %rax, %rsi                                    #17.13
..L107:                                                         #
..LN451:
                                # LOE rax rbx rsi r11 r12 r13 r14 r15
..B4.5:                         # Preds ..B4.4 ..B4.3 Latency 21
..LN452:
        movq      %rax, %r10                                    #17.13 c1
..LN453:
        subq      %rsi, %r10                                    #17.13 c5
..LN454:
        andq      $31, %r10                                     #17.13 c9
..LN455:
        negq      %r10                                          #17.13 c13
..LN456:
        addq      %rax, %r10                                    #17.13 c17
..LN457:
        cmpq      $1, %rsi                                      #17.13 c21
..LN458:
        jb        ..B4.9        # Prob 50%                      #17.13 c21
..LN459:
                                # LOE rax rbx rsi r10 r11 r12 r13 r14 r15
..B4.6:                         # Preds ..B4.5 Latency 29
..LN460:
        vpbroadcastq .L_2il0floatpacket.1(%rip), %zmm4          #17.13 c1
..LN461:
        vmovdqa32 .L_2il0floatpacket.3(%rip), %zmm3             #17.13 c5
..LN462:
        vmovdqa32 .L_2il0floatpacket.4(%rip), %zmm2             #17.13 c9
..LN463:
        vpxord    %zmm1, %zmm1, %zmm1                           #17.51 c13
..LN464:
        movl      $21845, %edx                                  #17.13 c13
..LN465:
        movq      %rsi, (%rsp)                                  #17.13 c17
..LN466:
        kmov      %edx, %k2                                     #17.13 c17
..LN467:
        vpbroadcastq (%rsp), %zmm0                              #17.13 c21
..LN468:
        movl      $43690, %edx                                  #17.13 c21
..LN469:
        xorl      %r8d, %r8d                                    #17.13 c25
..LN470:
        xorl      %ecx, %ecx                                    #17.13 c25
..LN471:
        kmov      %edx, %k1                                     #17.13 c29
..LN472:
        movq      %r15, 40(%rsp)                                #17.13 c29
	.cfi_escape 0x10, 0x0f, 0x0e, 0x38, 0x1c, 0x0d, 0xc0, 0xff, 0xff, 0xff, 0x1a, 0x0d, 0x28, 0xff, 0xff, 0xff, 0x22
..LN473:
                                # LOE rax rcx rbx rsi r8 r10 r11 r12 r13 r14 zmm0 zmm1 zmm2 zmm3 zmm4 k1 k2
..B4.7:                         # Preds ..B4.7 ..B4.6 Latency 105
..L109:         # optimization report
                # LOOP WAS VECTORIZED
                # PEELED LOOP FOR VECTORIZATION
                # SIMD LOOP
                # MASKED VECTORIZATION
                # VECTORIZATION HAS UNALIGNED MEMORY REFERENCES
                # VECTORIZATION SPEEDUP COEFFECIENT 1.778320
                # VECTOR TRIP COUNT IS ESTIMATED CONSTANT
                # VECTOR LENGTH 16
                # NORMALIZED VECTORIZATION OVERHEAD 0.812500
..LN474:
        addq      $16, %r8                                      #17.13 c1
..LN475:
        vpcmpud   $0, %zmm0, %zmm3, %k3                         #17.13 c5
..LN476:
        addq      $64, %rcx                                     #17.13 c5
..LN477:
        vpcmpltd  %zmm0, %zmm3, %k0                             #17.13 c9
..LN478:
        vpcmpud   $2, %zmm0, %zmm3, %k4                         #17.13 c13
..LN479:
        kmov      %k3, %r9d                                     #17.13 c13
..LN480:
        vpcmpud   $2, %zmm0, %zmm2, %k3                         #17.13 c17
..LN481:
        kmov      %k0, %r15d                                    #17.13 c17
..LN482:
        vpcmpud   $0, %zmm0, %zmm2, %k0                         #17.13 c21
..LN483:
        kmov      %k4, %edx                                     #17.13 c21
..LN484:
        vpcmpltd  %zmm0, %zmm2, %k7                             #17.13 c25
..LN485:
        addl      %edx, %edx                                    #17.13 c25
..LN486:
        vmovaps   %zmm1, %zmm6                                  #17.13 c29
..LN487:
        kmov      %k3, %edi                                     #17.13 c29
..LN488:
        vmovaps   %zmm1, %zmm5                                  #17.13 c33
..LN489:
        andl      %r9d, %edx                                    #17.13 c33
..LN490:
        vpaddsetcd %zmm4, %k3, %zmm3{%k2}                       #17.13 c37
..LN491:
        kmov      %k0, %r9d                                     #17.13 c37
..LN492:
        addl      %edi, %edi                                    #17.13 c41
..LN493:
        orl       %r15d, %edx                                   #17.13 c41
..LN494:
        kmov      %k7, %r15d                                    #17.13 c45
..LN495:
        andl      %r9d, %edi                                    #17.13 c45
..LN496:
        orl       %r15d, %edi                                   #17.13 c49
..LN497:
        andl      $-21846, %edx                                 #17.13 c49
..LN498:
        andl      $-21846, %edi                                 #17.13 c53
..LN499:
        kmov      %edx, %k5                                     #17.13 c53
..LN500:
        vbroadcastss .L_2il0floatpacket.5(%rip), %zmm5{%k5}     #17.13 c57
..LN501:
        vcmpneqpd %zmm5, %zmm1, %k6                             #17.13 c61
..LN502:
        kmov      %edi, %k4                                     #17.13 c61
..LN503:
        vbroadcastss .L_2il0floatpacket.5(%rip), %zmm6{%k4}     #17.13 c65
..LN504:
        vcmpneqpd %zmm6, %zmm1, %k5                             #17.13 c69
..LN505:
        kmov      %k6, %edx                                     #17.13 c69
..LN506:
        movzbl    %dl, %edx                                     #17.42 c73
..LN507:
        kmov      %k3, %r15d                                    #17.13 c73
..LN508:
        kmov      %k5, %r9d                                     #17.13 c77
..LN509:
        addl      %r15d, %r15d                                  #17.13 c77
..LN510:
        vpaddsetcd %zmm4, %k5, %zmm2{%k2}                       #17.13 c81
..LN511:
        kmov      %r15d, %k4                                    #17.13 c81
..LN512:
        shll      $8, %r9d                                      #17.42 c85
..LN513:
        vpadcd    %zmm4, %k4, %zmm3{%k1}                        #17.13 c89
..LN514:
        orl       %r9d, %edx                                    #17.42 c89
..LN515:
        kmov      %edx, %k6                                     #17.42 c93
..LN516:
        kmov      %k5, %edx                                     #17.13 c93
..LN517:
        vpackstorelps %zmm1, -64(%rcx,%r11){%k6}                #17.42 c97
..LN518:
        addl      %edx, %edx                                    #17.13 c97
..LN519:
        kmov      %edx, %k7                                     #17.13 c101
..LN520:
        cmpq      %rsi, %r8                                     #17.13 c101
..LN521:
        vpadcd    %zmm4, %k7, %zmm2{%k1}                        #17.13 c105
..LN522:
        jb        ..B4.7        # Prob 50%                      #17.13 c105
..LN523:
                                # LOE rax rcx rbx rsi r8 r10 r11 r12 r13 r14 zmm0 zmm1 zmm2 zmm3 zmm4 k1 k2
..B4.8:                         # Preds ..B4.7 Latency 5
..LN524:
        movq      40(%rsp), %r15                                # c1
	.cfi_restore 15
..LN525:
        cmpq      %rsi, %rax                                    #17.13 c1
..LN526:
        je        ..B4.17       # Prob 10%                      #17.13 c5
..LN527:
                                # LOE rax rbx rsi r10 r11 r12 r13 r14 r15
..B4.9:                         # Preds ..B4.5 ..B4.8 Latency 5
..LN528:
        lea       32(%rsi), %rdx                                #17.13 c1
..LN529:
        cmpq      %rdx, %r10                                    #17.13 c5
..LN530:
        jl        ..B4.13       # Prob 50%                      #17.13 c5
..LN531:
                                # LOE rax rbx rsi r10 r11 r12 r13 r14 r15
..B4.10:                        # Preds ..B4.9 Latency 21
..LN532:
        vpxord    %zmm0, %zmm0, %zmm0                           #17.51 c1
..LN533:
        vprefetche0 (%r11)                                      #17.42 c1
..LN534:
        vprefetche0 128(%r11)                                   #17.42 c5
..LN535:
        movb      %al, %al                                      #17.42 c5
..LN536:
        vprefetche0 256(%r11)                                   #17.42 c9
..LN537:
        movb      %al, %al                                      #17.42 c9
..LN538:
        vprefetche0 384(%r11)                                   #17.42 c13
..LN539:
        movb      %al, %al                                      #17.42 c13
..LN540:
        vprefetche0 64(%r11)                                    #17.42 c17
..LN541:
        movb      %al, %al                                      #17.42 c17
..LN542:
        vprefetche0 192(%r11)                                   #17.42 c21
..LN543:
                                # LOE rax rbx rsi r10 r11 r12 r13 r14 r15 zmm0
..B4.11:                        # Preds ..B4.11 ..B4.10 Latency 17
..L111:         # optimization report
                # LOOP WAS UNROLLED BY 2
                # LOOP WAS PREFETCHED, LINES = 4
                # LOOP WAS VECTORIZED
                # SIMD LOOP
                # VECTORIZATION SPEEDUP COEFFECIENT 15.796875
                # VECTOR TRIP COUNT IS ESTIMATED CONSTANT
                # VECTOR LENGTH 16
                # NORMALIZED VECTORIZATION OVERHEAD 1.625000
..LN544:
        vprefetche1 1024(%r11,%rsi,4)                           #17.42 c1
..LN545:
        vmovaps   %zmm0, (%r11,%rsi,4)                          #17.42 c5
..LN546:
        vprefetche0 512(%r11,%rsi,4)                            #17.42 c5
..LN547:
        vmovaps   %zmm0, 64(%r11,%rsi,4)                        #17.42 c9
..LN548:
        vprefetche1 1088(%r11,%rsi,4)                           #17.42 c9
..LN549:
        vprefetche0 576(%r11,%rsi,4)                            #17.42 c13
..LN550:
        addq      $32, %rsi                                     #17.13 c13
..LN551:
        cmpq      %r10, %rsi                                    #17.13 c17
..LN552:
        jb        ..B4.11       # Prob 50%                      #17.13 c17
..LN553:
                                # LOE rax rbx rsi r10 r11 r12 r13 r14 r15 zmm0
..B4.13:                        # Preds ..B4.11 ..B4.9 Latency 5
..LN554:
        lea       1(%r10), %rdx                                 #17.13 c1
..LN555:
        cmpq      %rdx, %rax                                    #17.13 c5
..LN556:
        jb        ..B4.17       # Prob 50%                      #17.13 c5
..LN557:
                                # LOE rax rbx r10 r11 r12 r13 r14 r15
..B4.14:                        # Preds ..B4.13 Latency 33
..LN558:
        vpbroadcastq .L_2il0floatpacket.1(%rip), %zmm4          #17.13 c1
..LN559:
        vmovdqa32 .L_2il0floatpacket.3(%rip), %zmm3             #17.13 c5
..LN560:
        vmovdqa32 .L_2il0floatpacket.4(%rip), %zmm2             #17.13 c9
..LN561:
        vpxord    %zmm0, %zmm0, %zmm0                           #17.51 c13
..LN562:
        movq      %rax, %r8                                     #17.13 c13
..LN563:
        subq      %r10, %r8                                     #17.13 c17
..LN564:
        movl      $21845, %edx                                  #17.13 c17
..LN565:
        movq      %r8, (%rsp)                                   #17.13 c21
..LN566:
        kmov      %edx, %k2                                     #17.13 c21
..LN567:
        vpbroadcastq (%rsp), %zmm1                              #17.13 c25
..LN568:
        movl      $43690, %edx                                  #17.13 c25
..LN569:
        xorl      %r9d, %r9d                                    #17.13 c29
..LN570:
        lea       (%r11,%r10,4), %rcx                           #17.42 c29
..LN571:
        xorl      %esi, %esi                                    #17.13 c33
..LN572:
        kmov      %edx, %k1                                     #17.13 c33
..LN573:
                                # LOE rax rcx rbx rsi r8 r9 r12 r13 r14 r15 zmm0 zmm1 zmm2 zmm3 zmm4 k1 k2
..B4.15:                        # Preds ..B4.15 ..B4.14 Latency 105
..L112:         # optimization report
                # LOOP WAS VECTORIZED
                # REMAINDER LOOP FOR VECTORIZATION
                # SIMD LOOP
                # MASKED VECTORIZATION
                # VECTORIZATION SPEEDUP COEFFECIENT 3.048828
                # VECTOR TRIP COUNT IS ESTIMATED CONSTANT
                # VECTOR LENGTH 16
                # NORMALIZED VECTORIZATION OVERHEAD 1.000000
..LN574:
        addq      $16, %r9                                      #17.13 c1
..LN575:
        vpcmpud   $0, %zmm1, %zmm3, %k3                         #17.13 c5
..LN576:
        addq      $64, %rsi                                     #17.13 c5
..LN577:
        vpcmpltd  %zmm1, %zmm3, %k0                             #17.13 c9
..LN578:
        vpcmpud   $2, %zmm1, %zmm3, %k4                         #17.13 c13
..LN579:
        kmov      %k3, %r10d                                    #17.13 c13
..LN580:
        vpcmpud   $2, %zmm1, %zmm2, %k3                         #17.13 c17
..LN581:
        kmov      %k0, %r11d                                    #17.13 c17
..LN582:
        vpcmpud   $0, %zmm1, %zmm2, %k0                         #17.13 c21
..LN583:
        kmov      %k4, %edx                                     #17.13 c21
..LN584:
        vpcmpltd  %zmm1, %zmm2, %k7                             #17.13 c25
..LN585:
        addl      %edx, %edx                                    #17.13 c25
..LN586:
        vmovaps   %zmm0, %zmm6                                  #17.13 c29
..LN587:
        kmov      %k3, %edi                                     #17.13 c29
..LN588:
        vmovaps   %zmm0, %zmm5                                  #17.13 c33
..LN589:
        andl      %r10d, %edx                                   #17.13 c33
..LN590:
        vpaddsetcd %zmm4, %k3, %zmm3{%k2}                       #17.13 c37
..LN591:
        kmov      %k0, %r10d                                    #17.13 c37
..LN592:
        addl      %edi, %edi                                    #17.13 c41
..LN593:
        orl       %r11d, %edx                                   #17.13 c41
..LN594:
        kmov      %k7, %r11d                                    #17.13 c45
..LN595:
        andl      %r10d, %edi                                   #17.13 c45
..LN596:
        orl       %r11d, %edi                                   #17.13 c49
..LN597:
        andl      $-21846, %edx                                 #17.13 c49
..LN598:
        andl      $-21846, %edi                                 #17.13 c53
..LN599:
        kmov      %edx, %k5                                     #17.13 c53
..LN600:
        vbroadcastss .L_2il0floatpacket.5(%rip), %zmm5{%k5}     #17.13 c57
..LN601:
        vcmpneqpd %zmm5, %zmm0, %k6                             #17.13 c61
..LN602:
        kmov      %edi, %k4                                     #17.13 c61
..LN603:
        vbroadcastss .L_2il0floatpacket.5(%rip), %zmm6{%k4}     #17.13 c65
..LN604:
        vcmpneqpd %zmm6, %zmm0, %k5                             #17.13 c69
..LN605:
        kmov      %k6, %edx                                     #17.13 c69
..LN606:
        movzbl    %dl, %edx                                     #17.42 c73
..LN607:
        kmov      %k3, %r11d                                    #17.13 c73
..LN608:
        kmov      %k5, %r10d                                    #17.13 c77
..LN609:
        addl      %r11d, %r11d                                  #17.13 c77
..LN610:
        vpaddsetcd %zmm4, %k5, %zmm2{%k2}                       #17.13 c81
..LN611:
        kmov      %r11d, %k4                                    #17.13 c81
..LN612:
        shll      $8, %r10d                                     #17.42 c85
..LN613:
        vpadcd    %zmm4, %k4, %zmm3{%k1}                        #17.13 c89
..LN614:
        orl       %r10d, %edx                                   #17.42 c89
..LN615:
        kmov      %edx, %k6                                     #17.42 c93
..LN616:
        kmov      %k5, %edx                                     #17.13 c93
..LN617:
        vmovaps   %zmm0, -64(%rsi,%rcx){%k6}                    #17.42 c97
..LN618:
        addl      %edx, %edx                                    #17.13 c97
..LN619:
        kmov      %edx, %k7                                     #17.13 c101
..LN620:
        cmpq      %r8, %r9                                      #17.13 c101
..LN621:
        vpadcd    %zmm4, %k7, %zmm2{%k1}                        #17.13 c105
..LN622:
        jb        ..B4.15       # Prob 50%                      #17.13 c105
..LN623:
                                # LOE rax rcx rbx rsi r8 r9 r12 r13 r14 r15 zmm0 zmm1 zmm2 zmm3 zmm4 k1 k2
..B4.17:                        # Preds ..B4.15 ..B4.13 ..B4.8 ..B4.2 Latency 9
..LN624:
	.loc    3  13  is_stmt 1
        movq      %rax, 56(%rsp)                                #13.9 c1
..LN625:
        movq      %rbx, %rdi                                    #13.9 c1
..LN626:
        xorl      %eax, %eax                                    #13.9 c5
..___tag_value__ZN3mic5clearElPPf.113:
..LN627:
        call      __offload_target_leave                        #13.9
..___tag_value__ZN3mic5clearElPPf.114:
..LN628:
                                # LOE r12 r13 r14 r15
..B4.18:                        # Preds ..B4.17 Latency 9
..LN629:
	.loc    3  13  epilogue_begin  is_stmt 1
        addq      $248, %rsp                                    #13.9
	.cfi_restore 3
..LN630:
        popq      %rbx                                          #13.9
..LN631:
        movq      %rbp, %rsp                                    #13.9 c9
..LN632:
        popq      %rbp                                          #13.9
	.cfi_def_cfa 7, 8
	.cfi_restore 6
..LN633:
        ret                                                     #13.9
	.cfi_def_cfa 6, 16
..LN634:
                                # LOE
	.type	__offload_entry_helper_mic_h_13clear_19a24bfe21b0d9401b6fecd8ec8d0aa6icc010935439037PRjdkN,@function
	.size	__offload_entry_helper_mic_h_13clear_19a24bfe21b0d9401b6fecd8ec8d0aa6icc010935439037PRjdkN,.-__offload_entry_helper_mic_h_13clear_19a24bfe21b0d9401b6fecd8ec8d0aa6icc010935439037PRjdkN
	.globl _ZN3mic5clearElPPf
_ZN3mic5clearElPPf:
# parameter 1(size): %rdi
# parameter 2(mem): %rsi
..B4.19:                        # Preds ..B4.0 Latency 13
..LN635:
	.loc    3  11  is_stmt 1
        pushq     %rbp                                          #11.5
	.cfi_def_cfa 7, 16
..LN636:
        movq      %rsp, %rbp                                    #11.5
	.cfi_def_cfa 6, 16
	.cfi_offset 6, -16
..LN637:
        andq      $-64, %rsp                                    #11.5
..LN638:
        pushq     %rbx                                          #11.5 c1
..LN639:
        subq      $248, %rsp                                    #11.5 c1
..LN640:
	.loc    3  11  epilogue_begin  is_stmt 1
        addq      $248, %rsp                                    #11.5
	.cfi_escape 0x10, 0x03, 0x0e, 0x38, 0x1c, 0x0d, 0xc0, 0xff, 0xff, 0xff, 0x1a, 0x0d, 0xf8, 0xff, 0xff, 0xff, 0x22
	.cfi_restore 3
..LN641:
        popq      %rbx                                          #11.5
..LN642:
        movq      %rbp, %rsp                                    #11.5 c13
..LN643:
        popq      %rbp                                          #11.5
	.cfi_def_cfa 7, 8
	.cfi_restore 6
..LN644:
        ret                                                     #11.5
        .align    16,0x90
	.cfi_endproc
..LN645:
                                # LOE
..LN646:
# mark_end;
	.type	_ZN3mic5clearElPPf,@function
	.size	_ZN3mic5clearElPPf,.-_ZN3mic5clearElPPf
..LN_ZN3mic5clearElPPf.647:
.LN_ZN3mic5clearElPPf:
	.data
	.space 32, 0x00 	# pad
	.align 64
.2.28_2__offload_var_desc1_p.28:
	.byte	34
	.byte	1
	.byte	1
	.byte	1
	.long	8
	.long	0
	.long	0
	.long	0x00000000,0x00000000
	.long	0x00000008,0x00000000
	.long	0x00000001,0x00000000
	.long	0x00000000,0x00000000
	.long	0x00000000,0x00000000
	.long	0x00000000,0x00000000
	.byte	17
	.byte	3
	.byte	1
	.byte	1
	.long	8
	.long	0
	.long	0
	.long	0x00000000,0x00000000
	.long	0x00000008,0x00000000
	.long	0x00000001,0x00000000
	.long	0x00000000,0x00000000
	.long	0x00000000,0x00000000
	.long	0x00000000,0x00000000
	.align 8
.2.28_2__offload_var_desc2_p.33:
	.quad	__sd_2inst_string.8
	.long	0x00000000,0x00000000
	.quad	__sd_2inst_string.9
	.long	0x00000000,0x00000000
	.section .rodata, "a"
	.align 4
__sd_2inst_string.7:
	.byte	95
	.byte	95
	.byte	111
	.byte	102
	.byte	102
	.byte	108
	.byte	111
	.byte	97
	.byte	100
	.byte	95
	.byte	101
	.byte	110
	.byte	116
	.byte	114
	.byte	121
	.byte	95
	.byte	104
	.byte	101
	.byte	108
	.byte	112
	.byte	101
	.byte	114
	.byte	95
	.byte	109
	.byte	105
	.byte	99
	.byte	95
	.byte	104
	.byte	95
	.byte	49
	.byte	51
	.byte	99
	.byte	108
	.byte	101
	.byte	97
	.byte	114
	.byte	95
	.byte	49
	.byte	57
	.byte	97
	.byte	50
	.byte	52
	.byte	98
	.byte	102
	.byte	101
	.byte	50
	.byte	49
	.byte	98
	.byte	48
	.byte	100
	.byte	57
	.byte	52
	.byte	48
	.byte	49
	.byte	98
	.byte	54
	.byte	102
	.byte	101
	.byte	99
	.byte	100
	.byte	56
	.byte	101
	.byte	99
	.byte	56
	.byte	100
	.byte	48
	.byte	97
	.byte	97
	.byte	54
	.byte	105
	.byte	99
	.byte	99
	.byte	48
	.byte	49
	.byte	48
	.byte	57
	.byte	51
	.byte	53
	.byte	52
	.byte	51
	.byte	57
	.byte	48
	.byte	51
	.byte	55
	.byte	80
	.byte	82
	.byte	106
	.byte	100
	.byte	107
	.byte	78
	.byte	0
	.space 1, 0x00 	# pad
	.align 4
__sd_2inst_string.8:
	.byte	109
	.byte	101
	.byte	109
	.byte	0
	.align 4
__sd_2inst_string.9:
	.byte	110
	.byte	0
	.section .OffloadEntryTable., "waG",@progbits,__offload_entry_helper_mic_h_13clear_19a24bfe21b0d9401b6fecd8ec8d0aa6icc010935439037PRjdkN_$entry,comdat
	.align 16
__offload_entry_helper_mic_h_13clear_19a24bfe21b0d9401b6fecd8ec8d0aa6icc010935439037PRjdkN_$entry:
	.type	__offload_entry_helper_mic_h_13clear_19a24bfe21b0d9401b6fecd8ec8d0aa6icc010935439037PRjdkN_$entry,@object
	.size	__offload_entry_helper_mic_h_13clear_19a24bfe21b0d9401b6fecd8ec8d0aa6icc010935439037PRjdkN_$entry,16
	.quad	__sd_2inst_string.7
	.quad	__offload_entry_helper_mic_h_13clear_19a24bfe21b0d9401b6fecd8ec8d0aa6icc010935439037PRjdkN
	.data
# -- End  _ZN3mic5clearElPPf, __offload_entry_helper_mic_h_13clear_19a24bfe21b0d9401b6fecd8ec8d0aa6icc010935439037PRjdkN
	.text
.L_2__routine_start__ZN3mic4freeEPPf_4:
# -- Begin  _ZN3mic4freeEPPf, __offload_entry_helper_mic_h_42free_a59019d500e5cbaef69eb02445bab79dicc010935439037PRjdkN
	.text
# mark_begin;
# Threads 4
        .align    16,0x90
__offload_entry_helper_mic_h_42free_a59019d500e5cbaef69eb02445bab79dicc010935439037PRjdkN:
# parameter 1: %rdi
..B5.1:                         # Preds ..B5.0 Latency 33
	.cfi_startproc
	.cfi_personality 0x3,__gxx_personality_v0
..___tag_value__ZN3mic4freeEPPf.135:
..L136:
                                                        #42.9
..LN648:
	.loc    3  42  is_stmt 1
        pushq     %rbp                                          #42.9
	.cfi_def_cfa_offset 16
..LN649:
        movq      %rsp, %rbp                                    #42.9
	.cfi_def_cfa 6, 16
	.cfi_offset 6, -16
..LN650:
        andq      $-64, %rsp                                    #42.9
..LN651:
        pushq     %rbx                                          #42.9 c1
..LN652:
        subq      $120, %rsp                                    #42.9 c1
..LN653:
        vmovaps   .2.29_2__offload_var_desc1_p.27(%rip), %zmm0  #42.9 c5
..LN654:
        lea       (%rsp), %rdx                                  #42.9 c9
..LN655:
        lea       64(%rsp), %rcx                                #42.9 c9
..LN656:
        vmovaps   %zmm0, (%rdx)                                 #42.9 c13
..LN657:
        movq      .2.29_2__offload_var_desc2_p.32(%rip), %r8    #42.9 c13
..LN658:
        movq      8+.2.29_2__offload_var_desc2_p.32(%rip), %r9  #42.9 c17
..LN659:
        lea       80(%rsp), %r10                                #42.9 c17
..LN660:
        movl      $1, %esi                                      #42.9 c21
..LN661:
        xorl      %eax, %eax                                    #42.9 c21
	.cfi_escape 0x10, 0x03, 0x0e, 0x38, 0x1c, 0x0d, 0xc0, 0xff, 0xff, 0xff, 0x1a, 0x0d, 0xf8, 0xff, 0xff, 0xff, 0x22
..LN662:
        movq      %rdi, %rbx                                    #42.9 c25
..LN663:
        movq      %r8, (%rcx)                                   #42.9 c25
..LN664:
        movq      %r9, 8(%rcx)                                  #42.9 c29
..LN665:
        movq      %r10, 56(%rdx)                                #42.9 c29
..___tag_value__ZN3mic4freeEPPf.142:
..LN666:
        call      __offload_target_enter                        #42.9
..___tag_value__ZN3mic4freeEPPf.143:
..LN667:
                                # LOE rbx r12 r13 r14 r15
..B5.2:                         # Preds ..B5.1 Latency 9
..LN668:
	.loc    3  44  prologue_end  is_stmt 1
        movq      80(%rsp), %rax                                #44.13 c1
..LN669:
        movq      (%rax), %rdi                                  #44.13 c5
..LN670:
        call      _mm_free                                      #44.13 c9
..LN671:
                                # LOE rbx r12 r13 r14 r15
..B5.3:                         # Preds ..B5.2 Latency 5
..LN672:
	.loc    3  42  is_stmt 1
        movq      %rbx, %rdi                                    #42.9 c1
..LN673:
        xorl      %eax, %eax                                    #42.9 c1
..___tag_value__ZN3mic4freeEPPf.144:
..LN674:
        call      __offload_target_leave                        #42.9
..___tag_value__ZN3mic4freeEPPf.145:
..LN675:
                                # LOE r12 r13 r14 r15
..B5.4:                         # Preds ..B5.3 Latency 9
..LN676:
	.loc    3  42  epilogue_begin  is_stmt 1
        addq      $120, %rsp                                    #42.9
	.cfi_restore 3
..LN677:
        popq      %rbx                                          #42.9
..LN678:
        movq      %rbp, %rsp                                    #42.9 c9
..LN679:
        popq      %rbp                                          #42.9
	.cfi_def_cfa 7, 8
	.cfi_restore 6
..LN680:
        ret                                                     #42.9
	.cfi_def_cfa 6, 16
..LN681:
                                # LOE
	.type	__offload_entry_helper_mic_h_42free_a59019d500e5cbaef69eb02445bab79dicc010935439037PRjdkN,@function
	.size	__offload_entry_helper_mic_h_42free_a59019d500e5cbaef69eb02445bab79dicc010935439037PRjdkN,.-__offload_entry_helper_mic_h_42free_a59019d500e5cbaef69eb02445bab79dicc010935439037PRjdkN
	.globl _ZN3mic4freeEPPf
_ZN3mic4freeEPPf:
# parameter 1(mem): %rdi
..B5.5:                         # Preds ..B5.0 Latency 13
..LN682:
	.loc    3  41  is_stmt 1
        pushq     %rbp                                          #41.5
	.cfi_def_cfa 7, 16
..LN683:
        movq      %rsp, %rbp                                    #41.5
	.cfi_def_cfa 6, 16
	.cfi_offset 6, -16
..LN684:
        andq      $-64, %rsp                                    #41.5
..LN685:
        pushq     %rbx                                          #41.5 c1
..LN686:
        subq      $120, %rsp                                    #41.5 c1
..LN687:
	.loc    3  41  epilogue_begin  is_stmt 1
        addq      $120, %rsp                                    #41.5
	.cfi_escape 0x10, 0x03, 0x0e, 0x38, 0x1c, 0x0d, 0xc0, 0xff, 0xff, 0xff, 0x1a, 0x0d, 0xf8, 0xff, 0xff, 0xff, 0x22
	.cfi_restore 3
..LN688:
        popq      %rbx                                          #41.5
..LN689:
        movq      %rbp, %rsp                                    #41.5 c13
..LN690:
        popq      %rbp                                          #41.5
	.cfi_def_cfa 7, 8
	.cfi_restore 6
..LN691:
        ret                                                     #41.5
        .align    16,0x90
	.cfi_endproc
..LN692:
                                # LOE
..LN693:
# mark_end;
	.type	_ZN3mic4freeEPPf,@function
	.size	_ZN3mic4freeEPPf,.-_ZN3mic4freeEPPf
..LN_ZN3mic4freeEPPf.694:
.LN_ZN3mic4freeEPPf:
	.data
	.space 32, 0x00 	# pad
	.align 64
.2.29_2__offload_var_desc1_p.27:
	.byte	34
	.byte	1
	.byte	1
	.byte	1
	.long	8
	.long	0
	.long	0
	.long	0x00000000,0x00000000
	.long	0x00000008,0x00000000
	.long	0x00000001,0x00000000
	.long	0x00000000,0x00000000
	.long	0x00000000,0x00000000
	.long	0x00000000,0x00000000
	.align 8
.2.29_2__offload_var_desc2_p.32:
	.quad	__sd_2inst_string.11
	.long	0x00000000,0x00000000
	.section .rodata, "a"
	.space 2, 0x00 	# pad
	.align 4
__sd_2inst_string.10:
	.byte	95
	.byte	95
	.byte	111
	.byte	102
	.byte	102
	.byte	108
	.byte	111
	.byte	97
	.byte	100
	.byte	95
	.byte	101
	.byte	110
	.byte	116
	.byte	114
	.byte	121
	.byte	95
	.byte	104
	.byte	101
	.byte	108
	.byte	112
	.byte	101
	.byte	114
	.byte	95
	.byte	109
	.byte	105
	.byte	99
	.byte	95
	.byte	104
	.byte	95
	.byte	52
	.byte	50
	.byte	102
	.byte	114
	.byte	101
	.byte	101
	.byte	95
	.byte	97
	.byte	53
	.byte	57
	.byte	48
	.byte	49
	.byte	57
	.byte	100
	.byte	53
	.byte	48
	.byte	48
	.byte	101
	.byte	53
	.byte	99
	.byte	98
	.byte	97
	.byte	101
	.byte	102
	.byte	54
	.byte	57
	.byte	101
	.byte	98
	.byte	48
	.byte	50
	.byte	52
	.byte	52
	.byte	53
	.byte	98
	.byte	97
	.byte	98
	.byte	55
	.byte	57
	.byte	100
	.byte	105
	.byte	99
	.byte	99
	.byte	48
	.byte	49
	.byte	48
	.byte	57
	.byte	51
	.byte	53
	.byte	52
	.byte	51
	.byte	57
	.byte	48
	.byte	51
	.byte	55
	.byte	80
	.byte	82
	.byte	106
	.byte	100
	.byte	107
	.byte	78
	.byte	0
	.space 2, 0x00 	# pad
	.align 4
__sd_2inst_string.11:
	.byte	109
	.byte	101
	.byte	109
	.byte	0
	.section .OffloadEntryTable., "waG",@progbits,__offload_entry_helper_mic_h_42free_a59019d500e5cbaef69eb02445bab79dicc010935439037PRjdkN_$entry,comdat
	.align 16
__offload_entry_helper_mic_h_42free_a59019d500e5cbaef69eb02445bab79dicc010935439037PRjdkN_$entry:
	.type	__offload_entry_helper_mic_h_42free_a59019d500e5cbaef69eb02445bab79dicc010935439037PRjdkN_$entry,@object
	.size	__offload_entry_helper_mic_h_42free_a59019d500e5cbaef69eb02445bab79dicc010935439037PRjdkN_$entry,16
	.quad	__sd_2inst_string.10
	.quad	__offload_entry_helper_mic_h_42free_a59019d500e5cbaef69eb02445bab79dicc010935439037PRjdkN
	.data
# -- End  _ZN3mic4freeEPPf, __offload_entry_helper_mic_h_42free_a59019d500e5cbaef69eb02445bab79dicc010935439037PRjdkN
	.text
.L_2__routine_start__ZGVzN32vu_9mandel_v1Cfi_5:
# -- Begin  _ZGVzN32vu_9mandel_v1Cfi
	.text
# mark_begin;
# Threads 4
        .align    16,0x90
	.globl _ZGVzN32vu_9mandel_v1Cfi
# --- mandel_v1..zN32vu(float __complex__, int)
_ZGVzN32vu_9mandel_v1Cfi:
# parameter 1: %zmm0
# parameter 2: %zmm1
# parameter 3: %zmm2
# parameter 4: %zmm3
# parameter 5(max_iter): %eax
..B6.1:                         # Preds ..B6.0 Latency 105
	.cfi_startproc
	.cfi_personality 0x3,__gxx_personality_v0
..___tag_value__ZGVzN32vu_9mandel_v1Cfi.166:
..L167:
                                                        #82.46
..LN695:
	.loc    1  82  is_stmt 1
        pushq     %rbp                                          #82.46
	.cfi_def_cfa_offset 16
..LN696:
        movq      %rsp, %rbp                                    #82.46
	.cfi_def_cfa 6, 16
	.cfi_offset 6, -16
..LN697:
        andq      $-64, %rsp                                    #82.46
..LN698:
        pushq     %r12                                          #82.46 c1
..LN699:
        pushq     %r13                                          #82.46 c5
..LN700:
        pushq     %r14                                          #82.46 c9
..LN701:
        pushq     %r15                                          #82.46 c13
..LN702:
        pushq     %rbx                                          #82.46 c17
..LN703:
        subq      $1944, %rsp                                   #82.46 c17
..LN704:
        vmovaps   %zmm21, 704(%rsp)                             #82.46 c21
..LN705:
        movl      %eax, %esi                                    #82.46 c21
	.cfi_escape 0x10, 0x03, 0x0e, 0x38, 0x1c, 0x0d, 0xc0, 0xff, 0xff, 0xff, 0x1a, 0x0d, 0xd8, 0xff, 0xff, 0xff, 0x22
	.cfi_escape 0x10, 0x0c, 0x0e, 0x38, 0x1c, 0x0d, 0xc0, 0xff, 0xff, 0xff, 0x1a, 0x0d, 0xf8, 0xff, 0xff, 0xff, 0x22
	.cfi_escape 0x10, 0x0d, 0x0e, 0x38, 0x1c, 0x0d, 0xc0, 0xff, 0xff, 0xff, 0x1a, 0x0d, 0xf0, 0xff, 0xff, 0xff, 0x22
	.cfi_escape 0x10, 0x0e, 0x0e, 0x38, 0x1c, 0x0d, 0xc0, 0xff, 0xff, 0xff, 0x1a, 0x0d, 0xe8, 0xff, 0xff, 0xff, 0x22
	.cfi_escape 0x10, 0x0f, 0x0e, 0x38, 0x1c, 0x0d, 0xc0, 0xff, 0xff, 0xff, 0x1a, 0x0d, 0xe0, 0xff, 0xff, 0xff, 0x22
	.cfi_escape 0x10, 0xffffffdb, 0x00, 0x0e, 0x38, 0x1c, 0x0d, 0xc0, 0xff, 0xff, 0xff, 0x1a, 0x0d, 0x00, 0xfb, 0xff, 0xff, 0x22
..LN706:
        vmovaps   %zmm0, %zmm21                                 #82.46 c25
..LN707:
        vmovaps   %zmm24, 448(%rsp)                             #82.46 c25
	.cfi_escape 0x10, 0xffffffde, 0x00, 0x0e, 0x38, 0x1c, 0x0d, 0xc0, 0xff, 0xff, 0xff, 0x1a, 0x0d, 0x00, 0xfa, 0xff, 0xff, 0x22
..LN708:
        vmovaps   %zmm3, %zmm24                                 #82.46 c29
..LN709:
        vmovaps   %zmm23, 512(%rsp)                             #82.46 c29
	.cfi_escape 0x10, 0xffffffdd, 0x00, 0x0e, 0x38, 0x1c, 0x0d, 0xc0, 0xff, 0xff, 0xff, 0x1a, 0x0d, 0x40, 0xfa, 0xff, 0xff, 0x22
..LN710:
        vmovaps   %zmm2, %zmm23                                 #82.46 c33
..LN711:
        vmovaps   %zmm22, 768(%rsp)                             #82.46 c33
	.cfi_escape 0x10, 0xffffffdc, 0x00, 0x0e, 0x38, 0x1c, 0x0d, 0xc0, 0xff, 0xff, 0xff, 0x1a, 0x0d, 0x40, 0xfb, 0xff, 0xff, 0x22
..LN712:
        vmovaps   %zmm1, %zmm22                                 #82.46 c37
..LN713:
        vmovaps   %zmm19, 192(%rsp)                             #82.46 c37
..LN714:
	.loc    1  84  prologue_end  is_stmt 1
        vpermf32x4 $238, %zmm21, %zmm4                          #84.17 c41
..LN715:
	.loc    1  82  is_stmt 1
        vmovaps   %zmm31, 256(%rsp)                             #82.46 c41
	.cfi_escape 0x10, 0xffffffd9, 0x00, 0x0e, 0x38, 0x1c, 0x0d, 0xc0, 0xff, 0xff, 0xff, 0x1a, 0x0d, 0x00, 0xf9, 0xff, 0xff, 0x22
	.cfi_escape 0x10, 0xffffffe5, 0x00, 0x0e, 0x38, 0x1c, 0x0d, 0xc0, 0xff, 0xff, 0xff, 0x1a, 0x0d, 0x40, 0xf9, 0xff, 0xff, 0x22
..LN716:
	.loc    1  83  is_stmt 1
        vmovaps   .L_2il0floatpacket.9(%rip), %zmm19            #83.14 c45
..LN717:
	.loc    1  84  is_stmt 1
        vpermf32x4 $238, %zmm22, %zmm5                          #84.17 c49
..LN718:
	.loc    1  82  is_stmt 1
        vmovaps   %zmm30, 320(%rsp)                             #82.46 c49
..LN719:
	.loc    1  84  is_stmt 1
        vpermf32x4 $238, %zmm23, %zmm6                          #84.17 c53
..LN720:
	.loc    1  82  is_stmt 1
        vmovaps   %zmm29, 128(%rsp)                             #82.46 c53
..LN721:
	.loc    1  84  is_stmt 1
        vpermf32x4 $238, %zmm24, %zmm7                          #84.17 c57
..LN722:
	.loc    1  82  is_stmt 1
        vmovaps   %zmm26, 64(%rsp)                              #82.46 c57
..LN723:
	.loc    1  84  is_stmt 1
        vcvtps2pd %zmm21, %zmm1                                 #84.17 c61
..LN724:
	.loc    1  82  is_stmt 1
        vmovaps   %zmm25, 384(%rsp)                             #82.46 c61
..LN725:
	.loc    1  84  is_stmt 1
        vcvtps2pd %zmm4, %zmm2                                  #84.17 c65
..LN726:
	.loc    1  82  is_stmt 1
        vmovaps   %zmm18, 640(%rsp)                             #82.46 c65
..LN727:
        vmovaps   %zmm16, 576(%rsp)                             #82.46 c69
..LN728:
	.loc    1  84  is_stmt 1
        movl      $255, %eax                                    #84.12 c69
	.cfi_escape 0x10, 0xffffffd6, 0x00, 0x0e, 0x38, 0x1c, 0x0d, 0xc0, 0xff, 0xff, 0xff, 0x1a, 0x0d, 0x80, 0xfa, 0xff, 0xff, 0x22
	.cfi_escape 0x10, 0xffffffd8, 0x00, 0x0e, 0x38, 0x1c, 0x0d, 0xc0, 0xff, 0xff, 0xff, 0x1a, 0x0d, 0xc0, 0xfa, 0xff, 0xff, 0x22
	.cfi_escape 0x10, 0xffffffdf, 0x00, 0x0e, 0x38, 0x1c, 0x0d, 0xc0, 0xff, 0xff, 0xff, 0x1a, 0x0d, 0xc0, 0xf9, 0xff, 0xff, 0x22
	.cfi_escape 0x10, 0xffffffe0, 0x00, 0x0e, 0x38, 0x1c, 0x0d, 0xc0, 0xff, 0xff, 0xff, 0x1a, 0x0d, 0x80, 0xf8, 0xff, 0xff, 0x22
	.cfi_escape 0x10, 0xffffffe3, 0x00, 0x0e, 0x38, 0x1c, 0x0d, 0xc0, 0xff, 0xff, 0xff, 0x1a, 0x0d, 0xc0, 0xf8, 0xff, 0xff, 0x22
	.cfi_escape 0x10, 0xffffffe4, 0x00, 0x0e, 0x38, 0x1c, 0x0d, 0xc0, 0xff, 0xff, 0xff, 0x1a, 0x0d, 0x80, 0xf9, 0xff, 0xff, 0x22
..LN729:
	.loc    1  83  is_stmt 1
        vmovaps   %zmm21, %zmm18                                #83.35 c73
..LN730:
        vmovaps   %zmm19, 832(%rsp)                             #83.14 c73
..LN731:
	.loc    1  84  is_stmt 1
        vcvtps2pd %zmm22, %zmm31                                #84.17 c77
..LN732:
	.loc    1  83  is_stmt 1
        vmovaps   %zmm19, 896(%rsp)                             #83.14 c77
..LN733:
	.loc    1  84  is_stmt 1
        vcvtps2pd %zmm5, %zmm30                                 #84.17 c81
..LN734:
	.loc    1  83  is_stmt 1
        vmovaps   %zmm22, 1600(%rsp)                            #83.35 c81
..LN735:
	.loc    1  84  is_stmt 1
        vcvtps2pd %zmm23, %zmm16                                #84.17 c85
..LN736:
	.loc    1  83  is_stmt 1
        vmovaps   %zmm23, 1536(%rsp)                            #83.35 c85
..LN737:
	.loc    1  84  is_stmt 1
        vcvtps2pd %zmm6, %zmm25                                 #84.17 c89
..LN738:
	.loc    1  83  is_stmt 1
        vmovaps   %zmm24, (%rsp)                                #83.35 c89
..LN739:
	.loc    1  84  is_stmt 1
        vcvtps2pd %zmm24, %zmm26                                #84.17 c93
..LN740:
	.loc    1  82  is_stmt 1
        kmov      %k7, %edx                                     #82.46 c93
..LN741:
        movl      %edx, 1880(%rsp)                              #82.46
	.cfi_escape 0x10, 0xffffffed, 0x00, 0x0e, 0x38, 0x1c, 0x0d, 0xc0, 0xff, 0xff, 0xff, 0x1a, 0x0d, 0x98, 0xff, 0xff, 0xff, 0x22
..LN742:
	.loc    1  84  is_stmt 1
        vcvtps2pd %zmm7, %zmm29                                 #84.17 c97
..LN743:
        kmov      %eax, %k7                                     #84.12 c97
..LN744:
        kmov      %k7, %k1                                      #84.12 c101
..LN745:
        call      __svml_cabs8_mask                             #84.12 c105
..LN746:
                                # LOE rbx r12 r14 r15 esi zmm0 zmm16 zmm17 zmm18 zmm19 zmm20 zmm21 zmm22 zmm23 zmm24 zmm25 zmm26 zmm27 zmm28 zmm29 zmm30 zmm31 k4 k5 k6 k7
..B6.13:                        # Preds ..B6.1 Latency 9
..LN747:
        vmovaps   %zmm31, %zmm1                                 #84.12 c1
..LN748:
        vmovaps   %zmm0, 960(%rsp)                              #84.12 c1
..LN749:
        vmovaps   %zmm30, %zmm2                                 #84.12 c5
..LN750:
        kmov      %k7, %k1                                      #84.12 c5
..LN751:
        call      __svml_cabs8_mask                             #84.12 c9
..LN752:
                                # LOE rbx r12 r14 r15 esi zmm0 zmm16 zmm17 zmm18 zmm19 zmm20 zmm21 zmm22 zmm23 zmm24 zmm25 zmm26 zmm27 zmm28 zmm29 k4 k5 k6 k7
..B6.12:                        # Preds ..B6.13 Latency 13
..LN753:
        vmovaps   %zmm16, %zmm1                                 #84.12 c1
..LN754:
        kmov      %k7, %k1                                      #84.12 c1
..LN755:
        vmovaps   %zmm25, %zmm2                                 #84.12 c5
..LN756:
        vmovaps   %zmm0, %zmm30                                 #84.12 c9
..LN757:
        call      __svml_cabs8_mask                             #84.12 c13
..LN758:
                                # LOE rbx r12 r14 r15 esi zmm0 zmm17 zmm18 zmm19 zmm20 zmm21 zmm22 zmm23 zmm24 zmm26 zmm27 zmm28 zmm29 zmm30 k4 k5 k6 k7
..B6.11:                        # Preds ..B6.12 Latency 13
..LN759:
        vmovaps   %zmm26, %zmm1                                 #84.12 c1
..LN760:
        kmov      %k7, %k1                                      #84.12 c1
..LN761:
        vmovaps   %zmm29, %zmm2                                 #84.12 c5
..LN762:
        vmovaps   %zmm0, %zmm25                                 #84.12 c9
..LN763:
        call      __svml_cabs8_mask                             #84.12 c13
..LN764:
                                # LOE rbx r12 r14 r15 esi zmm0 zmm17 zmm18 zmm19 zmm20 zmm21 zmm22 zmm23 zmm24 zmm25 zmm27 zmm28 zmm30 k4 k5 k6 k7
..B6.10:                        # Preds ..B6.11 Latency 41
..LN765:
        vmovaps   %zmm0, %zmm1                                  #84.12 c1
..LN766:
        lea       .L_2il0floatpacket.10(%rip), %rax             #84.22 c1
..LN767:
        vmovaps   960(%rsp), %zmm0                              #84.22 c5
..LN768:
        vcmpltpd  (%rax), %zmm0, %k0                            #84.22 c9
..LN769:
        vcmpltpd  (%rax), %zmm30, %k2                           #84.22 c13
..LN770:
        vcmpltpd  (%rax), %zmm25, %k3                           #84.22 c17
..LN771:
        kmov      %k0, %r8d                                     #84.22 c17
..LN772:
        vcmpltpd  (%rax), %zmm1, %k0                            #84.22 c21
..LN773:
        kmov      %k2, %ecx                                     #84.22 c21
..LN774:
        vmovapd   (%rax), %zmm16                                #84.22 c25
..LN775:
        movl      %r8d, %edi                                    #84.22 c25
..LN776:
        kmov      %k3, %edx                                     #84.22 c29
..LN777:
        orl       %ecx, %edi                                    #84.22 c29
..LN778:
        kmov      %k0, %eax                                     #84.22 c33
..LN779:
        orl       %edx, %edi                                    #84.22 c33
..LN780:
        orl       %eax, %edi                                    #84.22 c37
..LN781:
        testb     %dil, %dil                                    #84.22 c41
..LN782:
        je        ..B6.7        # Prob 50%                      #84.22 c41
..LN783:
                                # LOE rbx r12 r14 r15 eax edx ecx esi r8d zmm16 zmm17 zmm18 zmm19 zmm20 zmm21 zmm22 zmm23 zmm24 zmm27 zmm28 k4 k5 k6 k7
..B6.2:                         # Preds ..B6.10 Latency 57
..LN784:
        vmovaps   %zmm23, 1472(%rsp)                            #84.5 c1
..LN785:
        movl      %r8d, %r11d                                   #84.5 c1
..LN786:
        vmovaps   %zmm24, 1216(%rsp)                            #84.5 c5
..LN787:
        movl      %ecx, %r10d                                   #84.5 c5
..LN788:
        vmovaps   %zmm20, 1088(%rsp)                            #84.5 c9
..LN789:
        movl      %edx, %r9d                                    #84.5 c9
..LN790:
        vmovaps   %zmm27, 1024(%rsp)                            #84.5 c13
	.cfi_escape 0x10, 0xffffffda, 0x00, 0x0e, 0x38, 0x1c, 0x0d, 0xc0, 0xff, 0xff, 0xff, 0x1a, 0x0d, 0x80, 0xfc, 0xff, 0xff, 0x22
	.cfi_escape 0x10, 0xffffffe1, 0x00, 0x0e, 0x38, 0x1c, 0x0d, 0xc0, 0xff, 0xff, 0xff, 0x1a, 0x0d, 0x40, 0xfc, 0xff, 0xff, 0x22
..LN791:
        movl      %eax, %r13d                                   #84.5 c13
..LN792:
        vmovaps   %zmm28, 960(%rsp)                             #84.5 c17
..LN793:
        xorl      %edi, %edi                                    #84.5 c17
	.cfi_escape 0x10, 0xffffffe2, 0x00, 0x0e, 0x38, 0x1c, 0x0d, 0xc0, 0xff, 0xff, 0xff, 0x1a, 0x0d, 0x00, 0xfc, 0xff, 0xff, 0x22
..LN794:
        vmovaps   (%rsp), %zmm20                                #84.5 c21
..LN795:
        vmovaps   %zmm1, 1344(%rsp)                             #84.5 c21
..LN796:
        vmovaps   1536(%rsp), %zmm27                            #84.5 c25
..LN797:
        vmovaps   %zmm2, 1280(%rsp)                             #84.5 c25
..LN798:
        vmovaps   1600(%rsp), %zmm28                            #84.5 c29
..LN799:
        vmovaps   %zmm3, 1408(%rsp)                             #84.5 c29
..LN800:
        vmovaps   896(%rsp), %zmm24                             #84.5 c33
..LN801:
        vmovaps   %zmm17, 1152(%rsp)                            #84.5 c33
	.cfi_escape 0x10, 0xffffffd7, 0x00, 0x0e, 0x38, 0x1c, 0x0d, 0xc0, 0xff, 0xff, 0xff, 0x1a, 0x0d, 0xc0, 0xfc, 0xff, 0xff, 0x22
..LN802:
        vmovaps   832(%rsp), %zmm23                             #84.5 c37
..LN803:
        kmov      %k4, %ebx                                     #84.5 c37
..LN804:
        movl      %ebx, 1872(%rsp)                              #84.5
	.cfi_escape 0x10, 0xffffffea, 0x00, 0x0e, 0x38, 0x1c, 0x0d, 0xc0, 0xff, 0xff, 0xff, 0x1a, 0x0d, 0x90, 0xff, 0xff, 0xff, 0x22
..LN805:
        kmov      %k5, %ebx                                     #84.5 c41
..LN806:
        movl      %ebx, 1864(%rsp)                              #84.5
	.cfi_escape 0x10, 0xffffffeb, 0x00, 0x0e, 0x38, 0x1c, 0x0d, 0xc0, 0xff, 0xff, 0xff, 0x1a, 0x0d, 0x88, 0xff, 0xff, 0xff, 0x22
..LN807:
        movl      %r9d, %r15d                                   #84.5 c41
..LN808:
        kmov      %k6, %ebx                                     #84.5 c45
..LN809:
        movl      %ebx, 1856(%rsp)                              #84.5
..LN810:
        movl      %r10d, 1888(%rsp)                             #84.5 c45
..LN811:
        movl      %r11d, 1920(%rsp)                             #84.5 c49
..LN812:
        movl      %eax, 1928(%rsp)                              #84.5 c49
..LN813:
        movl      %edx, 1912(%rsp)                              #84.5 c53
..LN814:
        movl      %ecx, 1896(%rsp)                              #84.5 c53
..LN815:
        movl      %r8d, 1904(%rsp)                              #84.5 c57
..LN816:
        movl      %esi, 1936(%rsp)                              #84.5 c57
	.cfi_escape 0x10, 0xffffffec, 0x00, 0x0e, 0x38, 0x1c, 0x0d, 0xc0, 0xff, 0xff, 0xff, 0x1a, 0x0d, 0x80, 0xff, 0xff, 0xff, 0x22
..LN817:
                                # LOE edi r13d r15d zmm16 zmm18 zmm19 zmm20 zmm21 zmm22 zmm23 zmm24 zmm25 zmm26 zmm27 zmm28 zmm29 zmm30 zmm31
..B6.3:                         # Preds ..B6.14 ..B6.2 Latency 9
..L197:         # optimization report
                # LOOP WAS VECTORIZED
                # loop was vectorized along with the enclosing function
..LN818:
        incl      %edi                                          #84.5 c1
..LN819:
        cmpl      1936(%rsp), %edi                              #84.37 c5
..LN820:
        jge       ..B6.19       # Prob 50%                      #84.37 c9
..LN821:
                                # LOE edi r13d r15d zmm16 zmm18 zmm19 zmm20 zmm21 zmm22 zmm23 zmm24 zmm25 zmm26 zmm27 zmm28 zmm29 zmm30 zmm31
..B6.4:                         # Preds ..B6.3 Latency 209
..LN822:
	.loc    1  85  is_stmt 1
        vmulps    %zmm18, %zmm18, %zmm17                        #85.17 c1
..LN823:
	.loc    1  84  is_stmt 1
        movl      1904(%rsp), %r14d                             #84.37 c1
..LN824:
	.loc    1  85  is_stmt 1
        vmulps    %zmm28, %zmm28, %zmm4                         #85.17 c5
..LN825:
        movl      $43690, %eax                                  #85.17 c5
..LN826:
        vmulps    %zmm27, %zmm27, %zmm6                         #85.17 c9
..LN827:
        kmov      %eax, %k7                                     #85.17 c9
..LN828:
        vmulps    %zmm20, %zmm20, %zmm8                         #85.17 c13
..LN829:
        lea       .L_2il0floatpacket.11(%rip), %rax             #85.21 c13
..LN830:
        vmulps    %zmm18{cdab}, %zmm18, %zmm3                   #85.17 c17
..LN831:
	.loc    1  84  is_stmt 1
        movl      1896(%rsp), %r12d                             #84.37 c17
..LN832:
	.loc    1  85  is_stmt 1
        vmulps    %zmm28{cdab}, %zmm28, %zmm5                   #85.17 c21
..LN833:
	.loc    1  84  is_stmt 1
        movl      1912(%rsp), %esi                              #84.37 c21
..LN834:
	.loc    1  85  is_stmt 1
        vmulps    %zmm27{cdab}, %zmm27, %zmm7                   #85.17 c25
..LN835:
	.loc    1  84  is_stmt 1
        andl      %r15d, %esi                                   #84.37 c25
..LN836:
	.loc    1  85  is_stmt 1
        vmulps    %zmm20{cdab}, %zmm20, %zmm9                   #85.17 c29
..LN837:
	.loc    1  84  is_stmt 1
        movl      1928(%rsp), %ebx                              #84.37 c29
..LN838:
	.loc    1  85  is_stmt 1
        vsubps    %zmm17{cdab}, %zmm17, %zmm11                  #85.17 c33
..LN839:
	.loc    1  84  is_stmt 1
        andl      %r13d, %ebx                                   #84.37 c33
..LN840:
	.loc    1  85  is_stmt 1
        vpxorq    %zmm17, %zmm17, %zmm17                        #85.21 c37
..LN841:
	.loc    1  86  is_stmt 1
        movl      %ebx, %ecx                                    #86.9 c37
..LN842:
	.loc    1  84  is_stmt 1
        andl      1920(%rsp), %r14d                             #84.37 c41
..LN843:
	.loc    1  86  is_stmt 1
        movzbl    %sil, %r8d                                    #86.9 c41
..LN844:
	.loc    1  85  is_stmt 1
        vsubps    %zmm4{cdab}, %zmm4, %zmm13                    #85.17 c45
..LN845:
	.loc    1  86  is_stmt 1
        movzbl    %r14b, %edx                                   #86.9 c45
..LN846:
	.loc    1  85  is_stmt 1
        vsubps    %zmm6{cdab}, %zmm6, %zmm15                    #85.17 c49
..LN847:
        movl      %edi, (%rsp)                                  #85.9 c49
..LN848:
        vsubps    %zmm8{cdab}, %zmm8, %zmm2                     #85.17 c53
..LN849:
        vaddps    %zmm3{cdab}, %zmm3, %zmm11{%k7}               #85.17 c57
..LN850:
        vaddps    %zmm5{cdab}, %zmm5, %zmm13{%k7}               #85.17 c61
..LN851:
        vaddps    %zmm7{cdab}, %zmm7, %zmm15{%k7}               #85.17 c65
..LN852:
        vaddps    %zmm9{cdab}, %zmm9, %zmm2{%k7}                #85.17 c69
..LN853:
        kmov      %r14d, %k7                                    #85.21 c69
..LN854:
        vmovaps   %zmm17, %zmm10                                #85.21 c73
..LN855:
        vbroadcastsd (%rax), %zmm10{%k7}                        #85.21 c77
..LN856:
        vpcmpd    $4, %zmm10, %zmm17, %k6                       #85.21 c81
..LN857:
	.loc    1  84  is_stmt 1
        andl      1888(%rsp), %r12d                             #84.37 c85
..LN858:
	.loc    1  85  is_stmt 1
        vaddps    %zmm11, %zmm21, %zmm18{%k6}                   #85.21 c89
..LN859:
        kmov      %r12d, %k6                                    #85.21 c89
..LN860:
        vmovaps   %zmm17, %zmm12                                #85.21 c93
..LN861:
        vbroadcastsd (%rax), %zmm12{%k6}                        #85.21 c97
..LN862:
        vpcmpd    $4, %zmm12, %zmm17, %k5                       #85.21 c101
..LN863:
        vaddps    %zmm13, %zmm22, %zmm28{%k5}                   #85.21 c105
..LN864:
        kmov      %esi, %k5                                     #85.21 c105
..LN865:
        vmovaps   %zmm17, %zmm14                                #85.21 c109
..LN866:
        vbroadcastsd (%rax), %zmm14{%k5}                        #85.21 c113
..LN867:
        vpcmpd    $4, %zmm14, %zmm17, %k4                       #85.21 c117
..LN868:
        vaddps    1472(%rsp), %zmm15, %zmm27{%k4}               #85.21 c121
..LN869:
        kmov      %ebx, %k4                                     #85.21 c121
..LN870:
        vmovaps   %zmm17, %zmm1                                 #85.21 c125
..LN871:
        vbroadcastsd (%rax), %zmm1{%k4}                         #85.21 c129
..LN872:
	.loc    1  86  is_stmt 1
        movl      %r12d, %eax                                   #86.9 c129
..LN873:
	.loc    1  85  is_stmt 1
        vpcmpd    $4, %zmm1, %zmm17, %k2                        #85.21 c133
..LN874:
        vaddps    1216(%rsp), %zmm2, %zmm20{%k2}                #85.21 c137
..LN875:
	.loc    1  84  is_stmt 1
        vpermf32x4 $238, %zmm28, %zmm5                          #84.17 c141
..LN876:
        vpermf32x4 $238, %zmm20, %zmm10                         #84.17 c145
..LN877:
        vpermf32x4 $238, %zmm18, %zmm3                          #84.17 c149
..LN878:
        vcvtps2pd %zmm28, %zmm4                                 #84.17 c153
..LN879:
        vcvtps2pd %zmm5, %zmm6                                  #84.17 c157
..LN880:
        vcvtps2pd %zmm27, %zmm7                                 #84.17 c161
..LN881:
        vmovaps   %zmm4, 1664(%rsp)                             #84.17 c161
..LN882:
        vcvtps2pd %zmm20, %zmm9                                 #84.17 c165
..LN883:
        vmovaps   %zmm6, 1728(%rsp)                             #84.17 c165
..LN884:
        vcvtps2pd %zmm10, %zmm11                                #84.17 c169
..LN885:
        vmovaps   %zmm7, 1600(%rsp)                             #84.17 c169
..LN886:
        vpermf32x4 $238, %zmm27, %zmm8                          #84.17 c173
..LN887:
        vmovaps   %zmm9, 1792(%rsp)                             #84.17 c173
..LN888:
	.loc    1  86  is_stmt 1
        shll      $8, %ecx                                      #86.9 c177
..LN889:
	.loc    1  84  is_stmt 1
        vmovaps   %zmm11, 1536(%rsp)                            #84.17 c177
..LN890:
	.loc    1  86  is_stmt 1
        shll      $8, %eax                                      #86.9 c181
..LN891:
        orl       %ecx, %r8d                                    #86.9 c181
..LN892:
	.loc    1  84  is_stmt 1
        vcvtps2pd %zmm18, %zmm1                                 #84.17 c185
..LN893:
	.loc    1  86  is_stmt 1
        orl       %eax, %edx                                    #86.9 c185
..LN894:
	.loc    1  84  is_stmt 1
        vcvtps2pd %zmm3, %zmm2                                  #84.17 c189
..LN895:
	.loc    1  86  is_stmt 1
        kmov      %r8d, %k1                                     #86.9 c189
..LN896:
        vpaddd    (%rsp){1to16}, %zmm19, %zmm24{%k1}            #86.9 c193
..LN897:
	.loc    1  84  is_stmt 1
        movl      $255, %eax                                    #84.12 c193
..LN898:
        vmovaps   1344(%rsp), %zmm0                             #84.12 c197
..LN899:
	.loc    1  86  is_stmt 1
        kmov      %edx, %k3                                     #86.9 c197
..LN900:
        vpaddd    (%rsp){1to16}, %zmm19, %zmm23{%k3}            #86.9 c201
..LN901:
	.loc    1  84  is_stmt 1
        kmov      %eax, %k1                                     #84.12 c201
..LN902:
        vcvtps2pd %zmm8, %zmm17                                 #84.17 c205
..LN903:
        call      __svml_cabs8_mask                             #84.12 c209
..LN904:
                                # LOE ebx esi edi r12d r13d r14d r15d zmm0 zmm16 zmm17 zmm18 zmm19 zmm20 zmm21 zmm22 zmm23 zmm24 zmm25 zmm26 zmm27 zmm28 zmm29 zmm30 zmm31 k4 k5 k6 k7
..B6.17:                        # Preds ..B6.4 Latency 17
..LN905:
        vmovaps   %zmm0, 1344(%rsp)                             #84.12 c1
..LN906:
        movl      $255, %eax                                    #84.12 c1
..LN907:
        vmovaps   1280(%rsp), %zmm0                             #84.12 c5
..LN908:
        kmov      %eax, %k1                                     #84.12 c5
..LN909:
        vmovaps   1664(%rsp), %zmm1                             #84.12 c9
..LN910:
        vmovaps   1728(%rsp), %zmm2                             #84.12 c13
..LN911:
        call      __svml_cabs8_mask                             #84.12 c17
..LN912:
                                # LOE ebx esi edi r12d r13d r14d r15d zmm0 zmm16 zmm17 zmm18 zmm19 zmm20 zmm21 zmm22 zmm23 zmm24 zmm25 zmm26 zmm27 zmm28 zmm29 zmm30 zmm31 k4 k5 k6 k7
..B6.16:                        # Preds ..B6.17 Latency 17
..LN913:
        vmovaps   %zmm0, 1280(%rsp)                             #84.12 c1
..LN914:
        movl      $255, %eax                                    #84.12 c1
..LN915:
        vmovaps   1408(%rsp), %zmm0                             #84.12 c5
..LN916:
        kmov      %eax, %k1                                     #84.12 c5
..LN917:
        vmovaps   1600(%rsp), %zmm1                             #84.12 c9
..LN918:
        vmovaps   %zmm17, %zmm2                                 #84.12 c13
..LN919:
        call      __svml_cabs8_mask                             #84.12 c17
..LN920:
                                # LOE ebx esi edi r12d r13d r14d r15d zmm0 zmm16 zmm18 zmm19 zmm20 zmm21 zmm22 zmm23 zmm24 zmm25 zmm26 zmm27 zmm28 zmm29 zmm30 zmm31 k4 k5 k6 k7
..B6.15:                        # Preds ..B6.16 Latency 17
..LN921:
        vmovaps   %zmm0, 1408(%rsp)                             #84.12 c1
..LN922:
        movl      $255, %eax                                    #84.12 c1
..LN923:
        vmovaps   %zmm31, %zmm0                                 #84.12 c5
..LN924:
        kmov      %eax, %k1                                     #84.12 c5
..LN925:
        vmovaps   1792(%rsp), %zmm1                             #84.12 c9
..LN926:
        vmovaps   1536(%rsp), %zmm2                             #84.12 c13
..LN927:
        call      __svml_cabs8_mask                             #84.12 c17
..LN928:
                                # LOE ebx esi edi r12d r13d r14d r15d zmm0 zmm16 zmm18 zmm19 zmm20 zmm21 zmm22 zmm23 zmm24 zmm25 zmm26 zmm27 zmm28 zmm29 zmm30 k4 k5 k6 k7
..B6.14:                        # Preds ..B6.15 Latency 82
..LN929:
        vmovaps   1344(%rsp), %zmm1                             #84.12 c1
..LN930:
        vmovapd   %zmm1, %zmm25{%k7}                            #84.12 c5
..LN931:
        vmovaps   1280(%rsp), %zmm2                             #84.12 c9
..LN932:
        vcmpltpd  %zmm16, %zmm25, %k0                           #84.22 c13
..LN933:
        vmovapd   %zmm2, %zmm29{%k6}                            #84.12 c17
..LN934:
        vmovaps   1408(%rsp), %zmm3                             #84.12 c21
..LN935:
        kmov      %k0, %eax                                     #84.22 c21
..LN936:
        vmovaps   %zmm0, %zmm31                                 #84.12 c25
..LN937:
        andl      %eax, %r14d                                   #84.22 c25
..LN938:
        vcmpltpd  %zmm16, %zmm29, %k1                           #84.22 c29
..LN939:
        lea       1920(%rsp), %rax                              #84.5 c29
..LN940:
        vmovapd   %zmm3, %zmm26{%k5}                            #84.12 c33
..LN941:
        movl      (%rax), %edx                                  #84.5 c33
..LN942:
        vmovapd   %zmm31, %zmm30{%k4}                           #84.12 c37
..LN943:
        andl      %r14d, %edx                                   #84.5 c37
..LN944:
        vcmpltpd  %zmm16, %zmm26, %k2                           #84.22 c41
..LN945:
        kmov      %k1, %r14d                                    #84.22 c41
..LN946:
        vcmpltpd  %zmm16, %zmm30, %k3                           #84.22 c45
..LN947:
        andl      %r14d, %r12d                                  #84.22 c45
..LN948:
        lea       1888(%rsp), %r14                              #84.5 c49
..LN949:
        movl      %edx, (%rax)                                  #84.5 c49
..LN950:
        movl      (%r14), %ecx                                  #84.5 c53
..LN951:
        andl      %r12d, %ecx                                   #84.5 c57
..LN952:
        kmov      %k2, %r12d                                    #84.22 c57
..LN953:
        andl      %r12d, %esi                                   #84.22 c61
..LN954:
        orl       %ecx, %edx                                    #84.5 c61
..LN955:
        andl      %esi, %r15d                                   #84.5 c65
..LN956:
        kmov      %k3, %esi                                     #84.22 c65
..LN957:
        andl      %esi, %ebx                                    #84.22 c69
..LN958:
        orl       %r15d, %edx                                   #84.5 c69
..LN959:
        andl      %ebx, %r13d                                   #84.5 c73
..LN960:
        movl      %ecx, (%r14)                                  #84.5 c73
..LN961:
        orl       %r13d, %edx                                   #84.5 c77
..LN962:
        testb     %dl, %dl                                      #84.5 c81
..LN963:
        jne       ..B6.3        # Prob 50%                      #84.5 c81
..LN964:
                                # LOE edi r13d r15d zmm16 zmm18 zmm19 zmm20 zmm21 zmm22 zmm23 zmm24 zmm25 zmm26 zmm27 zmm28 zmm29 zmm30 zmm31
..B6.19:                        # Preds ..B6.14 ..B6.3 Latency 21
..LN965:
        vmovaps   1152(%rsp), %zmm17                            # c1
	.cfi_restore 87
..LN966:
        vmovaps   %zmm24, 896(%rsp)                             # c1
..LN967:
        vmovaps   1088(%rsp), %zmm20                            # c5
	.cfi_restore 90
..LN968:
        vmovaps   %zmm23, 832(%rsp)                             # c5
..LN969:
        vmovaps   1024(%rsp), %zmm27                            # c9
	.cfi_restore 97
..LN970:
        vmovaps   960(%rsp), %zmm28                             # c13
	.cfi_restore 98
..LN971:
        movb      %al, %al                                      # c13
..LN972:
        movl      1872(%rsp), %eax                              # c17
	.cfi_restore 106
..LN973:
        kmov      %eax, %k4                                     #
..LN974:
        movl      1864(%rsp), %eax                              # c17
	.cfi_restore 107
..LN975:
        kmov      %eax, %k5                                     #
..LN976:
        movl      1856(%rsp), %eax                              # c21
	.cfi_restore 108
..LN977:
        kmov      %eax, %k6                                     #
..LN978:
                                # LOE rbx r12 r14 r15 zmm17 zmm20 zmm27 zmm28 k4 k5 k6
..B6.7:                         # Preds ..B6.19 ..B6.10 Latency 81
..LN979:
	.loc    1  88  is_stmt 1
        vmovaps   576(%rsp), %zmm16                             #88.12 c1
	.cfi_restore 86
..LN980:
        vmovaps   640(%rsp), %zmm18                             #88.12 c5
	.cfi_restore 88
..LN981:
        vmovaps   192(%rsp), %zmm19                             #88.12 c9
	.cfi_restore 89
..LN982:
        vmovaps   704(%rsp), %zmm21                             #88.12 c13
	.cfi_restore 91
..LN983:
        vmovaps   768(%rsp), %zmm22                             #88.12 c17
	.cfi_restore 92
..LN984:
        vmovaps   512(%rsp), %zmm23                             #88.12 c21
	.cfi_restore 93
..LN985:
        vmovaps   448(%rsp), %zmm24                             #88.12 c25
	.cfi_restore 94
..LN986:
        vmovaps   384(%rsp), %zmm25                             #88.12 c29
	.cfi_restore 95
..LN987:
        vmovaps   64(%rsp), %zmm26                              #88.12 c33
	.cfi_restore 96
..LN988:
        vmovaps   128(%rsp), %zmm29                             #88.12 c37
	.cfi_restore 99
..LN989:
        vmovaps   320(%rsp), %zmm30                             #88.12 c41
	.cfi_restore 100
..LN990:
        vmovaps   256(%rsp), %zmm31                             #88.12 c45
	.cfi_restore 101
..LN991:
        vmovaps   832(%rsp), %zmm0                              #88.12 c49
..LN992:
        vmovaps   896(%rsp), %zmm1                              #88.12 c53
..LN993:
        movb      %al, %al                                      #88.12 c53
..LN994:
        movl      1880(%rsp), %eax                              #88.12 c57
	.cfi_restore 109
..LN995:
        kmov      %eax, %k7                                     #88.12
..LN996:
	.loc    1  88  epilogue_begin  is_stmt 1
        addq      $1944, %rsp                                   #88.12
	.cfi_restore 3
..LN997:
        popq      %rbx                                          #88.12
	.cfi_restore 15
..LN998:
        popq      %r15                                          #88.12
	.cfi_restore 14
..LN999:
        popq      %r14                                          #88.12
	.cfi_restore 13
..LN1000:
        popq      %r13                                          #88.12
	.cfi_restore 12
..LN1001:
        popq      %r12                                          #88.12
..LN1002:
        movq      %rbp, %rsp                                    #88.12 c81
..LN1003:
        popq      %rbp                                          #88.12
	.cfi_def_cfa 7, 8
	.cfi_restore 6
..LN1004:
        ret                                                     #88.12
        .align    16,0x90
	.cfi_endproc
..LN1005:
                                # LOE
..LN1006:
# mark_end;
	.type	_ZGVzN32vu_9mandel_v1Cfi,@function
	.size	_ZGVzN32vu_9mandel_v1Cfi,.-_ZGVzN32vu_9mandel_v1Cfi
..LN_ZGVzN32vu_9mandel_v1Cfi.1007:
.LN_ZGVzN32vu_9mandel_v1Cfi:
	.data
# -- End  _ZGVzN32vu_9mandel_v1Cfi
	.text
.L_2__routine_start__ZGVzM32vu_9mandel_v1Cfi_6:
# -- Begin  _ZGVzM32vu_9mandel_v1Cfi
	.text
# mark_begin;
# Threads 4
        .align    16,0x90
	.globl _ZGVzM32vu_9mandel_v1Cfi
# --- mandel_v1..zM32vu(float __complex__, int)
_ZGVzM32vu_9mandel_v1Cfi:
# parameter 1: %zmm0
# parameter 2: %zmm1
# parameter 3: %zmm2
# parameter 4: %zmm3
# parameter 5(max_iter): %eax
# parameter 6: %ecx
# parameter 7: %edx
..B7.1:                         # Preds ..B7.0 Latency 109
	.cfi_startproc
	.cfi_personality 0x3,__gxx_personality_v0
..___tag_value__ZGVzM32vu_9mandel_v1Cfi.230:
..L231:
                                                        #82.46
..LN1008:
	.loc    1  82  is_stmt 1
        pushq     %rbp                                          #82.46
	.cfi_def_cfa_offset 16
..LN1009:
        movq      %rsp, %rbp                                    #82.46
	.cfi_def_cfa 6, 16
	.cfi_offset 6, -16
..LN1010:
        andq      $-64, %rsp                                    #82.46
..LN1011:
        pushq     %r12                                          #82.46 c1
..LN1012:
        pushq     %r13                                          #82.46 c5
..LN1013:
        pushq     %r14                                          #82.46 c9
..LN1014:
        pushq     %r15                                          #82.46 c13
..LN1015:
        pushq     %rbx                                          #82.46 c17
..LN1016:
        subq      $1880, %rsp                                   #82.46 c17
..LN1017:
        vmovaps   %zmm25, 320(%rsp)                             #82.46 c21
..LN1018:
        movl      %ecx, %edi                                    #82.46 c21
..LN1019:
        vmovaps   %zmm24, 256(%rsp)                             #82.46 c25
..LN1020:
        movl      %edi, %r8d                                    #82.46 c25
..LN1021:
        vmovaps   %zmm23, 192(%rsp)                             #82.46 c29
	.cfi_escape 0x10, 0x03, 0x0e, 0x38, 0x1c, 0x0d, 0xc0, 0xff, 0xff, 0xff, 0x1a, 0x0d, 0xd8, 0xff, 0xff, 0xff, 0x22
	.cfi_escape 0x10, 0x0c, 0x0e, 0x38, 0x1c, 0x0d, 0xc0, 0xff, 0xff, 0xff, 0x1a, 0x0d, 0xf8, 0xff, 0xff, 0xff, 0x22
	.cfi_escape 0x10, 0x0d, 0x0e, 0x38, 0x1c, 0x0d, 0xc0, 0xff, 0xff, 0xff, 0x1a, 0x0d, 0xf0, 0xff, 0xff, 0xff, 0x22
	.cfi_escape 0x10, 0x0e, 0x0e, 0x38, 0x1c, 0x0d, 0xc0, 0xff, 0xff, 0xff, 0x1a, 0x0d, 0xe8, 0xff, 0xff, 0xff, 0x22
	.cfi_escape 0x10, 0x0f, 0x0e, 0x38, 0x1c, 0x0d, 0xc0, 0xff, 0xff, 0xff, 0x1a, 0x0d, 0xe0, 0xff, 0xff, 0xff, 0x22
	.cfi_escape 0x10, 0xffffffdd, 0x00, 0x0e, 0x38, 0x1c, 0x0d, 0xc0, 0xff, 0xff, 0xff, 0x1a, 0x0d, 0x40, 0xf9, 0xff, 0xff, 0x22
	.cfi_escape 0x10, 0xffffffde, 0x00, 0x0e, 0x38, 0x1c, 0x0d, 0xc0, 0xff, 0xff, 0xff, 0x1a, 0x0d, 0x80, 0xf9, 0xff, 0xff, 0x22
	.cfi_escape 0x10, 0xffffffdf, 0x00, 0x0e, 0x38, 0x1c, 0x0d, 0xc0, 0xff, 0xff, 0xff, 0x1a, 0x0d, 0xc0, 0xf9, 0xff, 0xff, 0x22
..LN1022:
        movl      %eax, %r14d                                   #82.46 c29
..LN1023:
        vmovaps   %zmm22, 128(%rsp)                             #82.46 c33
..LN1024:
        vmovaps   %zmm21, 64(%rsp)                              #82.46 c37
	.cfi_escape 0x10, 0xffffffdb, 0x00, 0x0e, 0x38, 0x1c, 0x0d, 0xc0, 0xff, 0xff, 0xff, 0x1a, 0x0d, 0xc0, 0xf8, 0xff, 0xff, 0x22
	.cfi_escape 0x10, 0xffffffdc, 0x00, 0x0e, 0x38, 0x1c, 0x0d, 0xc0, 0xff, 0xff, 0xff, 0x1a, 0x0d, 0x00, 0xf9, 0xff, 0xff, 0x22
..LN1025:
        vmovaps   %zmm3, %zmm25                                 #82.46 c41
..LN1026:
        vmovaps   %zmm31, 704(%rsp)                             #82.46 c41
	.cfi_escape 0x10, 0xffffffe5, 0x00, 0x0e, 0x38, 0x1c, 0x0d, 0xc0, 0xff, 0xff, 0xff, 0x1a, 0x0d, 0x40, 0xfb, 0xff, 0xff, 0x22
..LN1027:
        vmovaps   %zmm2, %zmm24                                 #82.46 c45
..LN1028:
        vmovaps   %zmm30, 640(%rsp)                             #82.46 c45
	.cfi_escape 0x10, 0xffffffe4, 0x00, 0x0e, 0x38, 0x1c, 0x0d, 0xc0, 0xff, 0xff, 0xff, 0x1a, 0x0d, 0x00, 0xfb, 0xff, 0xff, 0x22
..LN1029:
        vmovaps   %zmm1, %zmm23                                 #82.46 c49
..LN1030:
        vmovaps   %zmm29, 576(%rsp)                             #82.46 c49
	.cfi_escape 0x10, 0xffffffe3, 0x00, 0x0e, 0x38, 0x1c, 0x0d, 0xc0, 0xff, 0xff, 0xff, 0x1a, 0x0d, 0xc0, 0xfa, 0xff, 0xff, 0x22
..LN1031:
        vmovaps   %zmm0, %zmm21                                 #82.46 c53
..LN1032:
        vmovaps   %zmm28, 512(%rsp)                             #82.46 c53
	.cfi_escape 0x10, 0xffffffe2, 0x00, 0x0e, 0x38, 0x1c, 0x0d, 0xc0, 0xff, 0xff, 0xff, 0x1a, 0x0d, 0x80, 0xfa, 0xff, 0xff, 0x22
..LN1033:
	.loc    1  83  prologue_end  is_stmt 1
        vpxord    %zmm22, %zmm22, %zmm22                        #83.14 c57
..LN1034:
	.loc    1  82  is_stmt 1
        vmovaps   %zmm27, 448(%rsp)                             #82.46 c57
..LN1035:
        vmovaps   %zmm26, 384(%rsp)                             #82.46 c61
..LN1036:
        vmovaps   %zmm20, 768(%rsp)                             #82.46 c65
..LN1037:
        vmovaps   %zmm19, 832(%rsp)                             #82.46 c69
..LN1038:
        vmovaps   %zmm18, 896(%rsp)                             #82.46 c73
..LN1039:
        vmovaps   %zmm17, 960(%rsp)                             #82.46 c77
..LN1040:
        vmovaps   %zmm16, 1024(%rsp)                            #82.46 c81
..LN1041:
        vmovaps   %zmm4, 1472(%rsp)                             #82.46 c85
..LN1042:
        vmovaps   %zmm5, 1088(%rsp)                             #82.46 c89
..LN1043:
        movb      %al, %al                                      #82.46 c89
..LN1044:
        kmov      %k6, %esi                                     #82.46 c93
..LN1045:
        movl      %esi, 1824(%rsp)                              #82.46
..LN1046:
        kmov      %k5, %esi                                     #82.46 c93
..LN1047:
        movl      %esi, 1832(%rsp)                              #82.46
..LN1048:
        kmov      %k4, %esi                                     #82.46 c97
..LN1049:
        movl      %esi, 1816(%rsp)                              #82.46
..LN1050:
        movl      %edx, %esi                                    #82.46 c101
..LN1051:
        orl       %esi, %r8d                                    #82.46 c105
..LN1052:
        cmpw      $0, %r8w                                      #82.46 c109
..LN1053:
        je        ..B7.19       # Prob 50%                      #82.46 c109
	.cfi_escape 0x10, 0xffffffd6, 0x00, 0x0e, 0x38, 0x1c, 0x0d, 0xc0, 0xff, 0xff, 0xff, 0x1a, 0x0d, 0x80, 0xfc, 0xff, 0xff, 0x22
	.cfi_escape 0x10, 0xffffffd7, 0x00, 0x0e, 0x38, 0x1c, 0x0d, 0xc0, 0xff, 0xff, 0xff, 0x1a, 0x0d, 0x40, 0xfc, 0xff, 0xff, 0x22
	.cfi_escape 0x10, 0xffffffd8, 0x00, 0x0e, 0x38, 0x1c, 0x0d, 0xc0, 0xff, 0xff, 0xff, 0x1a, 0x0d, 0x00, 0xfc, 0xff, 0xff, 0x22
	.cfi_escape 0x10, 0xffffffd9, 0x00, 0x0e, 0x38, 0x1c, 0x0d, 0xc0, 0xff, 0xff, 0xff, 0x1a, 0x0d, 0xc0, 0xfb, 0xff, 0xff, 0x22
	.cfi_escape 0x10, 0xffffffda, 0x00, 0x0e, 0x38, 0x1c, 0x0d, 0xc0, 0xff, 0xff, 0xff, 0x1a, 0x0d, 0x80, 0xfb, 0xff, 0xff, 0x22
	.cfi_escape 0x10, 0xffffffe0, 0x00, 0x0e, 0x38, 0x1c, 0x0d, 0xc0, 0xff, 0xff, 0xff, 0x1a, 0x0d, 0x00, 0xfa, 0xff, 0xff, 0x22
	.cfi_escape 0x10, 0xffffffe1, 0x00, 0x0e, 0x38, 0x1c, 0x0d, 0xc0, 0xff, 0xff, 0xff, 0x1a, 0x0d, 0x40, 0xfa, 0xff, 0xff, 0x22
	.cfi_escape 0x10, 0xffffffea, 0x00, 0x0e, 0x38, 0x1c, 0x0d, 0xc0, 0xff, 0xff, 0xff, 0x1a, 0x0d, 0x98, 0xff, 0xff, 0xff, 0x22
	.cfi_escape 0x10, 0xffffffeb, 0x00, 0x0e, 0x38, 0x1c, 0x0d, 0xc0, 0xff, 0xff, 0xff, 0x1a, 0x0d, 0xa8, 0xff, 0xff, 0xff, 0x22
	.cfi_escape 0x10, 0xffffffec, 0x00, 0x0e, 0x38, 0x1c, 0x0d, 0xc0, 0xff, 0xff, 0xff, 0x1a, 0x0d, 0xa0, 0xff, 0xff, 0xff, 0x22
..LN1054:
                                # LOE rbx r12 r13 r15 esi edi r14d zmm21 zmm22 zmm23 zmm24 zmm25 k7
..B7.2:                         # Preds ..B7.1 Latency 73
..LN1055:
	.loc    1  83  is_stmt 1
        vmovaps   .L_2il0floatpacket.9(%rip), %zmm20            #83.14 c1
..LN1056:
	.loc    1  84  is_stmt 1
        vpermf32x4 $238, %zmm21, %zmm31                         #84.17 c5
..LN1057:
	.loc    1  83  is_stmt 1
        vmovaps   %zmm21, (%rsp)                                #83.35 c5
..LN1058:
	.loc    1  84  is_stmt 1
        vpermf32x4 $238, %zmm23, %zmm16                         #84.17 c9
..LN1059:
	.loc    1  83  is_stmt 1
        kmov      %edi, %k5                                     #83.14 c9
..LN1060:
        vpblendmd %zmm20, %zmm22, %zmm17{%k5}                   #83.14 c13
..LN1061:
        kmov      %esi, %k4                                     #83.14 c13
..LN1062:
        vpblendmd %zmm20, %zmm22, %zmm18{%k4}                   #83.14 c17
..LN1063:
	.loc    1  84  is_stmt 1
        movl      $255, %eax                                    #84.12 c17
..LN1064:
        vpermf32x4 $238, %zmm24, %zmm26                         #84.17 c21
..LN1065:
	.loc    1  83  is_stmt 1
        vmovaps   %zmm17, 1088(%rsp)                            #83.14 c21
..LN1066:
	.loc    1  84  is_stmt 1
        vpermf32x4 $238, %zmm25, %zmm28                         #84.17 c25
..LN1067:
	.loc    1  83  is_stmt 1
        vmovaps   %zmm18, 1472(%rsp)                            #83.14 c25
..LN1068:
	.loc    1  84  is_stmt 1
        vcvtps2pd %zmm31, %zmm2                                 #84.17 c29
..LN1069:
        kmov      %eax, %k6                                     #84.12 c29
..LN1070:
        vcvtps2pd %zmm16, %zmm29                                #84.17 c33
..LN1071:
        kmov      %k6, %k1                                      #84.12 c33
..LN1072:
        vcvtps2pd %zmm21, %zmm1                                 #84.17 c37
..LN1073:
	.loc    1  83  is_stmt 1
        vmovaps   %zmm23, %zmm19                                #83.35 c41
..LN1074:
        vmovaps   %zmm24, %zmm18                                #83.35 c45
..LN1075:
        vmovaps   %zmm25, %zmm17                                #83.35 c49
..LN1076:
	.loc    1  84  is_stmt 1
        vcvtps2pd %zmm23, %zmm31                                #84.17 c53
..LN1077:
        vcvtps2pd %zmm24, %zmm16                                #84.17 c57
..LN1078:
        vcvtps2pd %zmm26, %zmm26                                #84.17 c61
..LN1079:
        vcvtps2pd %zmm25, %zmm27                                #84.17 c65
..LN1080:
        vcvtps2pd %zmm28, %zmm28                                #84.17 c69
..LN1081:
        call      __svml_cabs8_mask                             #84.12 c73
..LN1082:
                                # LOE rbx r12 r13 r15 esi edi r14d zmm0 zmm16 zmm17 zmm18 zmm19 zmm20 zmm21 zmm22 zmm23 zmm24 zmm25 zmm26 zmm27 zmm28 zmm29 zmm31 k4 k5 k6 k7
..B7.14:                        # Preds ..B7.2 Latency 13
..LN1083:
        vmovaps   %zmm31, %zmm1                                 #84.12 c1
..LN1084:
        kmov      %k6, %k1                                      #84.12 c1
..LN1085:
        vmovaps   %zmm29, %zmm2                                 #84.12 c5
..LN1086:
        vmovaps   %zmm0, %zmm30                                 #84.12 c9
..LN1087:
        call      __svml_cabs8_mask                             #84.12 c13
..LN1088:
                                # LOE rbx r12 r13 r15 esi edi r14d zmm0 zmm16 zmm17 zmm18 zmm19 zmm20 zmm21 zmm22 zmm23 zmm24 zmm25 zmm26 zmm27 zmm28 zmm30 k4 k5 k6 k7
..B7.13:                        # Preds ..B7.14 Latency 13
..LN1089:
        vmovaps   %zmm16, %zmm1                                 #84.12 c1
..LN1090:
        kmov      %k6, %k1                                      #84.12 c1
..LN1091:
        vmovaps   %zmm26, %zmm2                                 #84.12 c5
..LN1092:
        vmovaps   %zmm0, %zmm29                                 #84.12 c9
..LN1093:
        call      __svml_cabs8_mask                             #84.12 c13
..LN1094:
                                # LOE rbx r12 r13 r15 esi edi r14d zmm0 zmm17 zmm18 zmm19 zmm20 zmm21 zmm22 zmm23 zmm24 zmm25 zmm27 zmm28 zmm29 zmm30 k4 k5 k6 k7
..B7.12:                        # Preds ..B7.13 Latency 13
..LN1095:
        vmovaps   %zmm27, %zmm1                                 #84.12 c1
..LN1096:
        kmov      %k6, %k1                                      #84.12 c1
..LN1097:
        vmovaps   %zmm28, %zmm2                                 #84.12 c5
..LN1098:
        vmovaps   %zmm0, %zmm26                                 #84.12 c9
..LN1099:
        call      __svml_cabs8_mask                             #84.12 c13
..LN1100:
                                # LOE rbx r12 r13 r15 esi edi r14d zmm0 zmm17 zmm18 zmm19 zmm20 zmm21 zmm22 zmm23 zmm24 zmm25 zmm26 zmm29 zmm30 k4 k5 k6 k7
..B7.11:                        # Preds ..B7.12 Latency 65
..LN1101:
        vcmpltpd  .L_2il0floatpacket.10(%rip), %zmm29, %k2      #84.22 c1
..LN1102:
        lea       .L_2il0floatpacket.10(%rip), %rax             #84.22 c5
..LN1103:
        vcmpltpd  (%rax), %zmm30, %k0                           #84.22 c9
..LN1104:
        kmov      %k2, %edx                                     #84.22 c9
..LN1105:
        vmovapd   (%rax), %zmm16                                #84.22 c13
..LN1106:
        shll      $8, %edx                                      #84.22 c17
..LN1107:
        kmov      %k0, %eax                                     #84.22 c17
..LN1108:
        movzbl    %al, %eax                                     #84.22 c21
..LN1109:
        orl       %edx, %eax                                    #84.22 c25
..LN1110:
        andl      %eax, %edi                                    #84.22 c29
..LN1111:
        lea       .L_2il0floatpacket.10(%rip), %rax             #84.22 c29
..LN1112:
        vcmpltpd  (%rax), %zmm26, %k3                           #84.22 c33
..LN1113:
        movl      %edi, %r9d                                    #84.22 c33
..LN1114:
        vcmpltpd  (%rax), %zmm0, %k0                            #84.22 c37
..LN1115:
        movb      %dl, %dl                                      #84.22 c37
..LN1116:
        kmov      %k3, %ecx                                     #84.22 c41
..LN1117:
        movb      %al, %al                                      #84.22 c41
..LN1118:
        kmov      %k0, %r8d                                     #84.22 c45
..LN1119:
        movzbl    %cl, %ecx                                     #84.22 c45
..LN1120:
        shll      $8, %r8d                                      #84.22 c49
..LN1121:
        orl       %r8d, %ecx                                    #84.22 c53
..LN1122:
        andl      %ecx, %esi                                    #84.22 c57
..LN1123:
        orl       %esi, %r9d                                    #84.22 c61
..LN1124:
        cmpw      $0, %r9w                                      #84.22 c65
..LN1125:
        je        ..B7.8        # Prob 50%                      #84.22 c65
..LN1126:
                                # LOE rbx r12 r13 r15 esi edi r14d zmm16 zmm17 zmm18 zmm19 zmm20 zmm21 zmm22 zmm23 zmm24 zmm25 k4 k5 k6 k7
..B7.3:                         # Preds ..B7.11 Latency 41
..LN1127:
        vmovaps   %zmm24, 1216(%rsp)                            #84.5 c1
..LN1128:
        kmov      %k4, %ebx                                     #84.5 c1
..LN1129:
        vmovaps   %zmm25, 1408(%rsp)                            #84.5 c5
..LN1130:
        movl      %edi, %ecx                                    #84.5 c5
..LN1131:
        vmovaps   (%rsp), %zmm24                                #84.5 c9
..LN1132:
        vmovaps   %zmm1, 1344(%rsp)                             #84.5 c9
..LN1133:
        vmovaps   1472(%rsp), %zmm25                            #84.5 c13
..LN1134:
        vmovaps   %zmm2, 1280(%rsp)                             #84.5 c13
..LN1135:
        vmovaps   %zmm23, 1152(%rsp)                            #84.5 c17
..LN1136:
        movl      %esi, %edx                                    #84.5 c17
..LN1137:
        xorl      %eax, %eax                                    #84.5 c21
..LN1138:
        movl      %ebx, 1800(%rsp)                              #84.5 c21
..LN1139:
        kmov      %k5, %ebx                                     #84.5 c25
..LN1140:
        movl      %r14d, 1840(%rsp)                             #84.5 c25
..LN1141:
        movl      %ebx, 1792(%rsp)                              #84.5 c29
..LN1142:
        movl      %edi, %r12d                                   #84.5 c29
..LN1143:
        kmov      %k7, %ebx                                     #84.5 c33
..LN1144:
        movl      %ebx, 1808(%rsp)                              #84.5
..LN1145:
        movl      %eax, %edi                                    #84.5 c33
	.cfi_escape 0x10, 0xffffffed, 0x00, 0x0e, 0x38, 0x1c, 0x0d, 0xc0, 0xff, 0xff, 0xff, 0x1a, 0x0d, 0x90, 0xff, 0xff, 0xff, 0x22
..LN1146:
        movl      %edx, %r14d                                   #84.5 c37
..LN1147:
        movl      %ecx, %r15d                                   #84.5 c37
..LN1148:
        movl      %esi, %r13d                                   #84.5 c41
..LN1149:
                                # LOE edi r12d r13d r14d r15d zmm16 zmm17 zmm18 zmm19 zmm20 zmm21 zmm24 zmm25 zmm26 zmm27 zmm28 zmm29 zmm30 zmm31
..B7.4:                         # Preds ..B7.15 ..B7.3 Latency 9
..L261:         # optimization report
                # LOOP WAS VECTORIZED
                # loop was vectorized along with the enclosing function
..LN1150:
        incl      %edi                                          #84.5 c1
..LN1151:
        cmpl      1840(%rsp), %edi                              #84.37 c5
..LN1152:
        jge       ..B7.21       # Prob 50%                      #84.37 c9
..LN1153:
                                # LOE edi r12d r13d r14d r15d zmm16 zmm17 zmm18 zmm19 zmm20 zmm21 zmm24 zmm25 zmm26 zmm27 zmm28 zmm29 zmm30 zmm31
..B7.5:                         # Preds ..B7.4 Latency 221
..LN1154:
	.loc    1  85  is_stmt 1
        vmulps    %zmm24, %zmm24, %zmm23                        #85.17 c1
..LN1155:
        movl      $43690, %eax                                  #85.17 c1
..LN1156:
        vmulps    %zmm24{cdab}, %zmm24, %zmm22                  #85.17 c5
..LN1157:
	.loc    1  84  is_stmt 1
        movl      %r12d, %esi                                   #84.37 c5
..LN1158:
	.loc    1  85  is_stmt 1
        vmulps    %zmm19, %zmm19, %zmm3                         #85.17 c9
..LN1159:
        kmov      %eax, %k7                                     #85.17 c9
..LN1160:
        vmulps    %zmm18, %zmm18, %zmm5                         #85.17 c13
..LN1161:
        lea       .L_2il0floatpacket.11(%rip), %rax             #85.21 c13
..LN1162:
        vmulps    %zmm17, %zmm17, %zmm7                         #85.17 c17
..LN1163:
	.loc    1  84  is_stmt 1
        andl      %r15d, %esi                                   #84.37 c17
..LN1164:
	.loc    1  85  is_stmt 1
        vmulps    %zmm19{cdab}, %zmm19, %zmm4                   #85.17 c21
..LN1165:
	.loc    1  84  is_stmt 1
        movl      %r12d, %r9d                                   #84.37 c21
..LN1166:
	.loc    1  85  is_stmt 1
        vmulps    %zmm18{cdab}, %zmm18, %zmm6                   #85.17 c25
..LN1167:
	.loc    1  84  is_stmt 1
        movl      %r15d, %ebx                                   #84.37 c25
..LN1168:
	.loc    1  85  is_stmt 1
        vmulps    %zmm17{cdab}, %zmm17, %zmm8                   #85.17 c29
..LN1169:
	.loc    1  84  is_stmt 1
        movl      %r13d, %r10d                                  #84.37 c29
..LN1170:
	.loc    1  85  is_stmt 1
        vpxorq    %zmm15, %zmm15, %zmm15                        #85.21 c33
..LN1171:
	.loc    1  84  is_stmt 1
        movl      %r14d, %r8d                                   #84.37 c33
..LN1172:
	.loc    1  85  is_stmt 1
        vsubps    %zmm23{cdab}, %zmm23, %zmm10                  #85.17 c37
..LN1173:
        movl      %edi, (%rsp)                                  #85.9 c37
..LN1174:
        vaddps    %zmm22{cdab}, %zmm22, %zmm10{%k7}             #85.17 c41
..LN1175:
        vsubps    %zmm3{cdab}, %zmm3, %zmm12                    #85.17 c45
..LN1176:
        vsubps    %zmm5{cdab}, %zmm5, %zmm14                    #85.17 c49
..LN1177:
        vsubps    %zmm7{cdab}, %zmm7, %zmm22                    #85.17 c53
..LN1178:
        vaddps    %zmm4{cdab}, %zmm4, %zmm12{%k7}               #85.17 c57
..LN1179:
        vaddps    %zmm6{cdab}, %zmm6, %zmm14{%k7}               #85.17 c61
..LN1180:
        vaddps    %zmm8{cdab}, %zmm8, %zmm22{%k7}               #85.17 c65
..LN1181:
        kmov      %esi, %k7                                     #85.21 c65
..LN1182:
        vmovaps   %zmm15, %zmm9                                 #85.21 c69
..LN1183:
	.loc    1  84  is_stmt 1
        movzbl    %sil, %esi                                    #84.37 c69
..LN1184:
	.loc    1  85  is_stmt 1
        vbroadcastsd (%rax), %zmm9{%k7}                         #85.21 c73
..LN1185:
        vpcmpd    $4, %zmm9, %zmm15, %k6                        #85.21 c77
..LN1186:
	.loc    1  84  is_stmt 1
        shrl      $8, %r9d                                      #84.37 c81
..LN1187:
        shrl      $8, %ebx                                      #84.37 c85
..LN1188:
	.loc    1  85  is_stmt 1
        vaddps    %zmm10, %zmm21, %zmm24{%k6}                   #85.21 c89
..LN1189:
	.loc    1  84  is_stmt 1
        andl      %ebx, %r9d                                    #84.37 c89
..LN1190:
	.loc    1  85  is_stmt 1
        vmovaps   %zmm15, %zmm11                                #85.21 c93
..LN1191:
        kmov      %r9d, %k6                                     #85.21 c93
..LN1192:
        vbroadcastsd (%rax), %zmm11{%k6}                        #85.21 c97
..LN1193:
	.loc    1  84  is_stmt 1
        movl      %r13d, %ebx                                   #84.37 c97
..LN1194:
	.loc    1  85  is_stmt 1
        vpcmpd    $4, %zmm11, %zmm15, %k5                       #85.21 c101
..LN1195:
	.loc    1  84  is_stmt 1
        andl      %r14d, %ebx                                   #84.37 c101
..LN1196:
	.loc    1  85  is_stmt 1
        vaddps    1152(%rsp), %zmm12, %zmm19{%k5}               #85.21 c105
..LN1197:
        kmov      %ebx, %k5                                     #85.21 c105
..LN1198:
        vmovaps   %zmm15, %zmm13                                #85.21 c109
..LN1199:
	.loc    1  84  is_stmt 1
        movzbl    %bl, %ebx                                     #84.37 c109
..LN1200:
	.loc    1  85  is_stmt 1
        vbroadcastsd (%rax), %zmm13{%k5}                        #85.21 c113
..LN1201:
        vpcmpd    $4, %zmm13, %zmm15, %k4                       #85.21 c117
..LN1202:
	.loc    1  84  is_stmt 1
        shrl      $8, %r10d                                     #84.37 c121
..LN1203:
        shrl      $8, %r8d                                      #84.37 c125
..LN1204:
	.loc    1  85  is_stmt 1
        vaddps    1216(%rsp), %zmm14, %zmm18{%k4}               #85.21 c129
..LN1205:
	.loc    1  84  is_stmt 1
        andl      %r8d, %r10d                                   #84.37 c129
..LN1206:
	.loc    1  85  is_stmt 1
        vmovaps   %zmm15, %zmm23                                #85.21 c133
..LN1207:
        kmov      %r10d, %k4                                    #85.21 c133
..LN1208:
        vbroadcastsd (%rax), %zmm23{%k4}                        #85.21 c137
..LN1209:
	.loc    1  84  is_stmt 1
        movl      $255, %eax                                    #84.12 c137
..LN1210:
	.loc    1  85  is_stmt 1
        vpcmpd    $4, %zmm23, %zmm15, %k2                       #85.21 c141
..LN1211:
        vaddps    1408(%rsp), %zmm22, %zmm17{%k2}               #85.21 c145
..LN1212:
	.loc    1  84  is_stmt 1
        vpermf32x4 $238, %zmm18, %zmm5                          #84.17 c149
..LN1213:
        vpermf32x4 $238, %zmm17, %zmm8                          #84.17 c153
..LN1214:
        shll      $8, %r9d                                      #84.37 c157
..LN1215:
	.loc    1  86  is_stmt 1
        vmovaps   1088(%rsp), %zmm1                             #86.9 c161
..LN1216:
	.loc    1  84  is_stmt 1
        orl       %r9d, %esi                                    #84.37 c161
..LN1217:
        vpermf32x4 $238, %zmm24, %zmm2                          #84.17 c165
..LN1218:
	.loc    1  86  is_stmt 1
        kmov      %esi, %k3                                     #86.9 c165
..LN1219:
        vpaddd    (%rsp){1to16}, %zmm20, %zmm1{%k3}             #86.9 c169
..LN1220:
	.loc    1  84  is_stmt 1
        vcvtps2pd %zmm18, %zmm4                                 #84.17 c173
..LN1221:
        vcvtps2pd %zmm5, %zmm6                                  #84.17 c177
..LN1222:
	.loc    1  86  is_stmt 1
        vmovaps   %zmm1, 1088(%rsp)                             #86.9 c177
..LN1223:
	.loc    1  84  is_stmt 1
        vcvtps2pd %zmm17, %zmm7                                 #84.17 c181
..LN1224:
        vmovaps   %zmm4, 1600(%rsp)                             #84.17 c181
..LN1225:
        vcvtps2pd %zmm8, %zmm9                                  #84.17 c185
..LN1226:
        vmovaps   %zmm6, 1664(%rsp)                             #84.17 c185
..LN1227:
        vpermf32x4 $238, %zmm19, %zmm3                          #84.17 c189
..LN1228:
        vmovaps   %zmm7, 1536(%rsp)                             #84.17 c189
..LN1229:
        shll      $8, %r10d                                     #84.37 c193
..LN1230:
        vmovaps   %zmm9, 1728(%rsp)                             #84.17 c193
..LN1231:
        vcvtps2pd %zmm24, %zmm1                                 #84.17 c197
..LN1232:
        orl       %r10d, %ebx                                   #84.37 c197
..LN1233:
        vcvtps2pd %zmm2, %zmm2                                  #84.17 c201
..LN1234:
	.loc    1  86  is_stmt 1
        kmov      %ebx, %k1                                     #86.9 c201
..LN1235:
        vpaddd    (%rsp){1to16}, %zmm20, %zmm25{%k1}            #86.9 c205
..LN1236:
	.loc    1  84  is_stmt 1
        kmov      %eax, %k1                                     #84.12 c205
..LN1237:
        vmovaps   1344(%rsp), %zmm0                             #84.12 c209
..LN1238:
        vcvtps2pd %zmm19, %zmm23                                #84.17 c213
..LN1239:
        vcvtps2pd %zmm3, %zmm22                                 #84.17 c217
..LN1240:
        call      __svml_cabs8_mask                             #84.12 c221
..LN1241:
                                # LOE ebx esi edi r12d r13d r14d r15d zmm0 zmm16 zmm17 zmm18 zmm19 zmm20 zmm21 zmm22 zmm23 zmm24 zmm25 zmm26 zmm27 zmm28 zmm29 zmm30 zmm31 k4 k5 k6 k7
..B7.18:                        # Preds ..B7.5 Latency 17
..LN1242:
        vmovaps   %zmm0, 1344(%rsp)                             #84.12 c1
..LN1243:
        movl      $255, %eax                                    #84.12 c1
..LN1244:
        vmovaps   %zmm30, %zmm0                                 #84.12 c5
..LN1245:
        kmov      %eax, %k1                                     #84.12 c5
..LN1246:
        vmovaps   %zmm23, %zmm1                                 #84.12 c9
..LN1247:
        vmovaps   %zmm22, %zmm2                                 #84.12 c13
..LN1248:
        call      __svml_cabs8_mask                             #84.12 c17
..LN1249:
                                # LOE ebx esi edi r12d r13d r14d r15d zmm0 zmm16 zmm17 zmm18 zmm19 zmm20 zmm21 zmm24 zmm25 zmm26 zmm27 zmm28 zmm29 zmm31 k4 k5 k6 k7
..B7.17:                        # Preds ..B7.18 Latency 17
..LN1250:
        vmovaps   %zmm0, %zmm30                                 #84.12 c1
..LN1251:
        movl      $255, %eax                                    #84.12 c1
..LN1252:
        vmovaps   1280(%rsp), %zmm0                             #84.12 c5
..LN1253:
        kmov      %eax, %k1                                     #84.12 c5
..LN1254:
        vmovaps   1600(%rsp), %zmm1                             #84.12 c9
..LN1255:
        vmovaps   1664(%rsp), %zmm2                             #84.12 c13
..LN1256:
        call      __svml_cabs8_mask                             #84.12 c17
..LN1257:
                                # LOE ebx esi edi r12d r13d r14d r15d zmm0 zmm16 zmm17 zmm18 zmm19 zmm20 zmm21 zmm24 zmm25 zmm26 zmm27 zmm28 zmm29 zmm30 zmm31 k4 k5 k6 k7
..B7.16:                        # Preds ..B7.17 Latency 17
..LN1258:
        vmovaps   %zmm0, 1280(%rsp)                             #84.12 c1
..LN1259:
        movl      $255, %eax                                    #84.12 c1
..LN1260:
        vmovaps   %zmm29, %zmm0                                 #84.12 c5
..LN1261:
        kmov      %eax, %k1                                     #84.12 c5
..LN1262:
        vmovaps   1536(%rsp), %zmm1                             #84.12 c9
..LN1263:
        vmovaps   1728(%rsp), %zmm2                             #84.12 c13
..LN1264:
        call      __svml_cabs8_mask                             #84.12 c17
..LN1265:
                                # LOE ebx esi edi r12d r13d r14d r15d zmm0 zmm16 zmm17 zmm18 zmm19 zmm20 zmm21 zmm24 zmm25 zmm26 zmm27 zmm28 zmm30 zmm31 k4 k5 k6 k7
..B7.15:                        # Preds ..B7.16 Latency 78
..LN1266:
        vmovaps   1344(%rsp), %zmm1                             #84.12 c1
..LN1267:
        vmovaps   %zmm0, %zmm29                                 #84.12 c5
..LN1268:
        vmovaps   1280(%rsp), %zmm2                             #84.12 c9
..LN1269:
        vmovapd   %zmm1, %zmm26{%k7}                            #84.12 c13
..LN1270:
        vmovapd   %zmm30, %zmm27{%k6}                           #84.12 c17
..LN1271:
        vmovapd   %zmm2, %zmm28{%k5}                            #84.12 c21
..LN1272:
        vmovapd   %zmm29, %zmm31{%k4}                           #84.12 c25
..LN1273:
        vcmpltpd  %zmm16, %zmm26, %k0                           #84.22 c29
..LN1274:
        vcmpltpd  %zmm16, %zmm27, %k1                           #84.22 c33
..LN1275:
        vcmpltpd  %zmm16, %zmm28, %k2                           #84.22 c37
..LN1276:
        kmov      %k0, %r8d                                     #84.22 c37
..LN1277:
        vcmpltpd  %zmm16, %zmm31, %k3                           #84.22 c41
..LN1278:
        kmov      %k1, %r9d                                     #84.22 c41
..LN1279:
        shll      $8, %r9d                                      #84.22 c45
..LN1280:
        movzbl    %r8b, %r8d                                    #84.22 c45
..LN1281:
        kmov      %k2, %r10d                                    #84.22 c49
..LN1282:
        kmov      %k3, %r11d                                    #84.22 c49
..LN1283:
        shll      $8, %r11d                                     #84.22 c53
..LN1284:
        orl       %r9d, %r8d                                    #84.22 c53
..LN1285:
        movzbl    %r10b, %r10d                                  #84.22 c57
..LN1286:
        andl      %r8d, %esi                                    #84.22 c57
..LN1287:
        orl       %r11d, %r10d                                  #84.22 c61
..LN1288:
        andl      %esi, %r15d                                   #84.5 c61
..LN1289:
        andl      %r10d, %ebx                                   #84.22 c65
..LN1290:
        andl      %ebx, %r14d                                   #84.5 c69
..LN1291:
        movl      %r15d, %ebx                                   #84.5 c69
..LN1292:
        orl       %r14d, %ebx                                   #84.5 c73
..LN1293:
        cmpw      $0, %bx                                       #84.5 c77
..LN1294:
        jne       ..B7.4        # Prob 50%                      #84.5 c77
..LN1295:
                                # LOE edi r12d r13d r14d r15d zmm16 zmm17 zmm18 zmm19 zmm20 zmm21 zmm24 zmm25 zmm26 zmm27 zmm28 zmm29 zmm30 zmm31
..B7.21:                        # Preds ..B7.15 ..B7.4 Latency 13
..LN1296:
        vpxord    %zmm22, %zmm22, %zmm22                        # c1
..LN1297:
        vmovaps   %zmm25, 1472(%rsp)                            # c1
..LN1298:
        movl      1800(%rsp), %eax                              # c5
..LN1299:
        kmov      %eax, %k4                                     # c9
..LN1300:
        movl      1792(%rsp), %eax                              # c9
..LN1301:
        kmov      %eax, %k5                                     # c13
..LN1302:
        movl      1808(%rsp), %eax                              # c13
	.cfi_restore 109
..LN1303:
        kmov      %eax, %k7                                     #
..LN1304:
        jmp       ..B7.8        # Prob 100%                     # c13
..LN1305:
                                # LOE rbx r12 r13 r15 zmm22 k4 k5 k7
..B7.19:                        # Preds ..B7.1 Latency 1
..LN1306:
	.loc    1  83  is_stmt 1
        kmov      %edi, %k5                                     #83.14 c1
..LN1307:
        kmov      %esi, %k4                                     #83.14 c1
..LN1308:
                                # LOE rbx r12 r13 r15 zmm22 k4 k5 k7
..B7.8:                         # Preds ..B7.21 ..B7.19 ..B7.11 Latency 101
..LN1309:
	.loc    1  85  is_stmt 1
        vpblendmd 1472(%rsp), %zmm22, %zmm1{%k4}                #85.9 c1
..LN1310:
        vpblendmd 1088(%rsp), %zmm22, %zmm0{%k5}                #85.9 c5
..LN1311:
	.loc    1  88  is_stmt 1
        vmovaps   1024(%rsp), %zmm16                            #88.12 c9
	.cfi_restore 86
..LN1312:
        vmovaps   960(%rsp), %zmm17                             #88.12 c13
	.cfi_restore 87
..LN1313:
        vmovaps   896(%rsp), %zmm18                             #88.12 c17
	.cfi_restore 88
..LN1314:
        vmovaps   832(%rsp), %zmm19                             #88.12 c21
	.cfi_restore 89
..LN1315:
        vmovaps   768(%rsp), %zmm20                             #88.12 c25
	.cfi_restore 90
..LN1316:
        vmovaps   64(%rsp), %zmm21                              #88.12 c29
	.cfi_restore 91
..LN1317:
        vmovaps   128(%rsp), %zmm22                             #88.12 c33
	.cfi_restore 92
..LN1318:
        vmovaps   192(%rsp), %zmm23                             #88.12 c37
	.cfi_restore 93
..LN1319:
        vmovaps   256(%rsp), %zmm24                             #88.12 c41
	.cfi_restore 94
..LN1320:
        vmovaps   320(%rsp), %zmm25                             #88.12 c45
	.cfi_restore 95
..LN1321:
        vmovaps   384(%rsp), %zmm26                             #88.12 c49
	.cfi_restore 96
..LN1322:
        vmovaps   448(%rsp), %zmm27                             #88.12 c53
	.cfi_restore 97
..LN1323:
        vmovaps   512(%rsp), %zmm28                             #88.12 c57
	.cfi_restore 98
..LN1324:
        vmovaps   576(%rsp), %zmm29                             #88.12 c61
	.cfi_restore 99
..LN1325:
        vmovaps   640(%rsp), %zmm30                             #88.12 c65
	.cfi_restore 100
..LN1326:
        vmovaps   704(%rsp), %zmm31                             #88.12 c69
	.cfi_restore 101
..LN1327:
        movb      %al, %al                                      #88.12 c69
..LN1328:
        movl      1816(%rsp), %eax                              #88.12 c73
	.cfi_restore 106
..LN1329:
        kmov      %eax, %k4                                     #88.12
..LN1330:
        movl      1832(%rsp), %eax                              #88.12 c73
	.cfi_restore 107
..LN1331:
        kmov      %eax, %k5                                     #88.12
..LN1332:
        movl      1824(%rsp), %eax                              #88.12 c77
	.cfi_restore 108
..LN1333:
        kmov      %eax, %k6                                     #88.12
..LN1334:
	.loc    1  88  epilogue_begin  is_stmt 1
        addq      $1880, %rsp                                   #88.12
	.cfi_restore 3
..LN1335:
        popq      %rbx                                          #88.12
	.cfi_restore 15
..LN1336:
        popq      %r15                                          #88.12
	.cfi_restore 14
..LN1337:
        popq      %r14                                          #88.12
	.cfi_restore 13
..LN1338:
        popq      %r13                                          #88.12
	.cfi_restore 12
..LN1339:
        popq      %r12                                          #88.12
..LN1340:
        movq      %rbp, %rsp                                    #88.12 c101
..LN1341:
        popq      %rbp                                          #88.12
	.cfi_def_cfa 7, 8
	.cfi_restore 6
..LN1342:
        ret                                                     #88.12
        .align    16,0x90
	.cfi_endproc
..LN1343:
                                # LOE
..LN1344:
# mark_end;
	.type	_ZGVzM32vu_9mandel_v1Cfi,@function
	.size	_ZGVzM32vu_9mandel_v1Cfi,.-_ZGVzM32vu_9mandel_v1Cfi
..LN_ZGVzM32vu_9mandel_v1Cfi.1345:
.LN_ZGVzM32vu_9mandel_v1Cfi:
	.data
# -- End  _ZGVzM32vu_9mandel_v1Cfi
	.text
.L_2__routine_start__Z9mandel_v1Cfi_7:
# -- Begin  _Z9mandel_v1Cfi
	.text
# mark_begin;
# Threads 4
        .align    16,0x90
	.globl _Z9mandel_v1Cfi
# --- mandel_v1(float __complex__, int)
_Z9mandel_v1Cfi:
# parameter 1(c): %zmm0
# parameter 2(max_iter): %edi
..B8.1:                         # Preds ..B8.0 Latency 21
	.cfi_startproc
	.cfi_personality 0x3,__gxx_personality_v0
..___tag_value__Z9mandel_v1Cfi.294:
..L295:
                                                        #82.46
..LN1346:
	.loc    1  82  is_stmt 1
        pushq     %rbp                                          #82.46
	.cfi_def_cfa_offset 16
..LN1347:
        movq      %rsp, %rbp                                    #82.46
	.cfi_def_cfa 6, 16
	.cfi_offset 6, -16
..LN1348:
        andq      $-64, %rsp                                    #82.46
..LN1349:
        vmovaps   %zmm0, %zmm18                                 #82.46 c1
..LN1350:
	.loc    1  83  prologue_end  is_stmt 1
        movl      $1, %esi                                      #83.14 c1
..LN1351:
        vmovaps   %zmm18, %zmm17                                #83.37 c5
..LN1352:
	.loc    1  84  is_stmt 1
        movl      $3, %eax                                      #84.12 c5
..LN1353:
        kmov      %esi, %k5                                     #84.22 c9
..LN1354:
        kmov      %eax, %k4                                     #84.12 c9
..LN1355:
        vcvtps2pd %zmm18, %zmm1{%k4}                            #84.12 c13
..LN1356:
        kmov      %k5, %k1                                      #84.12 c13
..LN1357:
        vbroadcastsd .L_2il0floatpacket.12(%rip), %zmm16{%k5}   #84.22 c17
..LN1358:
        call      __svml_cabs4_mask                             #84.12 c21
..LN1359:
                                # LOE rbx r12 r13 r14 r15 esi edi zmm0 zmm16 zmm17 zmm18 k4 k5
..B8.10:                        # Preds ..B8.1 Latency 9
..LN1360:
        vcmpltpd  .L_2il0floatpacket.12(%rip){1to8}, %zmm0, %k0{%k5} #84.22 c1
..LN1361:
        nop                                                     #84.22 c5
..LN1362:
        jkzd      ..B8.6, %k0   # Prob 10%                      #84.22 c9
..LN1363:
                                # LOE rbx r12 r13 r14 r15 esi edi zmm16 zmm17 zmm18 k4 k5
..B8.3:                         # Preds ..B8.10 ..B8.4 Latency 5
..L300:         # optimization report
                # %s was not vectorized: loop control variable %s was found, but loop iteration count cannot be computed before executing the loop
..LN1364:
        cmpl      %edi, %esi                                    #84.37 c1
..LN1365:
        jge       ..B8.6        # Prob 20%                      #84.37 c5
..LN1366:
                                # LOE rbx r12 r13 r14 r15 esi edi zmm16 zmm17 zmm18 k4 k5
..B8.4:                         # Preds ..B8.3 Latency 41
..LN1367:
	.loc    1  85  is_stmt 1
        vmulps    %zmm17, %zmm17, %zmm3{%k4}                    #85.17 c1
..LN1368:
        movl      $2, %eax                                      #85.17 c1
..LN1369:
        vmulps    %zmm17{cdab}, %zmm17, %zmm2{%k4}              #85.17 c5
..LN1370:
        kmov      %eax, %k2                                     #85.17 c5
..LN1371:
        vsubps    %zmm3{cdab}, %zmm3, %zmm3{%k4}                #85.17 c9
..LN1372:
	.loc    1  84  is_stmt 1
        kmov      %k5, %k1                                      #84.12 c9
..LN1373:
	.loc    1  85  is_stmt 1
        vaddps    %zmm2{cdab}, %zmm2, %zmm3{%k2}                #85.17 c13
..LN1374:
	.loc    1  86  is_stmt 1
        incl      %esi                                          #86.9 c13
..LN1375:
	.loc    1  85  is_stmt 1
        vaddps    %zmm3, %zmm18, %zmm17{%k4}                    #85.21 c17
..LN1376:
	.loc    1  84  is_stmt 1
        nop                                                     #84.12 c21
..LN1377:
        vcvtps2pd %zmm17, %zmm1{%k4}                            #84.12 c25
..LN1378:
        call      __svml_cabs4_mask                             #84.12 c29
..LN1379:
        vcmpltpd  %zmm16, %zmm0, %k0{%k5}                       #84.22 c33
..LN1380:
        nop                                                     #84.22 c37
..LN1381:
        jknzd     ..B8.3, %k0   # Prob 82%                      #84.22 c41
..LN1382:
                                # LOE rbx r12 r13 r14 r15 esi edi zmm16 zmm17 zmm18 k4 k5
..B8.6:                         # Preds ..B8.3 ..B8.4 ..B8.10 Latency 5
..LN1383:
	.loc    1  88  is_stmt 1
        movl      %esi, %eax                                    #88.12 c1
..LN1384:
	.loc    1  88  epilogue_begin  is_stmt 1
        movq      %rbp, %rsp                                    #88.12 c5
..LN1385:
        popq      %rbp                                          #88.12
	.cfi_def_cfa 7, 8
	.cfi_restore 6
..LN1386:
        ret                                                     #88.12
        .align    16,0x90
	.cfi_endproc
..LN1387:
                                # LOE
..LN1388:
# mark_end;
	.type	_Z9mandel_v1Cfi,@function
	.size	_Z9mandel_v1Cfi,.-_Z9mandel_v1Cfi
..LN_Z9mandel_v1Cfi.1389:
.LN_Z9mandel_v1Cfi:
	.data
# -- End  _Z9mandel_v1Cfi
	.text
.L_2__routine_start__ZGVzN32vvu_9mandel_v2ffi_8:
# -- Begin  _ZGVzN32vvu_9mandel_v2ffi
	.text
# mark_begin;
# Threads 4
        .align    16,0x90
	.globl _ZGVzN32vvu_9mandel_v2ffi
# --- mandel_v2..zN32vvu(float, float, int)
_ZGVzN32vvu_9mandel_v2ffi:
# parameter 1: %zmm0
# parameter 2: %zmm1
# parameter 3: %zmm2
# parameter 4: %zmm3
# parameter 5(max_iter): %eax
..B9.1:                         # Preds ..B9.0 Latency 69
	.cfi_startproc
	.cfi_personality 0x3,__gxx_personality_v0
..___tag_value__ZGVzN32vvu_9mandel_v2ffi.308:
..L309:
                                                        #94.1
..LN1390:
	.loc    1  94  is_stmt 1
        pushq     %rbp                                          #94.1
	.cfi_def_cfa_offset 16
..LN1391:
        movq      %rsp, %rbp                                    #94.1
	.cfi_def_cfa 6, 16
	.cfi_offset 6, -16
..LN1392:
        andq      $-64, %rsp                                    #94.1
..LN1393:
        subq      $192, %rsp                                    #94.1 c1
..LN1394:
        movl      %eax, %r8d                                    #94.1 c1
..LN1395:
        vmovaps   %zmm2, %zmm10                                 #94.1 c5
..LN1396:
	.loc    1  96  prologue_end  is_stmt 1
        lea       .L_2il0floatpacket.13(%rip), %rax             #96.28 c5
..LN1397:
	.loc    1  94  is_stmt 1
        vmovaps   %zmm3, %zmm11                                 #94.1 c9
..LN1398:
        vmovaps   %zmm0, %zmm5                                  #94.1 c13
..LN1399:
	.loc    1  96  is_stmt 1
        vmulps    %zmm10, %zmm10, %zmm12                        #96.24 c17
..LN1400:
        vmulps    %zmm11, %zmm11, %zmm13                        #96.24 c21
..LN1401:
        vfmadd231ps %zmm5, %zmm5, %zmm12                        #96.24 c25
..LN1402:
        vfmadd231ps %zmm1, %zmm1, %zmm13                        #96.24 c29
..LN1403:
        vcmpltps  (%rax), %zmm12, %k0                           #96.28 c33
..LN1404:
        vcmpltps  (%rax), %zmm13, %k1                           #96.28 c37
..LN1405:
	.loc    1  95  is_stmt 1
        vmovaps   .L_2il0floatpacket.9(%rip), %zmm6             #95.14 c41
..LN1406:
        vmovaps   %zmm6, %zmm0                                  #95.14 c45
..LN1407:
	.loc    1  96  is_stmt 1
        kmov      %k0, %edi                                     #96.28 c45
..LN1408:
	.loc    1  95  is_stmt 1
        vmovaps   %zmm6, %zmm9                                  #95.14 c49
..LN1409:
	.loc    1  96  is_stmt 1
        kmov      %k1, %ecx                                     #96.28 c49
..LN1410:
	.loc    1  95  is_stmt 1
        vmovaps   %zmm5, %zmm7                                  #95.27 c53
..LN1411:
	.loc    1  96  is_stmt 1
        movl      %edi, %edx                                    #96.28 c53
..LN1412:
	.loc    1  95  is_stmt 1
        vmovaps   %zmm1, %zmm8                                  #95.27 c57
..LN1413:
	.loc    1  96  is_stmt 1
        orl       %ecx, %edx                                    #96.28 c57
..LN1414:
	.loc    1  95  is_stmt 1
        vmovaps   %zmm10, %zmm3                                 #95.34 c61
..LN1415:
        vmovaps   %zmm11, %zmm4                                 #95.34 c65
..LN1416:
	.loc    1  96  is_stmt 1
        vmovaps   (%rax), %zmm2                                 #96.28 c69
..LN1417:
        je        ..B9.7        # Prob 50%                      #96.28 c69
..LN1418:
                                # LOE rbx r12 r13 r14 r15 ecx edi r8d zmm0 zmm1 zmm2 zmm3 zmm4 zmm5 zmm6 zmm7 zmm8 zmm9 zmm10 zmm11 zmm16 zmm17 zmm18 zmm19 zmm20 zmm21 zmm22 zmm23 zmm24 zmm25 zmm26 zmm27 zmm28 zmm29 zmm30 zmm31 k4 k5 k6 k7
..B9.2:                         # Preds ..B9.1 Latency 9
..LN1419:
        vmovaps   %zmm16, 128(%rsp)                             #96.5 c1
..LN1420:
        movl      %edi, %edx                                    #96.5 c1
..LN1421:
        vmovaps   %zmm17, 64(%rsp)                              #96.5 c5
..LN1422:
        movl      %ecx, %esi                                    #96.5 c5
..LN1423:
        xorl      %eax, %eax                                    #96.5 c9
	.cfi_escape 0x10, 0xffffffd6, 0x00, 0x0e, 0x38, 0x1c, 0x0d, 0xc0, 0xff, 0xff, 0xff, 0x1a, 0x0d, 0xc0, 0xff, 0xff, 0xff, 0x22
	.cfi_escape 0x10, 0xffffffd7, 0x00, 0x0e, 0x38, 0x1c, 0x0d, 0xc0, 0xff, 0xff, 0xff, 0x1a, 0x0d, 0x80, 0xff, 0xff, 0xff, 0x22
..LN1424:
                                # LOE rbx r12 r13 r14 r15 eax edx ecx esi edi r8d zmm0 zmm1 zmm2 zmm3 zmm4 zmm5 zmm6 zmm7 zmm8 zmm9 zmm10 zmm11 zmm18 zmm19 zmm20 zmm21 zmm22 zmm23 zmm24 zmm25 zmm26 zmm27 zmm28 zmm29 zmm30 zmm31 k4 k5 k6 k7
..B9.3:                         # Preds ..B9.4 ..B9.2 Latency 5
..L316:         # optimization report
                # LOOP WAS VECTORIZED
                # loop was vectorized along with the enclosing function
..LN1425:
        incl      %eax                                          #96.5 c1
..LN1426:
        cmpl      %r8d, %eax                                    #96.43 c5
..LN1427:
        jge       ..B9.11       # Prob 50%                      #96.43 c5
..LN1428:
                                # LOE rbx r12 r13 r14 r15 eax edx ecx esi edi r8d zmm0 zmm1 zmm2 zmm3 zmm4 zmm5 zmm6 zmm7 zmm8 zmm9 zmm10 zmm11 zmm18 zmm19 zmm20 zmm21 zmm22 zmm23 zmm24 zmm25 zmm26 zmm27 zmm28 zmm29 zmm30 zmm31 k4 k5 k6 k7
..B9.4:                         # Preds ..B9.3 Latency 110
..LN1429:
	.loc    1  98  is_stmt 1
        vmovaps   %zmm7, %zmm12                                 #98.23 c1
..LN1430:
	.loc    1  96  is_stmt 1
        movl      %edi, %r11d                                   #96.43 c1
..LN1431:
	.loc    1  98  is_stmt 1
        vmovaps   %zmm8, %zmm13                                 #98.23 c5
..LN1432:
	.loc    1  96  is_stmt 1
        andl      %edx, %r11d                                   #96.43 c5
..LN1433:
	.loc    1  97  is_stmt 1
        vmovaps   %zmm7, %zmm14                                 #97.37 c9
..LN1434:
	.loc    1  96  is_stmt 1
        movl      %ecx, %r9d                                    #96.43 c9
..LN1435:
	.loc    1  98  is_stmt 1
        vfmadd213ps %zmm5, %zmm7, %zmm12                        #98.23 c13
..LN1436:
	.loc    1  96  is_stmt 1
        andl      %esi, %r9d                                    #96.43 c13
..LN1437:
	.loc    1  97  is_stmt 1
        vmovaps   %zmm8, %zmm16                                 #97.37 c17
..LN1438:
	.loc    1  98  is_stmt 1
        kmov      %r11d, %k1                                    #98.19 c17
..LN1439:
        vmovaps   %zmm3, %zmm7{%k1}                             #98.19 c21
..LN1440:
        kmov      %r9d, %k2                                     #98.19 c21
..LN1441:
        vfmadd213ps %zmm1, %zmm8, %zmm13                        #98.23 c25
..LN1442:
	.loc    1  97  is_stmt 1
        movl      %eax, (%rsp)                                  #97.37 c25
..LN1443:
	.loc    1  98  is_stmt 1
        vmovaps   %zmm4, %zmm8{%k2}                             #98.19 c29
..LN1444:
	.loc    1  97  is_stmt 1
        vaddps    %zmm3, %zmm3, %zmm15                          #97.33 c33
..LN1445:
	.loc    1  98  is_stmt 1
        vfnmadd213ps %zmm12, %zmm3, %zmm7{%k1}                  #98.19 c37
..LN1446:
	.loc    1  99  is_stmt 1
        vmovaps   %zmm14, %zmm3{%k1}                            #99.12 c41
..LN1447:
	.loc    1  97  is_stmt 1
        vaddps    %zmm4, %zmm4, %zmm17                          #97.33 c45
..LN1448:
	.loc    1  98  is_stmt 1
        vfnmadd213ps %zmm13, %zmm4, %zmm8{%k2}                  #98.19 c49
..LN1449:
	.loc    1  99  is_stmt 1
        vmovaps   %zmm16, %zmm4{%k2}                            #99.12 c53
..LN1450:
        vfmadd213ps %zmm10, %zmm15, %zmm3{%k1}                  #99.12 c57
..LN1451:
        vfmadd213ps %zmm11, %zmm17, %zmm4{%k2}                  #99.12 c61
..LN1452:
	.loc    1  96  is_stmt 1
        vmulps    %zmm3, %zmm3, %zmm12                          #96.24 c65
..LN1453:
        vmulps    %zmm4, %zmm4, %zmm13                          #96.24 c69
..LN1454:
        vfmadd231ps %zmm7, %zmm7, %zmm12                        #96.24 c73
..LN1455:
        vfmadd231ps %zmm8, %zmm8, %zmm13                        #96.24 c77
..LN1456:
        vcmpltps  %zmm2, %zmm12, %k0                            #96.28 c81
..LN1457:
        vcmpltps  %zmm2, %zmm13, %k3                            #96.28 c85
..LN1458:
	.loc    1  100  is_stmt 1
        vpaddd    (%rsp){1to16}, %zmm6, %zmm0{%k1}              #100.9 c89
..LN1459:
	.loc    1  96  is_stmt 1
        kmov      %k0, %r10d                                    #96.28 c89
..LN1460:
	.loc    1  100  is_stmt 1
        vpaddd    (%rsp){1to16}, %zmm6, %zmm9{%k2}              #100.9 c93
..LN1461:
	.loc    1  96  is_stmt 1
        andl      %r10d, %r11d                                  #96.28 c93
..LN1462:
        kmov      %k3, %r10d                                    #96.28 c97
..LN1463:
        andl      %r11d, %edx                                   #96.5 c97
..LN1464:
        andl      %r10d, %r9d                                   #96.28 c101
..LN1465:
        andl      %r9d, %esi                                    #96.5 c105
..LN1466:
        movl      %edx, %r9d                                    #96.5 c105
..LN1467:
        orl       %esi, %r9d                                    #96.5 c109
..LN1468:
        jne       ..B9.3        # Prob 50%                      #96.5 c109
..LN1469:
                                # LOE rbx r12 r13 r14 r15 eax edx ecx esi edi r8d zmm0 zmm1 zmm2 zmm3 zmm4 zmm5 zmm6 zmm7 zmm8 zmm9 zmm10 zmm11 zmm18 zmm19 zmm20 zmm21 zmm22 zmm23 zmm24 zmm25 zmm26 zmm27 zmm28 zmm29 zmm30 zmm31 k4 k5 k6 k7
..B9.11:                        # Preds ..B9.4 ..B9.3 Latency 5
..LN1470:
        vmovaps   128(%rsp), %zmm16                             # c1
	.cfi_restore 86
..LN1471:
        vmovaps   64(%rsp), %zmm17                              # c5
	.cfi_restore 87
..LN1472:
                                # LOE rbx r12 r13 r14 r15 zmm0 zmm9 zmm16 zmm17 zmm18 zmm19 zmm20 zmm21 zmm22 zmm23 zmm24 zmm25 zmm26 zmm27 zmm28 zmm29 zmm30 zmm31 k4 k5 k6 k7
..B9.7:                         # Preds ..B9.11 ..B9.1 Latency 5
..LN1473:
	.loc    1  102  is_stmt 1
        vmovaps   %zmm9, %zmm1                                  #102.12 c1
..LN1474:
	.loc    1  102  epilogue_begin  is_stmt 1
        movq      %rbp, %rsp                                    #102.12 c5
..LN1475:
        popq      %rbp                                          #102.12
	.cfi_def_cfa 7, 8
	.cfi_restore 6
..LN1476:
        ret                                                     #102.12
        .align    16,0x90
	.cfi_endproc
..LN1477:
                                # LOE
..LN1478:
# mark_end;
	.type	_ZGVzN32vvu_9mandel_v2ffi,@function
	.size	_ZGVzN32vvu_9mandel_v2ffi,.-_ZGVzN32vvu_9mandel_v2ffi
..LN_ZGVzN32vvu_9mandel_v2ffi.1479:
.LN_ZGVzN32vvu_9mandel_v2ffi:
	.data
# -- End  _ZGVzN32vvu_9mandel_v2ffi
	.text
.L_2__routine_start__ZGVzM32vvu_9mandel_v2ffi_9:
# -- Begin  _ZGVzM32vvu_9mandel_v2ffi
	.text
# mark_begin;
# Threads 4
        .align    16,0x90
	.globl _ZGVzM32vvu_9mandel_v2ffi
# --- mandel_v2..zM32vvu(float, float, int)
_ZGVzM32vvu_9mandel_v2ffi:
# parameter 1: %zmm0
# parameter 2: %zmm1
# parameter 3: %zmm2
# parameter 4: %zmm3
# parameter 5(max_iter): %eax
# parameter 6: %ecx
# parameter 7: %edx
..B10.1:                        # Preds ..B10.0 Latency 25
	.cfi_startproc
	.cfi_personality 0x3,__gxx_personality_v0
..___tag_value__ZGVzM32vvu_9mandel_v2ffi.326:
..L327:
                                                        #94.1
..LN1480:
	.loc    1  94  is_stmt 1
        pushq     %rbp                                          #94.1
	.cfi_def_cfa_offset 16
..LN1481:
        movq      %rsp, %rbp                                    #94.1
	.cfi_def_cfa 6, 16
	.cfi_offset 6, -16
..LN1482:
        andq      $-64, %rsp                                    #94.1
..LN1483:
        subq      $256, %rsp                                    #94.1 c1
..LN1484:
        movl      %ecx, %r8d                                    #94.1 c1
..LN1485:
        vmovaps   %zmm1, %zmm10                                 #94.1 c5
..LN1486:
        movl      %edx, %r9d                                    #94.1 c5
..LN1487:
        vmovaps   %zmm3, %zmm12                                 #94.1 c9
..LN1488:
        movl      %r8d, %edi                                    #94.1 c9
..LN1489:
        vmovaps   %zmm2, %zmm11                                 #94.1 c13
..LN1490:
        orl       %r9d, %edi                                    #94.1 c13
..LN1491:
        vmovaps   %zmm0, %zmm1                                  #94.1 c17
..LN1492:
        movl      %eax, %esi                                    #94.1 c17
..LN1493:
	.loc    1  95  prologue_end  is_stmt 1
        vpxord    %zmm6, %zmm6, %zmm6                           #95.14 c21
..LN1494:
	.loc    1  94  is_stmt 1
        cmpw      $0, %di                                       #94.1 c21
..LN1495:
        je        ..B10.11      # Prob 50%                      #94.1 c25
..LN1496:
                                # LOE rbx r12 r13 r14 r15 esi r8d r9d zmm1 zmm2 zmm3 zmm6 zmm10 zmm11 zmm12 zmm16 zmm17 zmm18 zmm19 zmm20 zmm21 zmm22 zmm23 zmm24 zmm25 zmm26 zmm27 zmm28 zmm29 zmm30 zmm31 k4 k5 k6 k7
..B10.2:                        # Preds ..B10.1 Latency 53
..LN1497:
	.loc    1  96  is_stmt 1
        vmulps    %zmm11, %zmm11, %zmm13                        #96.24 c1
..LN1498:
        lea       .L_2il0floatpacket.13(%rip), %rax             #96.28 c1
..LN1499:
        vmulps    %zmm12, %zmm12, %zmm14                        #96.24 c5
..LN1500:
	.loc    1  95  is_stmt 1
        kmov      %r8d, %k2                                     #95.14 c5
..LN1501:
	.loc    1  96  is_stmt 1
        vfmadd231ps %zmm1, %zmm1, %zmm13                        #96.24 c9
..LN1502:
	.loc    1  95  is_stmt 1
        kmov      %r9d, %k1                                     #95.14 c9
..LN1503:
	.loc    1  96  is_stmt 1
        vfmadd231ps %zmm10, %zmm10, %zmm14                      #96.24 c13
..LN1504:
        vcmpltps  (%rax), %zmm13, %k0                           #96.28 c17
..LN1505:
        vcmpltps  .L_2il0floatpacket.13(%rip), %zmm14, %k3      #96.28 c21
..LN1506:
	.loc    1  95  is_stmt 1
        vmovaps   .L_2il0floatpacket.9(%rip), %zmm7             #95.14 c25
..LN1507:
	.loc    1  96  is_stmt 1
        vmovaps   (%rax), %zmm0                                 #96.28 c29
..LN1508:
        kmov      %k0, %eax                                     #96.28 c29
..LN1509:
	.loc    1  95  is_stmt 1
        vpblendmd %zmm7, %zmm6, %zmm3{%k2}                      #95.14 c33
..LN1510:
	.loc    1  96  is_stmt 1
        andl      %eax, %r8d                                    #96.28 c33
..LN1511:
	.loc    1  95  is_stmt 1
        vpblendmd %zmm7, %zmm6, %zmm2{%k1}                      #95.14 c37
..LN1512:
	.loc    1  96  is_stmt 1
        kmov      %k3, %edx                                     #96.28 c37
..LN1513:
	.loc    1  95  is_stmt 1
        vmovaps   %zmm1, %zmm8                                  #95.27 c41
..LN1514:
	.loc    1  96  is_stmt 1
        andl      %edx, %r9d                                    #96.28 c41
..LN1515:
	.loc    1  95  is_stmt 1
        vmovaps   %zmm10, %zmm9                                 #95.27 c45
..LN1516:
	.loc    1  96  is_stmt 1
        movl      %r8d, %ecx                                    #96.28 c45
..LN1517:
	.loc    1  95  is_stmt 1
        vmovaps   %zmm11, %zmm5                                 #95.34 c49
..LN1518:
	.loc    1  96  is_stmt 1
        orl       %r9d, %ecx                                    #96.28 c49
..LN1519:
	.loc    1  95  is_stmt 1
        vmovaps   %zmm12, %zmm4                                 #95.34 c53
..LN1520:
	.loc    1  96  is_stmt 1
        je        ..B10.8       # Prob 50%                      #96.28 c53
..LN1521:
                                # LOE rbx r12 r13 r14 r15 esi r8d r9d zmm0 zmm1 zmm2 zmm3 zmm4 zmm5 zmm6 zmm7 zmm8 zmm9 zmm10 zmm11 zmm12 zmm16 zmm17 zmm18 zmm19 zmm20 zmm21 zmm22 zmm23 zmm24 zmm25 zmm26 zmm27 zmm28 zmm29 zmm30 zmm31 k1 k2 k4 k5 k6 k7
..B10.3:                        # Preds ..B10.2 Latency 13
..LN1522:
        vmovaps   %zmm29, 64(%rsp)                              #96.5 c1
..LN1523:
        movl      %r8d, %edx                                    #96.5 c1
..LN1524:
        vmovaps   %zmm30, 128(%rsp)                             #96.5 c5
..LN1525:
        movl      %r9d, %ecx                                    #96.5 c5
..LN1526:
        vmovaps   %zmm31, 192(%rsp)                             #96.5 c9
..LN1527:
        xorl      %eax, %eax                                    #96.5 c9
..LN1528:
        kmov      %k7, %edi                                     #96.5 c13
..LN1529:
        movl      %edi, 8(%rsp)                                 #96.5
	.cfi_escape 0x10, 0xffffffe3, 0x00, 0x0e, 0x38, 0x1c, 0x0d, 0xc0, 0xff, 0xff, 0xff, 0x1a, 0x0d, 0x40, 0xff, 0xff, 0xff, 0x22
	.cfi_escape 0x10, 0xffffffe4, 0x00, 0x0e, 0x38, 0x1c, 0x0d, 0xc0, 0xff, 0xff, 0xff, 0x1a, 0x0d, 0x80, 0xff, 0xff, 0xff, 0x22
	.cfi_escape 0x10, 0xffffffe5, 0x00, 0x0e, 0x38, 0x1c, 0x0d, 0xc0, 0xff, 0xff, 0xff, 0x1a, 0x0d, 0xc0, 0xff, 0xff, 0xff, 0x22
	.cfi_escape 0x10, 0xffffffed, 0x00, 0x0e, 0x38, 0x1c, 0x0d, 0xc0, 0xff, 0xff, 0xff, 0x1a, 0x0d, 0x08, 0xff, 0xff, 0xff, 0x22
..LN1530:
                                # LOE rbx r12 r13 r14 r15 eax edx ecx esi r8d r9d zmm0 zmm1 zmm2 zmm3 zmm4 zmm5 zmm6 zmm7 zmm8 zmm9 zmm10 zmm11 zmm12 zmm16 zmm17 zmm18 zmm19 zmm20 zmm21 zmm22 zmm23 zmm24 zmm25 zmm26 zmm27 zmm28 k1 k2 k4 k5 k6
..B10.4:                        # Preds ..B10.5 ..B10.3 Latency 5
..L336:         # optimization report
                # LOOP WAS VECTORIZED
                # loop was vectorized along with the enclosing function
..LN1531:
        incl      %eax                                          #96.5 c1
..LN1532:
        cmpl      %esi, %eax                                    #96.43 c5
..LN1533:
        jge       ..B10.13      # Prob 50%                      #96.43 c5
..LN1534:
                                # LOE rbx r12 r13 r14 r15 eax edx ecx esi r8d r9d zmm0 zmm1 zmm2 zmm3 zmm4 zmm5 zmm6 zmm7 zmm8 zmm9 zmm10 zmm11 zmm12 zmm16 zmm17 zmm18 zmm19 zmm20 zmm21 zmm22 zmm23 zmm24 zmm25 zmm26 zmm27 zmm28 k1 k2 k4 k5 k6
..B10.5:                        # Preds ..B10.4 Latency 110
..LN1535:
	.loc    1  98  is_stmt 1
        vmovaps   %zmm8, %zmm13                                 #98.23 c1
..LN1536:
	.loc    1  96  is_stmt 1
        movl      %r8d, %r11d                                   #96.43 c1
..LN1537:
	.loc    1  97  is_stmt 1
        vmovaps   %zmm8, %zmm15                                 #97.37 c5
..LN1538:
	.loc    1  96  is_stmt 1
        andl      %edx, %r11d                                   #96.43 c5
..LN1539:
	.loc    1  98  is_stmt 1
        vfmadd213ps %zmm1, %zmm8, %zmm13                        #98.23 c9
..LN1540:
        kmov      %r11d, %k3                                    #98.19 c9
..LN1541:
        vmovaps   %zmm5, %zmm8{%k3}                             #98.19 c13
..LN1542:
	.loc    1  96  is_stmt 1
        movl      %r9d, %edi                                    #96.43 c13
..LN1543:
	.loc    1  98  is_stmt 1
        vmovaps   %zmm9, %zmm14                                 #98.23 c17
..LN1544:
	.loc    1  96  is_stmt 1
        andl      %ecx, %edi                                    #96.43 c17
..LN1545:
	.loc    1  97  is_stmt 1
        vaddps    %zmm5, %zmm5, %zmm29                          #97.33 c21
..LN1546:
	.loc    1  98  is_stmt 1
        kmov      %edi, %k7                                     #98.19 c21
..LN1547:
        vfnmadd213ps %zmm13, %zmm5, %zmm8{%k3}                  #98.19 c25
..LN1548:
	.loc    1  97  is_stmt 1
        movl      %eax, (%rsp)                                  #97.37 c25
..LN1549:
	.loc    1  99  is_stmt 1
        vmovaps   %zmm15, %zmm5{%k3}                            #99.12 c29
..LN1550:
	.loc    1  97  is_stmt 1
        vmovaps   %zmm9, %zmm30                                 #97.37 c33
..LN1551:
	.loc    1  98  is_stmt 1
        vfmadd213ps %zmm10, %zmm9, %zmm14                       #98.23 c37
..LN1552:
        vmovaps   %zmm4, %zmm9{%k7}                             #98.19 c41
..LN1553:
	.loc    1  99  is_stmt 1
        vfmadd213ps %zmm11, %zmm29, %zmm5{%k3}                  #99.12 c45
..LN1554:
	.loc    1  97  is_stmt 1
        vaddps    %zmm4, %zmm4, %zmm31                          #97.33 c49
..LN1555:
	.loc    1  98  is_stmt 1
        vfnmadd213ps %zmm14, %zmm4, %zmm9{%k7}                  #98.19 c53
..LN1556:
	.loc    1  99  is_stmt 1
        vmovaps   %zmm30, %zmm4{%k7}                            #99.12 c57
..LN1557:
	.loc    1  96  is_stmt 1
        vmulps    %zmm5, %zmm5, %zmm13                          #96.24 c61
..LN1558:
	.loc    1  99  is_stmt 1
        vfmadd213ps %zmm12, %zmm31, %zmm4{%k7}                  #99.12 c65
..LN1559:
	.loc    1  96  is_stmt 1
        vfmadd231ps %zmm8, %zmm8, %zmm13                        #96.24 c69
..LN1560:
        vmulps    %zmm4, %zmm4, %zmm14                          #96.24 c73
..LN1561:
        vcmpltps  %zmm0, %zmm13, %k0                            #96.28 c77
..LN1562:
        vfmadd231ps %zmm9, %zmm9, %zmm14                        #96.24 c81
..LN1563:
	.loc    1  100  is_stmt 1
        vpaddd    (%rsp){1to16}, %zmm7, %zmm3{%k3}              #100.9 c85
..LN1564:
	.loc    1  96  is_stmt 1
        kmov      %k0, %r10d                                    #96.28 c85
..LN1565:
        vcmpltps  %zmm0, %zmm14, %k0                            #96.28 c89
..LN1566:
        andl      %r10d, %r11d                                  #96.28 c89
..LN1567:
	.loc    1  100  is_stmt 1
        vpaddd    (%rsp){1to16}, %zmm7, %zmm2{%k7}              #100.9 c93
..LN1568:
	.loc    1  96  is_stmt 1
        andl      %r11d, %edx                                   #96.5 c93
..LN1569:
        kmov      %k0, %r10d                                    #96.28 c97
..LN1570:
        andl      %r10d, %edi                                   #96.28 c101
..LN1571:
        andl      %edi, %ecx                                    #96.5 c105
..LN1572:
        movl      %edx, %edi                                    #96.5 c105
..LN1573:
        orl       %ecx, %edi                                    #96.5 c109
..LN1574:
        jne       ..B10.4       # Prob 50%                      #96.5 c109
..LN1575:
                                # LOE rbx r12 r13 r14 r15 eax edx ecx esi r8d r9d zmm0 zmm1 zmm2 zmm3 zmm4 zmm5 zmm6 zmm7 zmm8 zmm9 zmm10 zmm11 zmm12 zmm16 zmm17 zmm18 zmm19 zmm20 zmm21 zmm22 zmm23 zmm24 zmm25 zmm26 zmm27 zmm28 k1 k2 k4 k5 k6
..B10.13:                       # Preds ..B10.5 ..B10.4 Latency 13
..LN1576:
        vmovaps   64(%rsp), %zmm29                              # c1
	.cfi_restore 99
..LN1577:
        vmovaps   128(%rsp), %zmm30                             # c5
	.cfi_restore 100
..LN1578:
        vmovaps   192(%rsp), %zmm31                             # c9
	.cfi_restore 101
..LN1579:
        movb      %al, %al                                      # c9
..LN1580:
        movl      8(%rsp), %eax                                 # c13
	.cfi_restore 109
..LN1581:
        kmov      %eax, %k7                                     #
..LN1582:
        jmp       ..B10.8       # Prob 100%                     # c13
..LN1583:
                                # LOE rbx r12 r13 r14 r15 zmm2 zmm3 zmm6 zmm16 zmm17 zmm18 zmm19 zmm20 zmm21 zmm22 zmm23 zmm24 zmm25 zmm26 zmm27 zmm28 zmm29 zmm30 zmm31 k1 k2 k4 k5 k6 k7
..B10.11:                       # Preds ..B10.1 Latency 1
..LN1584:
	.loc    1  95  is_stmt 1
        kmov      %r8d, %k2                                     #95.14 c1
..LN1585:
        kmov      %r9d, %k1                                     #95.14 c1
..LN1586:
                                # LOE rbx r12 r13 r14 r15 zmm2 zmm3 zmm6 zmm16 zmm17 zmm18 zmm19 zmm20 zmm21 zmm22 zmm23 zmm24 zmm25 zmm26 zmm27 zmm28 zmm29 zmm30 zmm31 k1 k2 k4 k5 k6 k7
..B10.8:                        # Preds ..B10.13 ..B10.11 ..B10.2 Latency 9
..LN1587:
	.loc    1  97  is_stmt 1
        vpblendmd %zmm3, %zmm6, %zmm0{%k2}                      #97.37 c1
..LN1588:
        vpblendmd %zmm2, %zmm6, %zmm1{%k1}                      #97.37 c5
..LN1589:
	.loc    1  102  epilogue_begin  is_stmt 1
        movq      %rbp, %rsp                                    #102.12 c9
..LN1590:
        popq      %rbp                                          #102.12
	.cfi_def_cfa 7, 8
	.cfi_restore 6
..LN1591:
        ret                                                     #102.12
        .align    16,0x90
	.cfi_endproc
..LN1592:
                                # LOE
..LN1593:
# mark_end;
	.type	_ZGVzM32vvu_9mandel_v2ffi,@function
	.size	_ZGVzM32vvu_9mandel_v2ffi,.-_ZGVzM32vvu_9mandel_v2ffi
..LN_ZGVzM32vvu_9mandel_v2ffi.1594:
.LN_ZGVzM32vvu_9mandel_v2ffi:
	.data
# -- End  _ZGVzM32vvu_9mandel_v2ffi
	.text
.L_2__routine_start__Z9mandel_v2ffi_10:
# -- Begin  _Z9mandel_v2ffi
	.text
# mark_begin;
# Threads 4
        .align    16,0x90
	.globl _Z9mandel_v2ffi
# --- mandel_v2(float, float, int)
_Z9mandel_v2ffi:
# parameter 1(x): %zmm0
# parameter 2(y): %zmm1
# parameter 3(max_iter): %edi
..B11.1:                        # Preds ..B11.0 Latency 29
	.cfi_startproc
	.cfi_personality 0x3,__gxx_personality_v0
..___tag_value__Z9mandel_v2ffi.348:
..L349:
                                                        #94.1
..LN1595:
	.loc    1  94  is_stmt 1
        vmovaps   %zmm1, %zmm4                                  #94.1 c1
..LN1596:
	.loc    1  95  prologue_end  is_stmt 1
        movl      $1, %eax                                      #95.14 c1
..LN1597:
	.loc    1  94  is_stmt 1
        vmovaps   %zmm0, %zmm3                                  #94.1 c5
..LN1598:
	.loc    1  96  is_stmt 1
        kmov      %eax, %k1                                     #96.28 c5
..LN1599:
        vmulps    %zmm4, %zmm4, %zmm5{%k1}                      #96.24 c9
..LN1600:
        vfmadd231ps %zmm3, %zmm3, %zmm5{%k1}                    #96.5 c13
..LN1601:
        vcmpltps  .L_2il0floatpacket.14(%rip){1to16}, %zmm5, %k0{%k1} #96.28 c17
..LN1602:
	.loc    1  95  is_stmt 1
        vmovaps   %zmm3, %zmm2                                  #95.29 c21
..LN1603:
	.loc    1  96  is_stmt 1
        vbroadcastss .L_2il0floatpacket.14(%rip), %zmm0{%k1}    #96.28 c25
..LN1604:
        jkzd      ..B11.6, %k0  # Prob 10%                      #96.28 c29
..LN1605:
                                # LOE rbx rbp r12 r13 r14 r15 eax edi zmm0 zmm1 zmm2 zmm3 zmm4 k1
..B11.3:                        # Preds ..B11.1 ..B11.4 Latency 5
..L351:         # optimization report
                # %s was not vectorized: loop control variable %s was found, but loop iteration count cannot be computed before executing the loop
..LN1606:
        cmpl      %edi, %eax                                    #96.43 c1
..LN1607:
        jge       ..B11.6       # Prob 20%                      #96.43 c5
..LN1608:
                                # LOE rbx rbp r12 r13 r14 r15 eax edi zmm0 zmm1 zmm2 zmm3 zmm4 k1
..B11.4:                        # Preds ..B11.3 Latency 41
..LN1609:
        vmovaps   %zmm2, %zmm5                                  #96.5 c1
..LN1610:
	.loc    1  100  is_stmt 1
        incl      %eax                                          #100.9 c1
..LN1611:
	.loc    1  98  is_stmt 1
        vfmadd213ps %zmm3, %zmm2, %zmm2{%k1}                    #98.3 c5
..LN1612:
	.loc    1  97  is_stmt 1
        vaddps    %zmm1, %zmm1, %zmm6{%k1}                      #97.33 c9
..LN1613:
	.loc    1  98  is_stmt 1
        vfnmadd231ps %zmm1, %zmm1, %zmm2{%k1}                   #98.3 c13
..LN1614:
	.loc    1  99  is_stmt 1
        vmovaps   %zmm5, %zmm1                                  #99.3 c17
..LN1615:
        vfmadd213ps %zmm4, %zmm6, %zmm1{%k1}                    #99.3 c21
..LN1616:
	.loc    1  96  is_stmt 1
        vmulps    %zmm1, %zmm1, %zmm7{%k1}                      #96.24 c25
..LN1617:
        vfmadd231ps %zmm2, %zmm2, %zmm7{%k1}                    #96.5 c29
..LN1618:
        vcmpltps  %zmm0, %zmm7, %k0{%k1}                        #96.28 c33
..LN1619:
        nop                                                     #96.28 c37
..LN1620:
        jknzd     ..B11.3, %k0  # Prob 82%                      #96.28 c41
..LN1621:
                                # LOE rbx rbp r12 r13 r14 r15 eax edi zmm0 zmm1 zmm2 zmm3 zmm4 k1
..B11.6:                        # Preds ..B11.3 ..B11.4 ..B11.1 Latency 5
..LN1622:
	.loc    1  102  epilogue_begin  is_stmt 1
        ret                                                     #102.12 c5
        .align    16,0x90
	.cfi_endproc
..LN1623:
                                # LOE
..LN1624:
# mark_end;
	.type	_Z9mandel_v2ffi,@function
	.size	_Z9mandel_v2ffi,.-_Z9mandel_v2ffi
..LN_Z9mandel_v2ffi.1625:
.LN_Z9mandel_v2ffi:
	.data
# -- End  _Z9mandel_v2ffi
	.text
.L_2__routine_start__ZGVzN32vvu_9mandel_v3ffi_11:
# -- Begin  _ZGVzN32vvu_9mandel_v3ffi
	.text
# mark_begin;
# Threads 4
        .align    16,0x90
	.globl _ZGVzN32vvu_9mandel_v3ffi
# --- mandel_v3..zN32vvu(float, float, int)
_ZGVzN32vvu_9mandel_v3ffi:
# parameter 1: %zmm0
# parameter 2: %zmm1
# parameter 3: %zmm2
# parameter 4: %zmm3
# parameter 5(max_iter): %eax
..B12.1:                        # Preds ..B12.0 Latency 69
	.cfi_startproc
	.cfi_personality 0x3,__gxx_personality_v0
..___tag_value__ZGVzN32vvu_9mandel_v3ffi.357:
..L358:
                                                        #108.1
..LN1626:
	.loc    1  108  prologue_end  is_stmt 1
        movl      %eax, %r8d                                    #108.1 c1
..LN1627:
        vmovaps   %zmm3, %zmm4                                  #108.1 c5
..LN1628:
	.loc    1  110  is_stmt 1
        lea       .L_2il0floatpacket.13(%rip), %rax             #110.28 c5
..LN1629:
	.loc    1  108  is_stmt 1
        vmovaps   %zmm2, %zmm3                                  #108.1 c9
..LN1630:
	.loc    1  110  is_stmt 1
        vmulps    %zmm3, %zmm3, %zmm5                           #110.24 c13
..LN1631:
	.loc    1  108  is_stmt 1
        vmovaps   %zmm1, %zmm2                                  #108.1 c17
..LN1632:
	.loc    1  110  is_stmt 1
        vmulps    %zmm4, %zmm4, %zmm7                           #110.24 c21
..LN1633:
        vfmadd231ps %zmm0, %zmm0, %zmm5                         #110.24 c25
..LN1634:
        vfmadd231ps %zmm2, %zmm2, %zmm7                         #110.24 c29
..LN1635:
        vcmpltps  (%rax), %zmm5, %k0                            #110.28 c33
..LN1636:
        vcmpltps  (%rax), %zmm7, %k1                            #110.28 c37
..LN1637:
	.loc    1  109  is_stmt 1
        vmovaps   .L_2il0floatpacket.9(%rip), %zmm12            #109.14 c41
..LN1638:
        vmovaps   %zmm12, %zmm11                                #109.14 c45
..LN1639:
	.loc    1  110  is_stmt 1
        kmov      %k0, %edi                                     #110.28 c45
..LN1640:
	.loc    1  109  is_stmt 1
        vmovaps   %zmm12, %zmm1                                 #109.14 c49
..LN1641:
	.loc    1  110  is_stmt 1
        kmov      %k1, %ecx                                     #110.28 c49
..LN1642:
	.loc    1  109  is_stmt 1
        vmovaps   %zmm0, %zmm13                                 #109.27 c53
..LN1643:
	.loc    1  110  is_stmt 1
        movl      %edi, %edx                                    #110.28 c53
..LN1644:
	.loc    1  109  is_stmt 1
        vmovaps   %zmm2, %zmm14                                 #109.27 c57
..LN1645:
	.loc    1  110  is_stmt 1
        orl       %ecx, %edx                                    #110.28 c57
..LN1646:
	.loc    1  109  is_stmt 1
        vmovaps   %zmm3, %zmm15                                 #109.34 c61
..LN1647:
        vmovaps   %zmm4, %zmm8                                  #109.34 c65
..LN1648:
	.loc    1  110  is_stmt 1
        vmovaps   (%rax), %zmm6                                 #110.28 c69
..LN1649:
        je        ..B12.7       # Prob 50%                      #110.28 c69
..LN1650:
                                # LOE rbx rbp r12 r13 r14 r15 ecx edi r8d zmm0 zmm1 zmm2 zmm3 zmm4 zmm6 zmm8 zmm11 zmm12 zmm13 zmm14 zmm15 zmm16 zmm17 zmm18 zmm19 zmm20 zmm21 zmm22 zmm23 zmm24 zmm25 zmm26 zmm27 zmm28 zmm29 zmm30 zmm31 k4 k5 k6 k7
..B12.2:                        # Preds ..B12.1 Latency 5
..LN1651:
        movl      %edi, %edx                                    #110.5 c1
..LN1652:
        movl      %ecx, %esi                                    #110.5 c1
..LN1653:
        xorl      %eax, %eax                                    #110.5 c5
..LN1654:
                                # LOE rbx rbp r12 r13 r14 r15 eax edx ecx esi edi r8d zmm0 zmm1 zmm2 zmm3 zmm4 zmm6 zmm8 zmm11 zmm12 zmm13 zmm14 zmm15 zmm16 zmm17 zmm18 zmm19 zmm20 zmm21 zmm22 zmm23 zmm24 zmm25 zmm26 zmm27 zmm28 zmm29 zmm30 zmm31 k4 k5 k6 k7
..B12.3:                        # Preds ..B12.4 ..B12.2 Latency 5
..L360:         # optimization report
                # LOOP WAS VECTORIZED
                # loop was vectorized along with the enclosing function
..LN1655:
        incl      %eax                                          #110.5 c1
..LN1656:
        cmpl      %r8d, %eax                                    #110.43 c5
..LN1657:
        jge       ..B12.7       # Prob 50%                      #110.43 c5
..LN1658:
                                # LOE rbx rbp r12 r13 r14 r15 eax edx ecx esi edi r8d zmm0 zmm1 zmm2 zmm3 zmm4 zmm6 zmm8 zmm11 zmm12 zmm13 zmm14 zmm15 zmm16 zmm17 zmm18 zmm19 zmm20 zmm21 zmm22 zmm23 zmm24 zmm25 zmm26 zmm27 zmm28 zmm29 zmm30 zmm31 k4 k5 k6 k7
..B12.4:                        # Preds ..B12.3 Latency 101
..LN1659:
	.loc    1  112  is_stmt 1
        vmovaps   %zmm13, %zmm5                                 #112.36 c1
..LN1660:
	.loc    1  110  is_stmt 1
        movl      %edi, %r11d                                   #110.43 c1
..LN1661:
	.loc    1  112  is_stmt 1
        vmovaps   %zmm14, %zmm10                                #112.36 c5
..LN1662:
	.loc    1  110  is_stmt 1
        andl      %edx, %r11d                                   #110.43 c5
..LN1663:
	.loc    1  112  is_stmt 1
        vfmadd213ps %zmm0, %zmm13, %zmm5                        #112.36 c9
..LN1664:
	.loc    1  110  is_stmt 1
        movl      %ecx, %r9d                                    #110.43 c9
..LN1665:
	.loc    1  112  is_stmt 1
        vfmadd213ps %zmm2, %zmm14, %zmm10                       #112.36 c13
..LN1666:
	.loc    1  110  is_stmt 1
        andl      %esi, %r9d                                    #110.43 c13
..LN1667:
	.loc    1  111  is_stmt 1
        vaddps    %zmm15, %zmm15, %zmm9                         #111.27 c17
..LN1668:
	.loc    1  113  is_stmt 1
        kmov      %r11d, %k1                                    #113.3 c17
..LN1669:
	.loc    1  112  is_stmt 1
        vfnmadd231ps %zmm15, %zmm15, %zmm5                      #112.32 c21
..LN1670:
	.loc    1  113  is_stmt 1
        kmov      %r9d, %k2                                     #113.3 c21
..LN1671:
	.loc    1  111  is_stmt 1
        vaddps    %zmm8, %zmm8, %zmm7                           #111.27 c25
..LN1672:
        movl      %eax, -8(%rsp)                                #111.35 c25
..LN1673:
	.loc    1  112  is_stmt 1
        vfnmadd231ps %zmm8, %zmm8, %zmm10                       #112.32 c29
..LN1674:
	.loc    1  111  is_stmt 1
        vfmadd213ps %zmm3, %zmm13, %zmm9                        #111.35 c33
..LN1675:
	.loc    1  109  is_stmt 1
        vmovaps   %zmm5, %zmm13{%k1}                            #109.27 c37
..LN1676:
	.loc    1  110  is_stmt 1
        vmulps    %zmm5, %zmm5, %zmm5                           #110.16 c41
..LN1677:
	.loc    1  111  is_stmt 1
        vfmadd213ps %zmm4, %zmm14, %zmm7                        #111.35 c45
..LN1678:
	.loc    1  109  is_stmt 1
        vmovaps   %zmm10, %zmm14{%k2}                           #109.27 c49
..LN1679:
	.loc    1  110  is_stmt 1
        vmulps    %zmm10, %zmm10, %zmm10                        #110.16 c53
..LN1680:
	.loc    1  109  is_stmt 1
        vmovaps   %zmm9, %zmm15{%k1}                            #109.34 c57
..LN1681:
	.loc    1  110  is_stmt 1
        vfmadd213ps %zmm5, %zmm9, %zmm9                         #110.24 c61
..LN1682:
	.loc    1  109  is_stmt 1
        vmovaps   %zmm7, %zmm8{%k2}                             #109.34 c65
..LN1683:
	.loc    1  110  is_stmt 1
        vfmadd213ps %zmm10, %zmm7, %zmm7                        #110.24 c69
..LN1684:
        vcmpltps  %zmm6, %zmm9, %k0                             #110.28 c73
..LN1685:
        vcmpltps  %zmm6, %zmm7, %k3                             #110.28 c77
..LN1686:
	.loc    1  113  is_stmt 1
        vpaddd    -8(%rsp){1to16}, %zmm12, %zmm11{%k1}          #113.3 c81
..LN1687:
	.loc    1  110  is_stmt 1
        kmov      %k0, %r10d                                    #110.28 c81
..LN1688:
	.loc    1  113  is_stmt 1
        vpaddd    -8(%rsp){1to16}, %zmm12, %zmm1{%k2}           #113.3 c85
..LN1689:
	.loc    1  110  is_stmt 1
        andl      %r10d, %r11d                                  #110.28 c85
..LN1690:
        kmov      %k3, %r10d                                    #110.28 c89
..LN1691:
        andl      %r11d, %edx                                   #110.5 c89
..LN1692:
        andl      %r10d, %r9d                                   #110.28 c93
..LN1693:
        andl      %r9d, %esi                                    #110.5 c97
..LN1694:
        movl      %edx, %r9d                                    #110.5 c97
..LN1695:
        orl       %esi, %r9d                                    #110.5 c101
..LN1696:
        jne       ..B12.3       # Prob 50%                      #110.5 c101
..LN1697:
                                # LOE rbx rbp r12 r13 r14 r15 eax edx ecx esi edi r8d zmm0 zmm1 zmm2 zmm3 zmm4 zmm6 zmm8 zmm11 zmm12 zmm13 zmm14 zmm15 zmm16 zmm17 zmm18 zmm19 zmm20 zmm21 zmm22 zmm23 zmm24 zmm25 zmm26 zmm27 zmm28 zmm29 zmm30 zmm31 k4 k5 k6 k7
..B12.7:                        # Preds ..B12.4 ..B12.3 ..B12.1 Latency 5
..LN1698:
	.loc    1  117  is_stmt 1
        vmovaps   %zmm11, %zmm0                                 #117.12 c1
..LN1699:
	.loc    1  117  epilogue_begin  is_stmt 1
        ret                                                     #117.12 c5
        .align    16,0x90
	.cfi_endproc
..LN1700:
                                # LOE
..LN1701:
# mark_end;
	.type	_ZGVzN32vvu_9mandel_v3ffi,@function
	.size	_ZGVzN32vvu_9mandel_v3ffi,.-_ZGVzN32vvu_9mandel_v3ffi
..LN_ZGVzN32vvu_9mandel_v3ffi.1702:
.LN_ZGVzN32vvu_9mandel_v3ffi:
	.data
# -- End  _ZGVzN32vvu_9mandel_v3ffi
	.text
.L_2__routine_start__ZGVzM32vvu_9mandel_v3ffi_12:
# -- Begin  _ZGVzM32vvu_9mandel_v3ffi
	.text
# mark_begin;
# Threads 4
        .align    16,0x90
	.globl _ZGVzM32vvu_9mandel_v3ffi
# --- mandel_v3..zM32vvu(float, float, int)
_ZGVzM32vvu_9mandel_v3ffi:
# parameter 1: %zmm0
# parameter 2: %zmm1
# parameter 3: %zmm2
# parameter 4: %zmm3
# parameter 5(max_iter): %eax
# parameter 6: %ecx
# parameter 7: %edx
..B13.1:                        # Preds ..B13.0 Latency 25
	.cfi_startproc
	.cfi_personality 0x3,__gxx_personality_v0
..___tag_value__ZGVzM32vvu_9mandel_v3ffi.365:
..L366:
                                                        #108.1
..LN1703:
	.loc    1  108  is_stmt 1
        pushq     %rbp                                          #108.1
	.cfi_def_cfa_offset 16
..LN1704:
        movq      %rsp, %rbp                                    #108.1
	.cfi_def_cfa 6, 16
	.cfi_offset 6, -16
..LN1705:
        andq      $-64, %rsp                                    #108.1
..LN1706:
        subq      $128, %rsp                                    #108.1 c1
..LN1707:
        movl      %ecx, %r8d                                    #108.1 c1
..LN1708:
        vmovaps   %zmm2, %zmm11                                 #108.1 c5
..LN1709:
        movl      %edx, %r9d                                    #108.1 c5
..LN1710:
        vmovaps   %zmm3, %zmm12                                 #108.1 c9
..LN1711:
        movl      %r8d, %edi                                    #108.1 c9
..LN1712:
        vmovaps   %zmm1, %zmm10                                 #108.1 c13
..LN1713:
        orl       %r9d, %edi                                    #108.1 c13
..LN1714:
        vmovaps   %zmm0, %zmm2                                  #108.1 c17
..LN1715:
        movl      %eax, %esi                                    #108.1 c17
..LN1716:
	.loc    1  109  prologue_end  is_stmt 1
        vpxord    %zmm4, %zmm4, %zmm4                           #109.14 c21
..LN1717:
	.loc    1  108  is_stmt 1
        cmpw      $0, %di                                       #108.1 c21
..LN1718:
        je        ..B13.11      # Prob 50%                      #108.1 c25
..LN1719:
                                # LOE rbx r12 r13 r14 r15 esi r8d r9d zmm2 zmm3 zmm4 zmm5 zmm10 zmm11 zmm12 zmm16 zmm17 zmm18 zmm19 zmm20 zmm21 zmm22 zmm23 zmm24 zmm25 zmm26 zmm27 zmm28 zmm29 zmm30 zmm31 k4 k5 k6 k7
..B13.2:                        # Preds ..B13.1 Latency 53
..LN1720:
	.loc    1  110  is_stmt 1
        vmulps    %zmm11, %zmm11, %zmm13                        #110.24 c1
..LN1721:
        lea       .L_2il0floatpacket.13(%rip), %rax             #110.28 c1
..LN1722:
        vmulps    %zmm12, %zmm12, %zmm14                        #110.24 c5
..LN1723:
	.loc    1  109  is_stmt 1
        kmov      %r8d, %k2                                     #109.14 c5
..LN1724:
	.loc    1  110  is_stmt 1
        vfmadd231ps %zmm2, %zmm2, %zmm13                        #110.24 c9
..LN1725:
	.loc    1  109  is_stmt 1
        kmov      %r9d, %k1                                     #109.14 c9
..LN1726:
	.loc    1  110  is_stmt 1
        vfmadd231ps %zmm10, %zmm10, %zmm14                      #110.24 c13
..LN1727:
        vcmpltps  (%rax), %zmm13, %k0                           #110.28 c17
..LN1728:
        vcmpltps  .L_2il0floatpacket.13(%rip), %zmm14, %k3      #110.28 c21
..LN1729:
	.loc    1  109  is_stmt 1
        vmovaps   .L_2il0floatpacket.9(%rip), %zmm6             #109.14 c25
..LN1730:
	.loc    1  110  is_stmt 1
        vmovaps   (%rax), %zmm0                                 #110.28 c29
..LN1731:
        kmov      %k0, %eax                                     #110.28 c29
..LN1732:
	.loc    1  109  is_stmt 1
        vpblendmd %zmm6, %zmm4, %zmm5{%k2}                      #109.14 c33
..LN1733:
	.loc    1  110  is_stmt 1
        andl      %eax, %r8d                                    #110.28 c33
..LN1734:
	.loc    1  109  is_stmt 1
        vpblendmd %zmm6, %zmm4, %zmm3{%k1}                      #109.14 c37
..LN1735:
	.loc    1  110  is_stmt 1
        kmov      %k3, %edx                                     #110.28 c37
..LN1736:
	.loc    1  109  is_stmt 1
        vmovaps   %zmm2, %zmm7                                  #109.27 c41
..LN1737:
	.loc    1  110  is_stmt 1
        andl      %edx, %r9d                                    #110.28 c41
..LN1738:
	.loc    1  109  is_stmt 1
        vmovaps   %zmm10, %zmm8                                 #109.27 c45
..LN1739:
	.loc    1  110  is_stmt 1
        movl      %r8d, %ecx                                    #110.28 c45
..LN1740:
	.loc    1  109  is_stmt 1
        vmovaps   %zmm11, %zmm9                                 #109.34 c49
..LN1741:
	.loc    1  110  is_stmt 1
        orl       %r9d, %ecx                                    #110.28 c49
..LN1742:
	.loc    1  109  is_stmt 1
        vmovaps   %zmm12, %zmm1                                 #109.34 c53
..LN1743:
	.loc    1  110  is_stmt 1
        je        ..B13.8       # Prob 50%                      #110.28 c53
..LN1744:
                                # LOE rbx r12 r13 r14 r15 esi r8d r9d zmm0 zmm1 zmm2 zmm3 zmm4 zmm5 zmm6 zmm7 zmm8 zmm9 zmm10 zmm11 zmm12 zmm16 zmm17 zmm18 zmm19 zmm20 zmm21 zmm22 zmm23 zmm24 zmm25 zmm26 zmm27 zmm28 zmm29 zmm30 zmm31 k1 k2 k4 k5 k6 k7
..B13.3:                        # Preds ..B13.2 Latency 9
..LN1745:
        vmovaps   %zmm31, 64(%rsp)                              #110.5 c1
..LN1746:
        movl      %r8d, %edx                                    #110.5 c1
..LN1747:
        movl      %r9d, %ecx                                    #110.5 c5
..LN1748:
        xorl      %eax, %eax                                    #110.5 c5
..LN1749:
        kmov      %k7, %edi                                     #110.5 c9
..LN1750:
        movl      %edi, 8(%rsp)                                 #110.5
	.cfi_escape 0x10, 0xffffffe5, 0x00, 0x0e, 0x38, 0x1c, 0x0d, 0xc0, 0xff, 0xff, 0xff, 0x1a, 0x0d, 0xc0, 0xff, 0xff, 0xff, 0x22
	.cfi_escape 0x10, 0xffffffed, 0x00, 0x0e, 0x38, 0x1c, 0x0d, 0xc0, 0xff, 0xff, 0xff, 0x1a, 0x0d, 0x88, 0xff, 0xff, 0xff, 0x22
..LN1751:
                                # LOE rbx r12 r13 r14 r15 eax edx ecx esi r8d r9d zmm0 zmm1 zmm2 zmm3 zmm4 zmm5 zmm6 zmm7 zmm8 zmm9 zmm10 zmm11 zmm12 zmm16 zmm17 zmm18 zmm19 zmm20 zmm21 zmm22 zmm23 zmm24 zmm25 zmm26 zmm27 zmm28 zmm29 zmm30 k1 k2 k4 k5 k6
..B13.4:                        # Preds ..B13.5 ..B13.3 Latency 5
..L373:         # optimization report
                # LOOP WAS VECTORIZED
                # loop was vectorized along with the enclosing function
..LN1752:
        incl      %eax                                          #110.5 c1
..LN1753:
        cmpl      %esi, %eax                                    #110.43 c5
..LN1754:
        jge       ..B13.13      # Prob 50%                      #110.43 c5
..LN1755:
                                # LOE rbx r12 r13 r14 r15 eax edx ecx esi r8d r9d zmm0 zmm1 zmm2 zmm3 zmm4 zmm5 zmm6 zmm7 zmm8 zmm9 zmm10 zmm11 zmm12 zmm16 zmm17 zmm18 zmm19 zmm20 zmm21 zmm22 zmm23 zmm24 zmm25 zmm26 zmm27 zmm28 zmm29 zmm30 k1 k2 k4 k5 k6
..B13.5:                        # Preds ..B13.4 Latency 98
..LN1756:
	.loc    1  112  is_stmt 1
        vmovaps   %zmm7, %zmm13                                 #112.36 c1
..LN1757:
	.loc    1  110  is_stmt 1
        movl      %r8d, %r11d                                   #110.43 c1
..LN1758:
	.loc    1  112  is_stmt 1
        vfmadd213ps %zmm2, %zmm7, %zmm13                        #112.36 c5
..LN1759:
	.loc    1  110  is_stmt 1
        andl      %edx, %r11d                                   #110.43 c5
..LN1760:
	.loc    1  112  is_stmt 1
        vmovaps   %zmm8, %zmm31                                 #112.36 c9
..LN1761:
	.loc    1  113  is_stmt 1
        kmov      %r11d, %k3                                    #113.3 c9
..LN1762:
	.loc    1  111  is_stmt 1
        vaddps    %zmm9, %zmm9, %zmm15                          #111.27 c13
..LN1763:
	.loc    1  110  is_stmt 1
        movl      %r9d, %edi                                    #110.43 c13
..LN1764:
	.loc    1  112  is_stmt 1
        vfnmadd231ps %zmm9, %zmm9, %zmm13                       #112.32 c17
..LN1765:
	.loc    1  110  is_stmt 1
        andl      %ecx, %edi                                    #110.43 c17
..LN1766:
	.loc    1  112  is_stmt 1
        vfmadd213ps %zmm10, %zmm8, %zmm31                       #112.36 c21
..LN1767:
	.loc    1  113  is_stmt 1
        kmov      %edi, %k7                                     #113.3 c21
..LN1768:
	.loc    1  111  is_stmt 1
        vfmadd213ps %zmm11, %zmm7, %zmm15                       #111.35 c25
..LN1769:
        movl      %eax, (%rsp)                                  #111.35 c25
..LN1770:
	.loc    1  109  is_stmt 1
        vmovaps   %zmm13, %zmm7{%k3}                            #109.27 c29
..LN1771:
	.loc    1  110  is_stmt 1
        vmulps    %zmm13, %zmm13, %zmm13                        #110.16 c33
..LN1772:
	.loc    1  111  is_stmt 1
        vaddps    %zmm1, %zmm1, %zmm14                          #111.27 c37
..LN1773:
	.loc    1  112  is_stmt 1
        vfnmadd231ps %zmm1, %zmm1, %zmm31                       #112.32 c41
..LN1774:
	.loc    1  109  is_stmt 1
        vmovaps   %zmm15, %zmm9{%k3}                            #109.34 c45
..LN1775:
	.loc    1  110  is_stmt 1
        vfmadd213ps %zmm13, %zmm15, %zmm15                      #110.24 c49
..LN1776:
	.loc    1  111  is_stmt 1
        vfmadd213ps %zmm12, %zmm8, %zmm14                       #111.35 c53
..LN1777:
	.loc    1  109  is_stmt 1
        vmovaps   %zmm31, %zmm8{%k7}                            #109.27 c57
..LN1778:
	.loc    1  110  is_stmt 1
        vmulps    %zmm31, %zmm31, %zmm31                        #110.16 c61
..LN1779:
        vcmpltps  %zmm0, %zmm15, %k0                            #110.28 c65
..LN1780:
	.loc    1  109  is_stmt 1
        vmovaps   %zmm14, %zmm1{%k7}                            #109.34 c69
..LN1781:
	.loc    1  110  is_stmt 1
        vfmadd213ps %zmm31, %zmm14, %zmm14                      #110.24 c73
..LN1782:
        kmov      %k0, %r10d                                    #110.28 c73
..LN1783:
        vcmpltps  %zmm0, %zmm14, %k0                            #110.28 c77
..LN1784:
        andl      %r10d, %r11d                                  #110.28 c77
..LN1785:
	.loc    1  113  is_stmt 1
        vpaddd    (%rsp){1to16}, %zmm6, %zmm5{%k3}              #113.3 c81
..LN1786:
	.loc    1  110  is_stmt 1
        andl      %r11d, %edx                                   #110.5 c81
..LN1787:
	.loc    1  113  is_stmt 1
        vpaddd    (%rsp){1to16}, %zmm6, %zmm3{%k7}              #113.3 c85
..LN1788:
	.loc    1  110  is_stmt 1
        kmov      %k0, %r10d                                    #110.28 c85
..LN1789:
        andl      %r10d, %edi                                   #110.28 c89
..LN1790:
        andl      %edi, %ecx                                    #110.5 c93
..LN1791:
        movl      %edx, %edi                                    #110.5 c93
..LN1792:
        orl       %ecx, %edi                                    #110.5 c97
..LN1793:
        jne       ..B13.4       # Prob 50%                      #110.5 c97
..LN1794:
                                # LOE rbx r12 r13 r14 r15 eax edx ecx esi r8d r9d zmm0 zmm1 zmm2 zmm3 zmm4 zmm5 zmm6 zmm7 zmm8 zmm9 zmm10 zmm11 zmm12 zmm16 zmm17 zmm18 zmm19 zmm20 zmm21 zmm22 zmm23 zmm24 zmm25 zmm26 zmm27 zmm28 zmm29 zmm30 k1 k2 k4 k5 k6
..B13.13:                       # Preds ..B13.5 ..B13.4 Latency 5
..LN1795:
        vmovaps   64(%rsp), %zmm31                              # c1
	.cfi_restore 101
..LN1796:
        movb      %al, %al                                      # c1
..LN1797:
        movl      8(%rsp), %eax                                 # c5
	.cfi_restore 109
..LN1798:
        kmov      %eax, %k7                                     #
..LN1799:
        jmp       ..B13.8       # Prob 100%                     # c5
..LN1800:
                                # LOE rbx r12 r13 r14 r15 zmm3 zmm4 zmm5 zmm16 zmm17 zmm18 zmm19 zmm20 zmm21 zmm22 zmm23 zmm24 zmm25 zmm26 zmm27 zmm28 zmm29 zmm30 zmm31 k1 k2 k4 k5 k6 k7
..B13.11:                       # Preds ..B13.1 Latency 1
..LN1801:
	.loc    1  109  is_stmt 1
        kmov      %r8d, %k2                                     #109.14 c1
..LN1802:
        kmov      %r9d, %k1                                     #109.14 c1
..LN1803:
                                # LOE rbx r12 r13 r14 r15 zmm3 zmm4 zmm5 zmm16 zmm17 zmm18 zmm19 zmm20 zmm21 zmm22 zmm23 zmm24 zmm25 zmm26 zmm27 zmm28 zmm29 zmm30 zmm31 k1 k2 k4 k5 k6 k7
..B13.8:                        # Preds ..B13.13 ..B13.11 ..B13.2 Latency 9
..LN1804:
	.loc    1  111  is_stmt 1
        vpblendmd %zmm5, %zmm4, %zmm0{%k2}                      #111.35 c1
..LN1805:
        vpblendmd %zmm3, %zmm4, %zmm1{%k1}                      #111.35 c5
..LN1806:
	.loc    1  117  epilogue_begin  is_stmt 1
        movq      %rbp, %rsp                                    #117.12 c9
..LN1807:
        popq      %rbp                                          #117.12
	.cfi_def_cfa 7, 8
	.cfi_restore 6
..LN1808:
        ret                                                     #117.12
        .align    16,0x90
	.cfi_endproc
..LN1809:
                                # LOE
..LN1810:
# mark_end;
	.type	_ZGVzM32vvu_9mandel_v3ffi,@function
	.size	_ZGVzM32vvu_9mandel_v3ffi,.-_ZGVzM32vvu_9mandel_v3ffi
..LN_ZGVzM32vvu_9mandel_v3ffi.1811:
.LN_ZGVzM32vvu_9mandel_v3ffi:
	.data
# -- End  _ZGVzM32vvu_9mandel_v3ffi
	.text
.L_2__routine_start__Z9mandel_v3ffi_13:
# -- Begin  _Z9mandel_v3ffi
	.text
# mark_begin;
# Threads 4
        .align    16,0x90
	.globl _Z9mandel_v3ffi
# --- mandel_v3(float, float, int)
_Z9mandel_v3ffi:
# parameter 1(x): %zmm0
# parameter 2(y): %zmm1
# parameter 3(max_iter): %edi
..B14.1:                        # Preds ..B14.0 Latency 29
	.cfi_startproc
	.cfi_personality 0x3,__gxx_personality_v0
..___tag_value__Z9mandel_v3ffi.383:
..L384:
                                                        #108.1
..LN1812:
	.loc    1  108  is_stmt 1
        vmovaps   %zmm1, %zmm4                                  #108.1 c1
..LN1813:
	.loc    1  109  prologue_end  is_stmt 1
        movl      $1, %eax                                      #109.14 c1
..LN1814:
	.loc    1  108  is_stmt 1
        vmovaps   %zmm0, %zmm3                                  #108.1 c5
..LN1815:
	.loc    1  110  is_stmt 1
        kmov      %eax, %k1                                     #110.28 c5
..LN1816:
        vmulps    %zmm4, %zmm4, %zmm5{%k1}                      #110.24 c9
..LN1817:
        vfmadd231ps %zmm3, %zmm3, %zmm5{%k1}                    #110.5 c13
..LN1818:
        vcmpltps  .L_2il0floatpacket.14(%rip){1to16}, %zmm5, %k0{%k1} #110.28 c17
..LN1819:
	.loc    1  109  is_stmt 1
        vmovaps   %zmm3, %zmm2                                  #109.29 c21
..LN1820:
	.loc    1  110  is_stmt 1
        vbroadcastss .L_2il0floatpacket.14(%rip), %zmm0{%k1}    #110.28 c25
..LN1821:
        jkzd      ..B14.6, %k0  # Prob 10%                      #110.28 c29
..LN1822:
                                # LOE rbx rbp r12 r13 r14 r15 eax edi zmm0 zmm1 zmm2 zmm3 zmm4 k1
..B14.3:                        # Preds ..B14.1 ..B14.4 Latency 5
..L386:         # optimization report
                # %s was not vectorized: loop control variable %s was found, but loop iteration count cannot be computed before executing the loop
..LN1823:
        cmpl      %edi, %eax                                    #110.43 c1
..LN1824:
        jge       ..B14.6       # Prob 20%                      #110.43 c5
..LN1825:
                                # LOE rbx rbp r12 r13 r14 r15 eax edi zmm0 zmm1 zmm2 zmm3 zmm4 k1
..B14.4:                        # Preds ..B14.3 Latency 37
..LN1826:
	.loc    1  111  is_stmt 1
        vaddps    %zmm1, %zmm1, %zmm6{%k1}                      #111.27 c1
..LN1827:
	.loc    1  113  is_stmt 1
        incl      %eax                                          #113.3 c1
..LN1828:
	.loc    1  111  is_stmt 1
        vfmadd213ps %zmm4, %zmm2, %zmm6{%k1}                    #111.35 c5
..LN1829:
	.loc    1  112  is_stmt 1
        vfmadd213ps %zmm3, %zmm2, %zmm2{%k1}                    #112.36 c9
..LN1830:
        vfnmadd231ps %zmm1, %zmm1, %zmm2{%k1}                   #112.36 c13
..LN1831:
	.loc    1  110  is_stmt 1
        vmulps    %zmm2, %zmm2, %zmm5{%k1}                      #110.16 c17
..LN1832:
	.loc    1  115  is_stmt 1
        vmovaps   %zmm6, %zmm1                                  #115.9 c21
..LN1833:
	.loc    1  110  is_stmt 1
        vfmadd213ps %zmm5, %zmm6, %zmm6{%k1}                    #110.5 c25
..LN1834:
        vcmpltps  %zmm0, %zmm6, %k0{%k1}                        #110.28 c29
..LN1835:
        nop                                                     #110.28 c33
..LN1836:
        jknzd     ..B14.3, %k0  # Prob 82%                      #110.28 c37
..LN1837:
                                # LOE rbx rbp r12 r13 r14 r15 eax edi zmm0 zmm1 zmm2 zmm3 zmm4 k1
..B14.6:                        # Preds ..B14.3 ..B14.4 ..B14.1 Latency 5
..LN1838:
	.loc    1  117  epilogue_begin  is_stmt 1
        ret                                                     #117.12 c5
        .align    16,0x90
	.cfi_endproc
..LN1839:
                                # LOE
..LN1840:
# mark_end;
	.type	_Z9mandel_v3ffi,@function
	.size	_Z9mandel_v3ffi,.-_Z9mandel_v3ffi
..LN_Z9mandel_v3ffi.1841:
.LN_Z9mandel_v3ffi:
	.data
# -- End  _Z9mandel_v3ffi
	.text
.L_2__routine_start__Z6scalarPfll_14:
# -- Begin  _Z6scalarPfll, L__Z6scalarPfll_161__par_loop1_2.15, __offload_entry_mandelbrot_cpp_160scalar_5097a5de766e9892892df6b4df3fffaeicc010935439037PRjdkN, L__Z6scalarPfll_160__par_region0_2.16
	.text
# mark_begin;
# Threads 4
        .align    16,0x90
__offload_entry_mandelbrot_cpp_160scalar_5097a5de766e9892892df6b4df3fffaeicc010935439037PRjdkN:
# parameter 1: %rdi
..B15.1:                        # Preds ..B15.0 Latency 21
	.cfi_startproc
	.cfi_personality 0x3,__gxx_personality_v0
..___tag_value__Z6scalarPfll.392:
..L393:
                                                        #160.5
..LN1842:
	.loc    1  160  is_stmt 1
        pushq     %rbp                                          #160.5
	.cfi_def_cfa_offset 16
..LN1843:
        movq      %rsp, %rbp                                    #160.5
	.cfi_def_cfa 6, 16
	.cfi_offset 6, -16
..LN1844:
        andq      $-64, %rsp                                    #160.5
..LN1845:
        subq      $512, %rsp                                    #160.5 c1
..LN1846:
        movq      %r15, 400(%rsp)                               #160.5 c5
	.cfi_escape 0x10, 0x0f, 0x0e, 0x38, 0x1c, 0x0d, 0xc0, 0xff, 0xff, 0xff, 0x1a, 0x0d, 0x90, 0xff, 0xff, 0xff, 0x22
..LN1847:
        movq      %rdi, %r15                                    #160.5 c5
..LN1848:
        movl      $.2.39_2_kmpc_loc_struct_pack.56, %edi        #160.5 c9
..LN1849:
        movq      %rbx, 432(%rsp)                               #160.5 c9
..LN1850:
        movq      %r14, 408(%rsp)                               #160.5 c13
..LN1851:
        movq      %r13, 416(%rsp)                               #160.5 c13
..LN1852:
        movq      %r12, 424(%rsp)                               #160.5 c17
..LN1853:
        call      __kmpc_global_thread_num                      #160.5 c21
	.cfi_escape 0x10, 0x03, 0x0e, 0x38, 0x1c, 0x0d, 0xc0, 0xff, 0xff, 0xff, 0x1a, 0x0d, 0xb0, 0xff, 0xff, 0xff, 0x22
	.cfi_escape 0x10, 0x0c, 0x0e, 0x38, 0x1c, 0x0d, 0xc0, 0xff, 0xff, 0xff, 0x1a, 0x0d, 0xa8, 0xff, 0xff, 0xff, 0x22
	.cfi_escape 0x10, 0x0d, 0x0e, 0x38, 0x1c, 0x0d, 0xc0, 0xff, 0xff, 0xff, 0x1a, 0x0d, 0xa0, 0xff, 0xff, 0xff, 0x22
	.cfi_escape 0x10, 0x0e, 0x0e, 0x38, 0x1c, 0x0d, 0xc0, 0xff, 0xff, 0xff, 0x1a, 0x0d, 0x98, 0xff, 0xff, 0xff, 0x22
..LN1854:
                                # LOE r15 eax
..B15.41:                       # Preds ..B15.1 Latency 85
..LN1855:
	.loc    1  160  prologue_end  is_stmt 1
        vmovaps   .2.39_2__offload_var_desc1_p.74(%rip), %zmm0  #160.5 c1
..LN1856:
        vmovaps   64+.2.39_2__offload_var_desc1_p.74(%rip), %zmm1 #160.5 c5
..LN1857:
        vmovaps   128+.2.39_2__offload_var_desc1_p.74(%rip), %zmm2 #160.5 c9
..LN1858:
        vmovaps   192+.2.39_2__offload_var_desc1_p.74(%rip), %zmm3 #160.5 c13
..LN1859:
        vmovaps   256+.2.39_2__offload_var_desc1_p.74(%rip), %zmm4 #160.5 c17
..LN1860:
        vmovaps   .2.39_2__offload_var_desc2_p.79(%rip), %zmm5  #160.5 c21
..LN1861:
        lea       (%rsp), %rdx                                  #160.5 c25
..LN1862:
        lea       320(%rsp), %rcx                               #160.5 c25
..LN1863:
        vmovaps   %zmm0, (%rdx)                                 #160.5 c29
..LN1864:
        movq      64+.2.39_2__offload_var_desc2_p.79(%rip), %rbx #160.5 c29
..LN1865:
        vmovaps   %zmm1, 64(%rdx)                               #160.5 c33
..LN1866:
        movq      72+.2.39_2__offload_var_desc2_p.79(%rip), %r12 #160.5 c33
..LN1867:
        vmovaps   %zmm2, 128(%rdx)                              #160.5 c37
..LN1868:
        lea       440(%rsp), %r13                               #160.5 c37
..LN1869:
        vmovaps   %zmm3, 192(%rdx)                              #160.5 c41
..LN1870:
        lea       472(%rsp), %r14                               #160.5 c41
..LN1871:
        vmovaps   %zmm4, 256(%rdx)                              #160.5 c45
..LN1872:
        movq      %r15, %rdi                                    #160.5 c45
..LN1873:
        vmovaps   %zmm5, (%rcx)                                 #160.5 c49
..LN1874:
        movl      $5, %esi                                      #160.5 c49
..LN1875:
        movl      %eax, 464(%rsp)                               #160.5 c53
..LN1876:
        xorl      %eax, %eax                                    #160.5 c53
..LN1877:
        movq      %rbx, 64(%rcx)                                #160.5 c57
..LN1878:
        movq      %r12, 72(%rcx)                                #160.5 c57
..LN1879:
        movq      %r13, 56(%rdx)                                #160.5 c61
..LN1880:
        lea       448(%rsp), %rbx                               #160.5 c61
..LN1881:
        lea       468(%rsp), %r12                               #160.5 c65
..LN1882:
        lea       456(%rsp), %r13                               #160.5 c65
..LN1883:
        movq      %rbx, 120(%rdx)                               #160.5 c69
..LN1884:
        movb      %al, %al                                      #160.5 c69
..LN1885:
        movq      %r12, 184(%rdx)                               #160.5 c73
..LN1886:
        movb      %al, %al                                      #160.5 c73
..LN1887:
        movq      %r13, 248(%rdx)                               #160.5 c77
..LN1888:
        movb      %bl, %bl                                      #160.5 c77
..LN1889:
        movq      %r14, 312(%rdx)                               #160.5 c81
..___tag_value__Z6scalarPfll.403:
..LN1890:
        call      __offload_target_enter                        #160.5
..___tag_value__Z6scalarPfll.404:
..LN1891:
                                # LOE rbx r12 r13 r14 r15
..B15.2:                        # Preds ..B15.41 Latency 17
..LN1892:
        addq      $-16, %rsp                                    #160.5 c1
..LN1893:
        movl      $___kmpv_zero_Z6scalarPfll_0, %esi            #160.5 c1
..LN1894:
        lea       480(%rsp), %rdi                               #160.5 c5
..LN1895:
        lea       456(%rsp), %rdx                               #160.5 c5
..LN1896:
        movq      %rbx, %rcx                                    #160.5 c9
..LN1897:
        movq      %r12, %r8                                     #160.5 c9
..LN1898:
        movq      %r13, %r9                                     #160.5 c13
..LN1899:
        movq      %r14, (%rsp)                                  #160.5 c13
..___tag_value__Z6scalarPfll.405:
..LN1900:
        call      L__Z6scalarPfll_160__par_region0_2.16         #160.5
..___tag_value__Z6scalarPfll.406:
..LN1901:
                                # LOE r15
..B15.42:                       # Preds ..B15.2 Latency 1
..LN1902:
        addq      $16, %rsp                                     #160.5 c1
..LN1903:
                                # LOE r15
..B15.3:                        # Preds ..B15.42 Latency 5
..LN1904:
        movq      %r15, %rdi                                    #160.5 c1
..LN1905:
        xorl      %eax, %eax                                    #160.5 c1
..___tag_value__Z6scalarPfll.407:
..LN1906:
        call      __offload_target_leave                        #160.5
..___tag_value__Z6scalarPfll.408:
..LN1907:
                                # LOE
..B15.4:                        # Preds ..B15.3 Latency 13
..LN1908:
        movq      400(%rsp), %r15                               #160.5 c1
	.cfi_restore 15
..LN1909:
        movq      408(%rsp), %r14                               #160.5 c1
	.cfi_restore 14
..LN1910:
        movq      416(%rsp), %r13                               #160.5 c5
	.cfi_restore 13
..LN1911:
        movq      424(%rsp), %r12                               #160.5 c5
	.cfi_restore 12
..LN1912:
        movq      432(%rsp), %rbx                               #160.5 c9
	.cfi_restore 3
..LN1913:
	.loc    1  160  epilogue_begin  is_stmt 1
        movq      %rbp, %rsp                                    #160.5 c13
..LN1914:
        popq      %rbp                                          #160.5
	.cfi_def_cfa 7, 8
	.cfi_restore 6
..LN1915:
        ret                                                     #160.5
	.cfi_def_cfa 6, 16
..LN1916:
                                # LOE
	.type	__offload_entry_mandelbrot_cpp_160scalar_5097a5de766e9892892df6b4df3fffaeicc010935439037PRjdkN,@function
	.size	__offload_entry_mandelbrot_cpp_160scalar_5097a5de766e9892892df6b4df3fffaeicc010935439037PRjdkN,.-__offload_entry_mandelbrot_cpp_160scalar_5097a5de766e9892892df6b4df3fffaeicc010935439037PRjdkN
	.globl _Z6scalarPfll
_Z6scalarPfll:
# parameter 1(A): %rdi
# parameter 2(N): %rsi
# parameter 3(M): %rdx
..B15.5:                        # Preds ..B15.0 Latency 29
..LN1917:
	.loc    1  153  is_stmt 1
        pushq     %rbp                                          #153.1
	.cfi_def_cfa 7, 16
..LN1918:
        movq      %rsp, %rbp                                    #153.1
	.cfi_def_cfa 6, 16
	.cfi_offset 6, -16
..LN1919:
        andq      $-64, %rsp                                    #153.1
..LN1920:
        subq      $512, %rsp                                    #153.1 c1
..LN1921:
        movq      %rbx, 432(%rsp)                               #153.1 c5
..LN1922:
        movq      %r15, 400(%rsp)                               #153.1 c5
..LN1923:
        movq      %r14, 408(%rsp)                               #153.1 c9
..LN1924:
        movq      %r13, 416(%rsp)                               #153.1 c9
..LN1925:
        movq      %r12, 424(%rsp)                               #153.1 c13
..LN1926:
        movq      400(%rsp), %r15                               #153.1 c13
	.cfi_escape 0x10, 0x03, 0x0e, 0x38, 0x1c, 0x0d, 0xc0, 0xff, 0xff, 0xff, 0x1a, 0x0d, 0xb0, 0xff, 0xff, 0xff, 0x22
	.cfi_escape 0x10, 0x0c, 0x0e, 0x38, 0x1c, 0x0d, 0xc0, 0xff, 0xff, 0xff, 0x1a, 0x0d, 0xa8, 0xff, 0xff, 0xff, 0x22
	.cfi_escape 0x10, 0x0d, 0x0e, 0x38, 0x1c, 0x0d, 0xc0, 0xff, 0xff, 0xff, 0x1a, 0x0d, 0xa0, 0xff, 0xff, 0xff, 0x22
	.cfi_escape 0x10, 0x0e, 0x0e, 0x38, 0x1c, 0x0d, 0xc0, 0xff, 0xff, 0xff, 0x1a, 0x0d, 0x98, 0xff, 0xff, 0xff, 0x22
..LN1927:
        movq      408(%rsp), %r14                               #153.1 c17
	.cfi_restore 14
..LN1928:
        movq      416(%rsp), %r13                               #153.1 c17
	.cfi_restore 13
..LN1929:
        movq      424(%rsp), %r12                               #153.1 c21
	.cfi_restore 12
..LN1930:
        movq      432(%rsp), %rbx                               #153.1 c21
	.cfi_restore 3
..LN1931:
	.loc    1  153  epilogue_begin  is_stmt 1
        movq      %rbp, %rsp                                    #153.1 c29
..LN1932:
        popq      %rbp                                          #153.1
	.cfi_def_cfa 7, 8
	.cfi_restore 6
..LN1933:
        ret                                                     #153.1
	.cfi_def_cfa 6, 16
..LN1934:
                                # LOE
L__Z6scalarPfll_161__par_loop1_2.15:
# parameter 1: %rdi
# parameter 2: %rsi
# parameter 3: %rdx
# parameter 4: %rcx
# parameter 5: %r8
# parameter 6: %r9
# parameter 7: 16 + %rbp
..B15.6:                        # Preds ..B15.0 Latency 25
..LN1935:
	.loc    1  161  prologue_end  is_stmt 1
        pushq     %rbp                                          #161.5
	.cfi_def_cfa 7, 16
..LN1936:
        movq      %rsp, %rbp                                    #161.5
	.cfi_def_cfa 6, 16
	.cfi_offset 6, -16
..LN1937:
        andq      $-64, %rsp                                    #161.5
..LN1938:
        subq      $512, %rsp                                    #161.5 c1
..LN1939:
        movq      %r12, 424(%rsp)                               #161.5 c5
	.cfi_escape 0x10, 0x0c, 0x0e, 0x38, 0x1c, 0x0d, 0xc0, 0xff, 0xff, 0xff, 0x1a, 0x0d, 0xa8, 0xff, 0xff, 0xff, 0x22
..LN1940:
        movq      %r8, %r12                                     #161.5 c5
..LN1941:
        movq      (%rdx), %r8                                   #161.5 c9
..LN1942:
        movq      %rbx, 432(%rsp)                               #161.5 c9
..LN1943:
        movq      %r15, 400(%rsp)                               #161.5 c13
	.cfi_escape 0x10, 0x03, 0x0e, 0x38, 0x1c, 0x0d, 0xc0, 0xff, 0xff, 0xff, 0x1a, 0x0d, 0xb0, 0xff, 0xff, 0xff, 0x22
	.cfi_escape 0x10, 0x0f, 0x0e, 0x38, 0x1c, 0x0d, 0xc0, 0xff, 0xff, 0xff, 0x1a, 0x0d, 0x90, 0xff, 0xff, 0xff, 0x22
..LN1944:
        movq      %rcx, %rbx                                    #161.5 c13
..LN1945:
        movq      %r14, 408(%rsp)                               #161.5 c17
..LN1946:
	.loc    1  162  prologue_end  is_stmt 1
        testq     %r8, %r8                                      #162.33 c17
..LN1947:
	.loc    1  161  is_stmt 1
        movq      %r13, 416(%rsp)                               #161.5 c21
	.cfi_escape 0x10, 0x0d, 0x0e, 0x38, 0x1c, 0x0d, 0xc0, 0xff, 0xff, 0xff, 0x1a, 0x0d, 0xa0, 0xff, 0xff, 0xff, 0x22
	.cfi_escape 0x10, 0x0e, 0x0e, 0x38, 0x1c, 0x0d, 0xc0, 0xff, 0xff, 0xff, 0x1a, 0x0d, 0x98, 0xff, 0xff, 0xff, 0x22
..LN1948:
        movl      (%rdi), %r13d                                 #161.5 c21
..LN1949:
        movq      (%r9), %r14                                   #161.5 c25
..LN1950:
	.loc    1  162  is_stmt 1
        jle       ..B15.12      # Prob 10%                      #162.33 c25
..LN1951:
                                # LOE rbx r8 r12 r14 r13d
..B15.7:                        # Preds ..B15.6 Latency 33
..LN1952:
	.loc    1  161  is_stmt 1
        xorl      %r15d, %r15d                                  #161.5 c1
..LN1953:
        decq      %r8                                           #161.5 c1
..LN1954:
        movl      $1, %r10d                                     #161.5 c5
..LN1955:
        movl      %r15d, 72(%rsp)                               #161.5 c5
..LN1956:
        movl      %r8d, 76(%rsp)                                #161.5 c9
..LN1957:
        movl      $.2.39_2_kmpc_loc_struct_pack.27, %edi        #161.5 c9
..LN1958:
        movl      %r15d, 80(%rsp)                               #161.5 c13
..LN1959:
        movl      %r13d, %esi                                   #161.5 c13
..LN1960:
        movl      %r10d, 84(%rsp)                               #161.5 c17
..LN1961:
        addq      $-16, %rsp                                    #161.5 c17
..LN1962:
        movl      $35, %edx                                     #161.5 c21
..LN1963:
        xorl      %ecx, %ecx                                    #161.5 c21
..LN1964:
        movl      %r10d, %r9d                                   #161.5 c25
..LN1965:
        xorl      %eax, %eax                                    #161.5 c25
..LN1966:
        movl      %r10d, (%rsp)                                 #161.5 c29
..___tag_value__Z6scalarPfll.445:
..LN1967:
        call      __kmpc_dispatch_init_4                        #161.5
..___tag_value__Z6scalarPfll.446:
..LN1968:
                                # LOE rbx r12 r14 r13d r15d
..B15.43:                       # Preds ..B15.7 Latency 1
..LN1969:
        addq      $16, %rsp                                     #161.5 c1
..LN1970:
                                # LOE rbx r12 r14 r13d r15d
..B15.8:                        # Preds ..B15.43 Latency 49
..LN1971:
        movq      16(%rbp), %rax                                #161.5 c1
..LN1972:
	.loc    1  163  is_stmt 1
        xorl      %edx, %edx                                    #163.24 c1
..LN1973:
        incl      %edx                                          #163.24
..LN1974:
        kmov      %edx, %k1                                     #163.24 c5
..LN1975:
	.loc    1  161  is_stmt 1
        lea       80(%rsp), %rdx                                #161.5 c5
..LN1976:
	.loc    1  163  is_stmt 1
        vbroadcastss (%rbx), %zmm3{%k1}                         #163.24 c9
..LN1977:
	.loc    1  161  is_stmt 1
        lea       -8(%rdx), %rcx                                #161.5 c9
..LN1978:
	.loc    1  168  is_stmt 1
        vbroadcastss (%rax), %zmm2{%k1}                         #168.34 c13
..LN1979:
	.loc    1  174  is_stmt 1
        lea       (,%r14,4), %rax                               #174.13 c13
..LN1980:
	.loc    1  163  is_stmt 1
        vbroadcastss .L_2il0floatpacket.17(%rip), %zmm1{%k1}    #163.19 c17
..LN1981:
	.loc    1  127  is_stmt 1
        vbroadcastss .L_2il0floatpacket.14(%rip), %zmm0{%k1}    #127.28 c21
..LN1982:
	.loc    1  161  is_stmt 1
        vpackstorelps %zmm1, -72(%rdx){%k1}                     #161.5 c25
..LN1983:
	.loc    1  164  is_stmt 1
        movq      (%r12), %rdi                                  #164.45 c25
..LN1984:
	.loc    1  161  is_stmt 1
        vpackstorelps %zmm0, (%rsp){%k1}                        #161.5 c29
..LN1985:
        lea       -4(%rdx), %rbx                                #161.5 c29
..LN1986:
        vpackstorelps %zmm2, -64(%rdx){%k1}                     #161.5 c33
..LN1987:
        lea       4(%rdx), %r12                                 #161.5 c33
..LN1988:
        vpackstorelps %zmm3, -56(%rdx){%k1}                     #161.5 c37
..LN1989:
        movb      %cl, %cl                                      #161.5 c37
..LN1990:
        movq      %rax, -24(%rdx)                               #161.5 c41
..LN1991:
        movq      %r14, -32(%rdx)                               #161.5 c41
..LN1992:
        movq      %rdi, -16(%rdx)                               #161.5 c45
..LN1993:
        movq      %rdx, %r14                                    #161.5 c45
..LN1994:
        movl      %r13d, -40(%rdx)                              #161.5 c49
..LN1995:
        movq      %rcx, %r13                                    #161.5 c49
..LN1996:
        jmp       ..B15.9       # Prob 100%                     #161.5 c49
..LN1997:
                                # LOE rbx r12 r13 r14 r15d
..B15.24:                       # Preds ..B15.23 Latency 6
..LN1998:
        lea       84(%rsp), %r12                                # c1
..LN1999:
        lea       76(%rsp), %rbx                                # c1
..LN2000:
        lea       72(%rsp), %r13                                # c5
..LN2001:
        lea       80(%rsp), %r14                                # c5
..LN2002:
                                # LOE rbx r12 r13 r14 r15d
..B15.9:                        # Preds ..B15.24 ..B15.8 Latency 17
..L447:         # optimization report
                # %s was not vectorized: loop control variable was not identified. Explicitly compute the iteration count before executing the loop or try using canonical loop form
..LN2003:
        movl      $.2.39_2_kmpc_loc_struct_pack.27, %edi        #161.5 c1
..LN2004:
        movl      40(%rsp), %esi                                #161.5 c5
..LN2005:
        movq      %r14, %rdx                                    #161.5 c5
..LN2006:
        movq      %r13, %rcx                                    #161.5 c9
..LN2007:
        movq      %rbx, %r8                                     #161.5 c9
..LN2008:
        movq      %r12, %r9                                     #161.5 c13
..LN2009:
        xorl      %eax, %eax                                    #161.5 c13
..___tag_value__Z6scalarPfll.448:
..LN2010:
        call      __kmpc_dispatch_next_4                        #161.5
..___tag_value__Z6scalarPfll.449:
..LN2011:
                                # LOE rbx r12 r13 r14 eax r15d
..B15.10:                       # Preds ..B15.9 Latency 5
..LN2012:
        movl      72(%rsp), %edx                                #161.5 c1
..LN2013:
        testl     %eax, %eax                                    #161.5 c1
..LN2014:
        movl      76(%rsp), %r11d                               #161.5 c5
..LN2015:
        jne       ..B15.13      # Prob 50%                      #161.5 c5
..LN2016:
                                # LOE rbx r12 r13 r14 edx r11d r15d
..B15.12:                       # Preds ..B15.10 ..B15.6 Latency 13
..LN2017:
        movq      400(%rsp), %r15                               #161.5 c1
	.cfi_restore 15
..LN2018:
        movq      408(%rsp), %r14                               #161.5 c1
	.cfi_restore 14
..LN2019:
        movq      416(%rsp), %r13                               #161.5 c5
	.cfi_restore 13
..LN2020:
        movq      424(%rsp), %r12                               #161.5 c5
	.cfi_restore 12
..LN2021:
        movq      432(%rsp), %rbx                               #161.5 c9
	.cfi_restore 3
..LN2022:
	.loc    1  161  epilogue_begin  is_stmt 1
        movq      %rbp, %rsp                                    #161.5 c13
..LN2023:
        popq      %rbp                                          #161.5
	.cfi_def_cfa 7, 8
	.cfi_restore 6
..LN2024:
        ret                                                     #161.5
	.cfi_def_cfa 6, 16
	.cfi_escape 0x10, 0x03, 0x0e, 0x38, 0x1c, 0x0d, 0xc0, 0xff, 0xff, 0xff, 0x1a, 0x0d, 0xb0, 0xff, 0xff, 0xff, 0x22
	.cfi_offset 6, -16
	.cfi_escape 0x10, 0x0c, 0x0e, 0x38, 0x1c, 0x0d, 0xc0, 0xff, 0xff, 0xff, 0x1a, 0x0d, 0xa8, 0xff, 0xff, 0xff, 0x22
	.cfi_escape 0x10, 0x0d, 0x0e, 0x38, 0x1c, 0x0d, 0xc0, 0xff, 0xff, 0xff, 0x1a, 0x0d, 0xa0, 0xff, 0xff, 0xff, 0x22
	.cfi_escape 0x10, 0x0e, 0x0e, 0x38, 0x1c, 0x0d, 0xc0, 0xff, 0xff, 0xff, 0x1a, 0x0d, 0x98, 0xff, 0xff, 0xff, 0x22
	.cfi_escape 0x10, 0x0f, 0x0e, 0x38, 0x1c, 0x0d, 0xc0, 0xff, 0xff, 0xff, 0x1a, 0x0d, 0x90, 0xff, 0xff, 0xff, 0x22
..LN2025:
                                # LOE
..B15.13:                       # Preds ..B15.10 Latency 40
..LN2026:
        vbroadcastss (%rsp), %zmm2                              #161.5 c1
..LN2027:
        movslq    %edx, %r8                                     #161.5 c1
..LN2028:
        vbroadcastss 8(%rsp), %zmm3                             #161.5 c5
..LN2029:
        subl      %edx, %r11d                                   #161.5 c5
..LN2030:
        vbroadcastss 16(%rsp), %zmm4                            #161.5 c9
..LN2031:
	.loc    1  162  is_stmt 1
        movl      %r15d, %esi                                   #162.5 c9
..LN2032:
	.loc    1  161  is_stmt 1
        vbroadcastss 24(%rsp), %zmm5                            #161.5 c13
..LN2033:
        incl      %r11d                                         #161.5 c13
..LN2034:
	.loc    1  164  is_stmt 1
        movq      64(%rsp), %rax                                #164.45 c17
..LN2035:
	.loc    1  161  is_stmt 1
        movq      56(%rsp), %r10                                #161.5 c17
..LN2036:
        imulq     %r8, %r10                                     #161.5 c21
..LN2037:
	.loc    1  164  is_stmt 1
        movq      (%rax), %rdi                                  #164.45 c32
..LN2038:
	.loc    1  161  is_stmt 1
        movl      $1, %eax                                      #161.5 c32
..LN2039:
        kmov      %eax, %k1                                     #161.5 c36
..LN2040:
        movl      %eax, %edx                                    #161.5 c36
..LN2041:
        movq      48(%rsp), %rax                                #161.5 c40
..LN2042:
                                # LOE rax rdi r8 r10 edx esi r11d r15d zmm2 zmm3 zmm4 zmm5 k1
..B15.14:                       # Preds ..B15.23 ..B15.13 Latency 13
..L465:         # optimization report
                # OPENMP LOOP
                # %s was not vectorized: vector dependence prevents vectorization%s
                # VECTOR TRIP COUNT IS ESTIMATED CONSTANT
..LN2043:
	.loc    1  163  is_stmt 1
        movl      %r8d, 32(%rsp)                                #163.29 c1
..LN2044:
        vcvtfxpntdq2ps $0, 32(%rsp){1to16}, %zmm0{%k1}          #163.29 c5
..LN2045:
	.loc    1  167  is_stmt 1
        movl      %r15d, %r9d                                   #167.9 c5
..LN2046:
	.loc    1  163  is_stmt 1
        vfmadd213ps %zmm3, %zmm5, %zmm0{%k1}                    #163.29 c9
..LN2047:
	.loc    1  167  is_stmt 1
        xorl      %ebx, %ebx                                    #167.9 c9
..LN2048:
        testq     %rax, %rax                                    #167.29 c13
..LN2049:
        jle       ..B15.23      # Prob 10%                      #167.29 c13
..LN2050:
                                # LOE rax rbx rdi r8 r10 edx esi r9d r11d r15d zmm0 zmm2 zmm3 zmm4 zmm5 k1
..B15.15:                       # Preds ..B15.14 Latency 1
..LN2051:
	.loc    1  127  is_stmt 1
        vmulps    %zmm0, %zmm0, %zmm1{%k1}                      #127.24 c1
..LN2052:
	.loc    1  174  is_stmt 1
        lea       (%rdi,%r10), %rcx                             #174.13 c1
..LN2053:
                                # LOE rax rcx rbx rdi r8 r10 edx esi r9d r11d r15d zmm0 zmm1 zmm2 zmm3 zmm4 zmm5 k1
..B15.16:                       # Preds ..B15.21 ..B15.15 Latency 29
..L466:         # optimization report
                # %s was not vectorized: novector directive used
                # VECTOR TRIP COUNT IS ESTIMATED CONSTANT
..LN2054:
	.loc    1  168  is_stmt 1
        movl      %r9d, 32(%rsp)                                #168.39 c1
..LN2055:
        vcvtfxpntdq2ps $0, 32(%rsp){1to16}, %zmm8{%k1}          #168.39 c5
..LN2056:
	.loc    1  125  is_stmt 1
        movl      %edx, %r13d                                   #125.14 c5
..LN2057:
	.loc    1  168  is_stmt 1
        vfmadd213ps %zmm3, %zmm4, %zmm8{%k1}                    #168.39 c9
..LN2058:
	.loc    1  127  is_stmt 1
        vmovaps   %zmm8, %zmm9                                  #127.5 c13
..LN2059:
        vfmadd213ps %zmm1, %zmm8, %zmm9{%k1}                    #127.5 c17
..LN2060:
        vcmpltps  %zmm2, %zmm9, %k0{%k1}                        #127.28 c21
..LN2061:
	.loc    1  126  is_stmt 1
        vmovaps   %zmm8, %zmm7                                  #126.15 c25
..LN2062:
        vmovaps   %zmm0, %zmm6                                  #126.22 c29
..LN2063:
	.loc    1  127  is_stmt 1
        jkzd      ..B15.21, %k0 # Prob 10%                      #127.28 c29
..LN2064:
                                # LOE rax rcx rbx rdi r8 r10 edx esi r9d r11d r13d r15d zmm0 zmm1 zmm2 zmm3 zmm4 zmm5 zmm6 zmm7 zmm8 k1
..B15.17:                       # Preds ..B15.16 Latency 1
..LN2065:
        movl      %r15d, %r12d                                  #127.5 c1
..LN2066:
                                # LOE rax rcx rbx rdi r8 r10 edx esi r9d r11d r12d r13d r15d zmm0 zmm1 zmm2 zmm3 zmm4 zmm5 zmm6 zmm7 zmm8 k1
..B15.18:                       # Preds ..B15.37 ..B15.17 Latency 9
..L467:         # optimization report
                # %s was not vectorized: loop control variable %s was found, but loop iteration count cannot be computed before executing the loop
..LN2067:
        addl      $4, %r12d                                     #127.5 c1
..LN2068:
	.loc    1  146  is_stmt 1
        lea       -3(%r12), %r14d                               #146.5 c5
..LN2069:
	.loc    1  127  is_stmt 1
        cmpl      $10000, %r14d                                 #127.43 c9
..LN2070:
        jge       ..B15.21      # Prob 20%                      #127.43 c9
..LN2071:
                                # LOE rax rcx rbx rdi r8 r10 edx esi r9d r11d r12d r13d r15d zmm0 zmm1 zmm2 zmm3 zmm4 zmm5 zmm6 zmm7 zmm8 k1
..B15.19:                       # Preds ..B15.18 Latency 37
..LN2072:
	.loc    1  128  is_stmt 1
        vaddps    %zmm6, %zmm6, %zmm9{%k1}                      #128.27 c1
..LN2073:
	.loc    1  130  is_stmt 1
        lea       -2(%r12), %r13d                               #130.3 c1
..LN2074:
	.loc    1  128  is_stmt 1
        vfmadd213ps %zmm0, %zmm7, %zmm9{%k1}                    #128.35 c5
..LN2075:
	.loc    1  129  is_stmt 1
        vfmadd213ps %zmm8, %zmm7, %zmm7{%k1}                    #129.36 c9
..LN2076:
        vfnmadd213ps %zmm7, %zmm6, %zmm6{%k1}                   #129.36 c13
..LN2077:
	.loc    1  131  is_stmt 1
        vmulps    %zmm9, %zmm9, %zmm10{%k1}                     #131.24 c17
..LN2078:
        vmulps    %zmm6, %zmm6, %zmm11{%k1}                     #131.14 c21
..LN2079:
        vaddps    %zmm11, %zmm10, %zmm7{%k1}                    #131.24 c25
..LN2080:
        vcmpltps  %zmm2, %zmm7, %k0{%k1}                        #131.29 c29
..LN2081:
        nop                                                     #131.29 c33
..LN2082:
        jknzd     ..B15.32, %k0 # Prob 20%                      #131.29 c37
..LN2083:
                                # LOE rax rcx rbx rdi r8 r10 edx esi r9d r11d r12d r13d r15d zmm0 zmm1 zmm2 zmm3 zmm4 zmm5 zmm6 zmm8 zmm9 zmm10 zmm11 k1
..B15.21:                       # Preds ..B15.37 ..B15.35 ..B15.32 ..B15.18 ..B15.19
                                #       ..B15.16 Latency 17
..LN2084:
	.loc    1  174  is_stmt 1
        cmpl      $10000, %r13d                                 #174.13 c1
..LN2085:
        jle       ..L468        # Prob 50%                      #174.13 c5
..LN2086:
        movl      $10000, %r13d                                 #174.13
..L468:                                                         #
..LN2087:
	.loc    1  167  is_stmt 1
        incl      %r9d                                          #167.9 c5
..LN2088:
        incq      %rbx                                          #167.9 c9
..LN2089:
	.loc    1  174  is_stmt 1
        movl      %r13d, -4(%rcx,%rbx,4)                        #174.13 c13
..LN2090:
	.loc    1  167  is_stmt 1
        cmpq      %rax, %r9                                     #167.9 c13
..LN2091:
        jb        ..B15.16      # Prob 82%                      #167.9 c17
..LN2092:
                                # LOE rax rcx rbx rdi r8 r10 edx esi r9d r11d r15d zmm0 zmm1 zmm2 zmm3 zmm4 zmm5 k1
..B15.23:                       # Preds ..B15.21 ..B15.14 Latency 9
..LN2093:
	.loc    1  162  is_stmt 1
        incl      %esi                                          #162.5 c1
..LN2094:
        incq      %r8                                           #162.30 c1
..LN2095:
        lea       (%r10,%rax,4), %r10                           #162.30 c5
..LN2096:
        cmpl      %r11d, %esi                                   #162.5 c5
..LN2097:
        jb        ..B15.14      # Prob 82%                      #162.5 c9
..LN2098:
        jmp       ..B15.24      # Prob 100%                     #162.5 c9
	.cfi_restore 3
	.cfi_restore 6
	.cfi_restore 12
	.cfi_restore 13
	.cfi_restore 14
	.cfi_restore 15
..LN2099:
                                # LOE rax rdi r8 r10 edx esi r11d r15d zmm2 zmm3 zmm4 zmm5 k1
L__Z6scalarPfll_160__par_region0_2.16:
# parameter 1: %rdi
# parameter 2: %rsi
# parameter 3: %rdx
# parameter 4: %rcx
# parameter 5: %r8
# parameter 6: %r9
# parameter 7: 16 + %rbp
..B15.25:                       # Preds ..B15.0 Latency 29
..LN2100:
	.loc    1  160  is_stmt 1
        pushq     %rbp                                          #160.5
	.cfi_def_cfa 7, 16
..LN2101:
        movq      %rsp, %rbp                                    #160.5
	.cfi_def_cfa 6, 16
	.cfi_offset 6, -16
..LN2102:
        andq      $-64, %rsp                                    #160.5
..LN2103:
        subq      $512, %rsp                                    #160.5 c1
..LN2104:
	.loc    1  161  prologue_end  is_stmt 1
        xorl      %eax, %eax                                    #161.5 c1
..LN2105:
	.loc    1  160  is_stmt 1
        movq      %r12, 424(%rsp)                               #160.5 c5
	.cfi_escape 0x10, 0x0c, 0x0e, 0x38, 0x1c, 0x0d, 0xc0, 0xff, 0xff, 0xff, 0x1a, 0x0d, 0xa8, 0xff, 0xff, 0xff, 0x22
..LN2106:
        movq      %rdi, %r12                                    #160.5 c5
..LN2107:
	.loc    1  161  is_stmt 1
        movl      $.2.39_2_kmpc_loc_struct_pack.27, %edi        #161.5 c9
..LN2108:
	.loc    1  160  is_stmt 1
        movq      %rbx, 432(%rsp)                               #160.5 c9
..LN2109:
        movq      %r15, 400(%rsp)                               #160.5 c13
	.cfi_escape 0x10, 0x03, 0x0e, 0x38, 0x1c, 0x0d, 0xc0, 0xff, 0xff, 0xff, 0x1a, 0x0d, 0xb0, 0xff, 0xff, 0xff, 0x22
	.cfi_escape 0x10, 0x0f, 0x0e, 0x38, 0x1c, 0x0d, 0xc0, 0xff, 0xff, 0xff, 0x1a, 0x0d, 0x90, 0xff, 0xff, 0xff, 0x22
..LN2110:
        movq      %r9, %r15                                     #160.5 c13
..LN2111:
        movq      %r14, 408(%rsp)                               #160.5 c17
	.cfi_escape 0x10, 0x0e, 0x0e, 0x38, 0x1c, 0x0d, 0xc0, 0xff, 0xff, 0xff, 0x1a, 0x0d, 0x98, 0xff, 0xff, 0xff, 0x22
..LN2112:
        movq      %rcx, %r14                                    #160.5 c17
..LN2113:
        movq      %r13, 416(%rsp)                               #160.5 c21
	.cfi_escape 0x10, 0x0d, 0x0e, 0x38, 0x1c, 0x0d, 0xc0, 0xff, 0xff, 0xff, 0x1a, 0x0d, 0xa0, 0xff, 0xff, 0xff, 0x22
..LN2114:
        movq      %rdx, %r13                                    #160.5 c21
..LN2115:
        movq      %r8, (%rsp)                                   #160.5 c25
..LN2116:
        movl      (%r12), %ebx                                  #160.5 c25
..___tag_value__Z6scalarPfll.485:
..LN2117:
	.loc    1  161  is_stmt 1
        call      __kmpc_ok_to_fork                             #161.5
..___tag_value__Z6scalarPfll.486:
..LN2118:
                                # LOE r12 r13 r14 r15 eax ebx
..B15.26:                       # Preds ..B15.25 Latency 1
..LN2119:
        testl     %eax, %eax                                    #161.5 c1
..LN2120:
        je        ..B15.28      # Prob 50%                      #161.5 c1
..LN2121:
                                # LOE r12 r13 r14 r15 ebx
..B15.27:                       # Preds ..B15.26 Latency 21
..LN2122:
        movq      16(%rbp), %rax                                #161.5 c1
..LN2123:
        movl      $L__Z6scalarPfll_161__par_loop1_2.15, %edx    #161.5 c1
..LN2124:
        pushq     %rax                                          #161.5 c5
..LN2125:
        movl      $.2.39_2_kmpc_loc_struct_pack.27, %edi        #161.5 c5
..LN2126:
        pushq     %r15                                          #161.5 c9
..LN2127:
        movl      $5, %esi                                      #161.5 c9
..LN2128:
        movq      %r14, %rcx                                    #161.5 c13
..LN2129:
        movq      16(%rsp), %r8                                 #161.5 c13
..LN2130:
        movq      %r13, %r9                                     #161.5 c17
..LN2131:
        xorl      %eax, %eax                                    #161.5 c17
..___tag_value__Z6scalarPfll.487:
..LN2132:
        call      __kmpc_fork_call                              #161.5
..___tag_value__Z6scalarPfll.488:
..LN2133:
                                # LOE
..B15.46:                       # Preds ..B15.27 Latency 2
..LN2134:
        addq      $16, %rsp                                     #161.5 c1
..LN2135:
        jmp       ..B15.31      # Prob 100%                     #161.5 c1
..LN2136:
                                # LOE
..B15.28:                       # Preds ..B15.26 Latency 9
..LN2137:
        movl      $.2.39_2_kmpc_loc_struct_pack.27, %edi        #161.5 c1
..LN2138:
        movl      %ebx, %esi                                    #161.5 c1
..LN2139:
        xorl      %eax, %eax                                    #161.5 c5
