	.section .text
.LNDBG_TX:
# mark_description "Intel(R) C Intel(R) 64 Compiler for applications running on Intel(R) MIC Architecture, Version 16.0.0.109 Bu";
# mark_description "ild 20150815";
# mark_description " -I.. -I../pngwriter/include -qoffload -S -g -O3 -opt-gather-scatter-unroll=8 -fopenmp -fimf-domain-exclusio";
# mark_description "n=8 -mkl -mavx -qopt-report=5 -qopt-report-phase=vec -qopt-report-file=stdout -opt-report-routine=simd";
	.file "nbody.cpp"
	.text
..TXTST0:
.L_2__routine_start_main_0:
# -- Begin  main
	.text
# mark_begin;
# Threads 4
        .align    16,0x90
	.globl main
# --- main(int, char **)
main:
# parameter 1(argc): %edi
# parameter 2(argv): %rsi
..B1.1:                         # Preds ..B1.0 Latency 9
	.cfi_startproc
	.cfi_personality 0x3,__gxx_personality_v0
..___tag_value_main.2:
..L3:
                                                          #341.33
..LN0:
	.file   1 "nbody.cpp"
	.loc    1  341  is_stmt 1
        pushq     %rbp                                          #341.33
	.cfi_def_cfa_offset 16
..LN1:
        movq      %rsp, %rbp                                    #341.33
	.cfi_def_cfa 6, 16
	.cfi_offset 6, -16
..LN2:
        andq      $-128, %rsp                                   #341.33
..LN3:
        subq      $128, %rsp                                    #341.33 c1
..LN4:
        xorl      %esi, %esi                                    #341.33 c1
..LN5:
        movl      $3, %edi                                      #341.33 c5
..LN6:
        call      __intel_new_feature_proc_init                 #341.33 c9
..LN7:
                                # LOE rbx r12 r13 r14 r15
..B1.5:                         # Preds ..B1.1 Latency 7
..LN8:
        stmxcsr   (%rsp)                                        #341.33 c1
..LN9:
        xorl      %eax, %eax                                    #341.33 c2
..LN10:
        orl       $32832, (%rsp)                                #341.33 c2
..LN11:
        ldmxcsr   (%rsp)                                        #341.33 c6
..___tag_value_main.8:
..LN12:
        call      __offload_target_main                         #341.33
..___tag_value_main.9:
..LN13:
                                # LOE rbx r12 r13 r14 r15
..B1.2:                         # Preds ..B1.5 Latency 5
..LN14:
        xorl      %eax, %eax                                    #341.33 c1
..LN15:
	.loc    1  341  epilogue_begin  is_stmt 1
        movq      %rbp, %rsp                                    #341.33 c5
..LN16:
        popq      %rbp                                          #341.33
	.cfi_def_cfa 7, 8
	.cfi_restore 6
..LN17:
        ret                                                     #341.33
        .align    16,0x90
	.cfi_endproc
..LN18:
                                # LOE
..LN19:
# mark_end;
	.type	main,@function
	.size	main,.-main
..LNmain.20:
.LNmain:
	.data
	.file   2 "helper_mic.h"
# -- End  main
	.text
.L_2__routine_start__Z6timeSiPfii_1:
# -- Begin  _Z6timeSiPfii, __offload_entry_nbody_cpp_289timeSi_2a3c14a2b98be1db2ef2390f3d1fea1dicc010706210850ujhShB
	.text
# mark_begin;
# Threads 4
        .align    16,0x90
__offload_entry_nbody_cpp_289timeSi_2a3c14a2b98be1db2ef2390f3d1fea1dicc010706210850ujhShB:
# parameter 1: %rdi
..B2.1:                         # Preds ..B2.0 Latency 101
	.cfi_startproc
	.cfi_personality 0x3,__gxx_personality_v0
..___tag_value__Z6timeSiPfii.17:
..L18:
                                                         #289.5
..LN21:
	.loc    1  289  is_stmt 1
        pushq     %rbp                                          #289.5
	.cfi_def_cfa_offset 16
..LN22:
        movq      %rsp, %rbp                                    #289.5
	.cfi_def_cfa 6, 16
	.cfi_offset 6, -16
..LN23:
        andq      $-64, %rsp                                    #289.5
..LN24:
        pushq     %r12                                          #289.5 c1
..LN25:
        subq      $632, %rsp                                    #289.5 c1
..LN26:
        vmovaps   .2.28_2__offload_var_desc1_p.80(%rip), %zmm0  #289.5 c5
..LN27:
        vmovaps   64+.2.28_2__offload_var_desc1_p.80(%rip), %zmm1 #289.5 c9
..LN28:
        vmovaps   128+.2.28_2__offload_var_desc1_p.80(%rip), %zmm2 #289.5 c13
..LN29:
        vmovaps   192+.2.28_2__offload_var_desc1_p.80(%rip), %zmm3 #289.5 c17
..LN30:
        vmovaps   256+.2.28_2__offload_var_desc1_p.80(%rip), %zmm4 #289.5 c21
..LN31:
        vmovaps   320+.2.28_2__offload_var_desc1_p.80(%rip), %zmm5 #289.5 c25
..LN32:
        vmovaps   .2.28_2__offload_var_desc2_p.85(%rip), %zmm6  #289.5 c29
..LN33:
        lea       512(%rsp), %rcx                               #289.5 c33
..LN34:
        lea       128(%rsp), %rdx                               #289.5 c33
..LN35:
        vmovaps   %zmm0, (%rdx)                                 #289.5 c37
..LN36:
        movq      64+.2.28_2__offload_var_desc2_p.85(%rip), %r8 #289.5 c37
..LN37:
        vmovaps   %zmm1, 64(%rdx)                               #289.5 c41
..LN38:
        movq      72+.2.28_2__offload_var_desc2_p.85(%rip), %r9 #289.5 c41
..LN39:
        vmovaps   %zmm2, 128(%rdx)                              #289.5 c45
..LN40:
        movq      80+.2.28_2__offload_var_desc2_p.85(%rip), %r10 #289.5 c45
..LN41:
        vmovaps   %zmm3, 192(%rdx)                              #289.5 c49
..LN42:
        movq      88+.2.28_2__offload_var_desc2_p.85(%rip), %r11 #289.5 c49
..LN43:
        vmovaps   %zmm4, 256(%rdx)                              #289.5 c53
..LN44:
        lea       120(%rsp), %rax                               #289.5 c53
..LN45:
        vmovaps   %zmm5, 320(%rdx)                              #289.5 c57
..LN46:
        lea       608(%rsp), %rsi                               #289.5 c57
..LN47:
        vmovaps   %zmm6, (%rcx)                                 #289.5 c61
	.cfi_escape 0x10, 0x0c, 0x0e, 0x38, 0x1c, 0x0d, 0xc0, 0xff, 0xff, 0xff, 0x1a, 0x0d, 0xf8, 0xff, 0xff, 0xff, 0x22
..LN48:
        movq      %rdi, %r12                                    #289.5 c61
..LN49:
        movq      %r8, 64(%rcx)                                 #289.5 c65
..LN50:
        movq      %r9, 72(%rcx)                                 #289.5 c65
..LN51:
        movq      %r10, 80(%rcx)                                #289.5 c69
..LN52:
        movq      %r11, 88(%rcx)                                #289.5 c69
..LN53:
        lea       612(%rsp), %r8                                #289.5 c73
..LN54:
        lea       32(%rsp), %r9                                 #289.5 c73
..LN55:
        lea       40(%rsp), %r10                                #289.5 c77
..LN56:
        lea       48(%rsp), %r11                                #289.5 c77
..LN57:
        movq      %rax, 56(%rdx)                                #289.5 c81
..LN58:
        movq      %rsi, 128(%rax)                               #289.5 c81
..LN59:
        movq      %r8, 192(%rax)                                #289.5 c85
..LN60:
        movl      $6, %esi                                      #289.5 c85
..LN61:
        movq      %r9, 256(%rax)                                #289.5 c89
..LN62:
        movb      %dl, %dl                                      #289.5 c89
..LN63:
        movq      %r10, 320(%rax)                               #289.5 c93
..LN64:
        movb      %dl, %dl                                      #289.5 c93
..LN65:
        movq      %r11, 384(%rax)                               #289.5 c97
..LN66:
        xorl      %eax, %eax                                    #289.5 c97
..___tag_value__Z6timeSiPfii.24:
..LN67:
        call      __offload_target_enter                        #289.5
..___tag_value__Z6timeSiPfii.25:
..LN68:
                                # LOE rbx r12 r13 r14 r15
..B2.2:                         # Preds ..B2.1 Latency 25
..LN69:
	.loc    1  34  prologue_end  is_stmt 1
        movq      $0, 8(%rsp)                                   #34.12 c1
..LN70:
	.loc    1  291  is_stmt 1
        movq      120(%rsp), %rax                               #291.43 c5
..LN71:
	.loc    1  289  is_stmt 1
        movl      608(%rsp), %esi                               #289.5 c5
..LN72:
        movl      612(%rsp), %edx                               #289.5 c9
..LN73:
        movslq    %esi, %rsi                                    #289.5 c9
..LN74:
        movslq    %edx, %rdx                                    #289.5 c13
..LN75:
	.loc    1  291  is_stmt 1
        movq      (%rax), %rcx                                  #291.43 c13
..LN76:
        movq      %rcx, 88(%rsp)                                #291.43 c17
..LN77:
	.loc    1  36  is_stmt 1
        movq      %rdx, 96(%rsp)                                #36.22 c17
..LN78:
        movq      %rsi, 104(%rsp)                               #36.22 c21
..___tag_value__Z6timeSiPfii.26:
..LN79:
        call      omp_get_wtime                                 #36.22
..___tag_value__Z6timeSiPfii.27:
..LN80:
                                # LOE rbx r12 r13 r14 r15 zmm0
..B2.59:                        # Preds ..B2.2 Latency 9
..LN81:
        xorl      %eax, %eax                                    #36.22 c1
..LN82:
        incl      %eax                                          #36.22
..LN83:
        movq      104(%rsp), %rsi                               # c1
..LN84:
        movq      96(%rsp), %rdx                                # c5
..LN85:
        kmov      %eax, %k1                                     #36.22 c5
..LN86:
        movb      $1, %cl                                       #36.22 c9
..LN87:
        jmp       ..B2.3        # Prob 100%                     #36.22 c9
	.cfi_escape 0x10, 0x03, 0x0e, 0x38, 0x1c, 0x0d, 0xc0, 0xff, 0xff, 0xff, 0x1a, 0x0d, 0xd0, 0xfd, 0xff, 0xff, 0x22
	.cfi_escape 0x10, 0x0d, 0x0e, 0x38, 0x1c, 0x0d, 0xc0, 0xff, 0xff, 0xff, 0x1a, 0x0d, 0xb8, 0xfd, 0xff, 0xff, 0x22
	.cfi_escape 0x10, 0x0e, 0x0e, 0x38, 0x1c, 0x0d, 0xc0, 0xff, 0xff, 0xff, 0x1a, 0x0d, 0xc0, 0xfd, 0xff, 0xff, 0x22
	.cfi_escape 0x10, 0x0f, 0x0e, 0x38, 0x1c, 0x0d, 0xc0, 0xff, 0xff, 0xff, 0x1a, 0x0d, 0xc8, 0xfd, 0xff, 0xff, 0x22
..LN88:
                                # LOE rdx rbx rsi r12 r13 r14 r15 cl zmm0 k1
..B2.11:                        # Preds ..B2.10 Latency 18
..LN89:
        vbroadcastsd (%rsp), %zmm0                              # c1
..LN90:
        movq      %r15, 8(%rsp)                                 # c1
..LN91:
        movq      %rbx, %rdx                                    # c5
..LN92:
        movq      %r12, %rsi                                    # c5
..LN93:
        movq      %r14, %r12                                    # c9
..LN94:
        movb      $1, %cl                                       # c9
..LN95:
        movq      56(%rsp), %r13                                # c13
	.cfi_restore 13
..LN96:
        movq      64(%rsp), %r14                                # c13
	.cfi_restore 14
..LN97:
        movq      72(%rsp), %r15                                # c17
	.cfi_restore 15
..LN98:
        movq      80(%rsp), %rbx                                # c17
	.cfi_restore 3
..LN99:
                                # LOE rdx rbx rsi r12 r13 r14 r15 cl zmm0 k1
..B2.3:                         # Preds ..B2.11 ..B2.59 Latency 25
..LN100:
	.loc    1  37  is_stmt 1
        movb      %cl, %al                                      #37.31 c1
..LN101:
        xorl      %ecx, %ecx                                    #37.31 c1
..LN102:
        incl      %ecx                                          #37.31
..LN103:
        kmov      %ecx, %k1                                     #37.31 c5
..LN104:
        movq      %r13, 56(%rsp)                                #37.31 c5
..LN105:
        vpackstorelpd %zmm0, (%rsp){%k1}                        #37.31 c9
	.cfi_escape 0x10, 0x0d, 0x0e, 0x38, 0x1c, 0x0d, 0xc0, 0xff, 0xff, 0xff, 0x1a, 0x0d, 0xb8, 0xfd, 0xff, 0xff, 0x22
..LN106:
        movq      88(%rsp), %r13                                #37.31 c9
..LN107:
        movq      %r14, 64(%rsp)                                #37.31 c13
	.cfi_escape 0x10, 0x0e, 0x0e, 0x38, 0x1c, 0x0d, 0xc0, 0xff, 0xff, 0xff, 0x1a, 0x0d, 0xc0, 0xfd, 0xff, 0xff, 0x22
..LN108:
        movq      %r12, %r14                                    #37.31 c13
..LN109:
        movq      %r15, 72(%rsp)                                #37.31 c17
	.cfi_escape 0x10, 0x0f, 0x0e, 0x38, 0x1c, 0x0d, 0xc0, 0xff, 0xff, 0xff, 0x1a, 0x0d, 0xc8, 0xfd, 0xff, 0xff, 0x22
..LN110:
        movq      %rsi, %r12                                    #37.31 c17
..LN111:
        movq      %rbx, 80(%rsp)                                #37.31 c21
	.cfi_escape 0x10, 0x03, 0x0e, 0x38, 0x1c, 0x0d, 0xc0, 0xff, 0xff, 0xff, 0x1a, 0x0d, 0xd0, 0xfd, 0xff, 0xff, 0x22
..LN112:
        movq      %rdx, %rbx                                    #37.31 c21
..LN113:
        movq      8(%rsp), %r15                                 #37.31 c25
..LN114:
        jmp       ..B2.4        # Prob 100%                     #37.31 c25
..LN115:
                                # LOE rbx r12 r13 r14 r15 al
..B2.12:                        # Preds ..B2.10 Latency 2
..LN116:
        xorb      %al, %al                                      #37.31 c1
..LN117:
                                # LOE rbx r12 r13 r14 r15 al
..B2.4:                         # Preds ..B2.3 ..B2.12 Latency 5
..LN118:
        incq      %r15                                          #37.24 c1
..LN119:
        testb     %al, %al                                      #37.31 c5
..LN120:
        je        ..B2.13       # Prob 50%                      #37.31 c5
..LN121:
                                # LOE rbx r12 r13 r14 r15
..B2.5:                         # Preds ..B2.4 Latency 1
..___tag_value__Z6timeSiPfii.40:
..LN122:
	.loc    1  41  is_stmt 1
        call      omp_get_wtime                                 #41.14
..___tag_value__Z6timeSiPfii.41:
..LN123:
                                # LOE rbx r12 r13 r14 r15
..B2.6:                         # Preds ..B2.5 Latency 9
..LN124:
	.loc    1  43  is_stmt 1
        movq      %r13, %rdi                                    #43.9 c1
..LN125:
        movq      %r12, %rsi                                    #43.9 c1
..LN126:
        movq      %rbx, %rdx                                    #43.9 c5
..___tag_value__Z6timeSiPfii.42:
..LN127:
#       init(float *, long, long)
        call      _Z4initPfll                                   #43.9
..___tag_value__Z6timeSiPfii.43:
..LN128:
                                # LOE rbx r12 r13 r14 r15
..B2.7:                         # Preds ..B2.6 Latency 1
..___tag_value__Z6timeSiPfii.44:
..LN129:
	.loc    1  44  is_stmt 1
        call      omp_get_wtime                                 #44.14
..___tag_value__Z6timeSiPfii.45:
..LN130:
                                # LOE rbx r12 r13 r14 r15
..B2.8:                         # Preds ..B2.7 Latency 1
..___tag_value__Z6timeSiPfii.46:
..LN131:
	.loc    1  38  is_stmt 1
        call      omp_get_wtime                                 #38.15
..___tag_value__Z6timeSiPfii.47:
..LN132:
                                # LOE rbx r12 r13 r14 r15 zmm0
..B2.9:                         # Preds ..B2.8 Latency 21
..LN133:
        xorl      %eax, %eax                                    #38.33 c1
..LN134:
        incl      %eax                                          #38.33
..LN135:
        kmov      %eax, %k1                                     #38.33 c5
..LN136:
        vsubpd    (%rsp){1to8}, %zmm0, %zmm0{%k1}               #38.33 c9
..LN137:
	.loc    1  37  is_stmt 1
        vcmpltpd  .L_2il0floatpacket.3(%rip){1to8}, %zmm0, %k0{%k1} #37.15 c13
..LN138:
        nop                                                     #37.15 c17
..LN139:
        jkzd      ..B2.13, %k0  # Prob 50%                      #37.15 c21
..LN140:
                                # LOE rbx r12 r13 r14 r15 eax k1
..B2.10:                        # Preds ..B2.9 Latency 5
..L48:          # optimization report
                # %s was not vectorized: loop control variable %s was found, but loop iteration count cannot be computed before executing the loop
..LN141:
        testq     %r15, %r15                                    #37.31 c1
..LN142:
        jle       ..B2.11       # Prob 50%                      #37.31 c5
..LN143:
        jmp       ..B2.12       # Prob 100%                     #37.31 c5
..LN144:
                                # LOE rbx r12 r13 r14 r15 eax k1
..B2.13:                        # Preds ..B2.4 ..B2.9 Latency 17
..LN145:
        xorl      %eax, %eax                                    # c1
..LN146:
        incl      %eax                                          #
..LN147:
        movq      %rbx, %rdx                                    # c1
..LN148:
        movq      %r12, %rsi                                    # c5
..LN149:
        movq      %r14, %r12                                    # c5
..LN150:
        kmov      %eax, %k1                                     # c9
..LN151:
        movq      56(%rsp), %r13                                # c9
	.cfi_restore 13
..LN152:
        movq      64(%rsp), %r14                                # c13
	.cfi_restore 14
..LN153:
        movq      72(%rsp), %r15                                # c13
	.cfi_restore 15
..LN154:
        movq      80(%rsp), %rbx                                # c17
	.cfi_restore 3
	.cfi_escape 0x10, 0x03, 0x0e, 0x38, 0x1c, 0x0d, 0xc0, 0xff, 0xff, 0xff, 0x1a, 0x0d, 0xd0, 0xfd, 0xff, 0xff, 0x22
	.cfi_escape 0x10, 0x0d, 0x0e, 0x38, 0x1c, 0x0d, 0xc0, 0xff, 0xff, 0xff, 0x1a, 0x0d, 0xb8, 0xfd, 0xff, 0xff, 0x22
	.cfi_escape 0x10, 0x0e, 0x0e, 0x38, 0x1c, 0x0d, 0xc0, 0xff, 0xff, 0xff, 0x1a, 0x0d, 0xc0, 0xfd, 0xff, 0xff, 0x22
	.cfi_escape 0x10, 0x0f, 0x0e, 0x38, 0x1c, 0x0d, 0xc0, 0xff, 0xff, 0xff, 0x1a, 0x0d, 0xc8, 0xfd, 0xff, 0xff, 0x22
..LN155:
                                # LOE rdx rbx rsi r12 r13 r14 r15 eax ebx r13d r14d r15d bl bh r13b r14b r15b k1
..B2.15:                        # Preds ..B2.13 Latency 25
..LN156:
	.loc    1  35  is_stmt 1
        vbroadcastsd .L_2il0floatpacket.1(%rip), %zmm2{%k1}     #35.25 c1
..LN157:
        vmovapd   %zmm2, %zmm1                                  #35.25 c5
..LN158:
	.loc    1  36  is_stmt 1
        kmov      %eax, %k2                                     #36.22 c5
..LN159:
	.loc    1  34  is_stmt 1
        movq      $0, 112(%rsp)                                 #34.12 c9
..LN160:
	.loc    1  36  is_stmt 1
        vpackstorelpd %zmm2, (%rsp){%k2}                        #36.22 c13
..LN161:
        vpackstorelpd %zmm1, 8(%rsp){%k2}                       #36.22 c17
..LN162:
        movb      %al, %al                                      #36.22 c17
..LN163:
        movq      %rdx, 96(%rsp)                                #36.22 c21
..LN164:
        movq      %rsi, 104(%rsp)                               #36.22 c21
..___tag_value__Z6timeSiPfii.57:
..LN165:
        call      omp_get_wtime                                 #36.22
..___tag_value__Z6timeSiPfii.58:
..LN166:
                                # LOE rbx r12 r13 r14 r15 ebx r13d r14d r15d bl bh r13b r14b r15b zmm0
..B2.61:                        # Preds ..B2.15 Latency 13
..LN167:
        vbroadcastsd 8(%rsp), %zmm1                             # c1
..LN168:
        xorl      %eax, %eax                                    # c1
..LN169:
        incl      %eax                                          #
..LN170:
        vbroadcastsd (%rsp), %zmm2                              # c5
..LN171:
        kmov      %eax, %k1                                     # c5
..LN172:
        movq      104(%rsp), %rsi                               # c9
..LN173:
        movb      $1, %cl                                       #36.22 c9
..LN174:
        movq      96(%rsp), %rdx                                # c13
..LN175:
        jmp       ..B2.16       # Prob 100%                     # c13
..LN176:
                                # LOE rdx rbx rsi r12 r13 r14 r15 cl zmm0 zmm1 zmm2 k1
..B2.24:                        # Preds ..B2.23 Latency 22
..LN177:
        vbroadcastsd 24(%rsp), %zmm0                            # c1
..LN178:
        movq      %r15, 112(%rsp)                               # c1
..LN179:
        vbroadcastsd 8(%rsp), %zmm1                             # c5
..LN180:
        movq      %rbx, %rdx                                    # c5
..LN181:
        vbroadcastsd (%rsp), %zmm2                              # c9
..LN182:
        movq      %r12, %rsi                                    # c9
..LN183:
        movq      %r14, %r12                                    # c13
..LN184:
        movb      $1, %cl                                       # c13
..LN185:
        movq      56(%rsp), %r13                                # c17
	.cfi_restore 13
..LN186:
        movq      64(%rsp), %r14                                # c17
	.cfi_restore 14
..LN187:
        movq      72(%rsp), %r15                                # c21
	.cfi_restore 15
..LN188:
        movq      80(%rsp), %rbx                                # c21
	.cfi_restore 3
	.cfi_escape 0x10, 0x03, 0x0e, 0x38, 0x1c, 0x0d, 0xc0, 0xff, 0xff, 0xff, 0x1a, 0x0d, 0xd0, 0xfd, 0xff, 0xff, 0x22
	.cfi_escape 0x10, 0x0d, 0x0e, 0x38, 0x1c, 0x0d, 0xc0, 0xff, 0xff, 0xff, 0x1a, 0x0d, 0xb8, 0xfd, 0xff, 0xff, 0x22
	.cfi_escape 0x10, 0x0e, 0x0e, 0x38, 0x1c, 0x0d, 0xc0, 0xff, 0xff, 0xff, 0x1a, 0x0d, 0xc0, 0xfd, 0xff, 0xff, 0x22
	.cfi_escape 0x10, 0x0f, 0x0e, 0x38, 0x1c, 0x0d, 0xc0, 0xff, 0xff, 0xff, 0x1a, 0x0d, 0xc8, 0xfd, 0xff, 0xff, 0x22
..LN189:
                                # LOE rdx rbx rsi r12 r13 r14 r15 cl zmm0 zmm1 zmm2 k1
..B2.16:                        # Preds ..B2.24 ..B2.61 Latency 33
..LN190:
	.loc    1  37  is_stmt 1
        movb      %cl, %al                                      #37.31 c1
..LN191:
        xorl      %ecx, %ecx                                    #37.31 c1
..LN192:
        incl      %ecx                                          #37.31
..LN193:
        kmov      %ecx, %k1                                     #37.31 c5
..LN194:
        movq      %r13, 56(%rsp)                                #37.31 c5
..LN195:
        vpackstorelpd %zmm0, 24(%rsp){%k1}                      #37.31 c9
..LN196:
        movq      88(%rsp), %r13                                #37.31 c9
..LN197:
        vpackstorelpd %zmm1, 8(%rsp){%k1}                       #37.31 c13
..LN198:
        vpackstorelpd %zmm2, (%rsp){%k1}                        #37.31 c17
..LN199:
        movb      %al, %al                                      #37.31 c17
..LN200:
        movq      %r14, 64(%rsp)                                #37.31 c21
..LN201:
        movq      %r12, %r14                                    #37.31 c21
..LN202:
        movq      %r15, 72(%rsp)                                #37.31 c25
..LN203:
        movq      %rsi, %r12                                    #37.31 c25
..LN204:
        movq      %rbx, 80(%rsp)                                #37.31 c29
..LN205:
        movq      %rdx, %rbx                                    #37.31 c29
..LN206:
        movq      112(%rsp), %r15                               #37.31 c33
..LN207:
        jmp       ..B2.17       # Prob 100%                     #37.31 c33
..LN208:
                                # LOE rbx r12 r13 r14 r15 al
..B2.25:                        # Preds ..B2.23 Latency 2
..LN209:
        xorb      %al, %al                                      #37.31 c1
..LN210:
                                # LOE rbx r12 r13 r14 r15 al
..B2.17:                        # Preds ..B2.16 ..B2.25 Latency 5
..LN211:
        incq      %r15                                          #37.24 c1
..LN212:
        testb     %al, %al                                      #37.31 c5
..LN213:
        je        ..B2.26       # Prob 50%                      #37.31 c5
..LN214:
                                # LOE rbx r12 r13 r14 r15
..B2.18:                        # Preds ..B2.17 Latency 1
..___tag_value__Z6timeSiPfii.67:
..LN215:
	.loc    1  41  is_stmt 1
        call      omp_get_wtime                                 #41.14
..___tag_value__Z6timeSiPfii.68:
..LN216:
                                # LOE rbx r12 r13 r14 r15 zmm0
..B2.62:                        # Preds ..B2.18 Latency 9
..LN217:
        xorl      %eax, %eax                                    #41.14 c1
..LN218:
        incl      %eax                                          #41.14
..LN219:
        kmov      %eax, %k1                                     #41.14 c5
..LN220:
        vpackstorelpd %zmm0, 16(%rsp){%k1}                      #41.14 c9
..LN221:
                                # LOE rbx r12 r13 r14 r15
..B2.19:                        # Preds ..B2.62 Latency 9
..LN222:
	.loc    1  43  is_stmt 1
        movq      %r13, %rdi                                    #43.9 c1
..LN223:
        movq      %r12, %rsi                                    #43.9 c1
..LN224:
        movq      %rbx, %rdx                                    #43.9 c5
..___tag_value__Z6timeSiPfii.69:
..LN225:
#       simd(float *, long, long)
        call      _Z4simdPfll                                   #43.9
..___tag_value__Z6timeSiPfii.70:
..LN226:
                                # LOE rbx r12 r13 r14 r15
..B2.20:                        # Preds ..B2.19 Latency 1
..___tag_value__Z6timeSiPfii.71:
..LN227:
	.loc    1  44  is_stmt 1
        call      omp_get_wtime                                 #44.14
..___tag_value__Z6timeSiPfii.72:
..LN228:
                                # LOE rbx r12 r13 r14 r15 zmm0
..B2.21:                        # Preds ..B2.20 Latency 17
..LN229:
	.loc    1  47  is_stmt 1
        xorl      %eax, %eax                                    #47.16 c1
..LN230:
        incl      %eax                                          #47.16
..LN231:
        kmov      %eax, %k1                                     #47.16 c5
..LN232:
        vsubpd    16(%rsp){1to8}, %zmm0, %zmm1{%k1}             #47.16 c9
..LN233:
        vbroadcastsd 8(%rsp), %zmm0                             #47.16 c13
..LN234:
        call      fmin                                          #47.16 c17
..LN235:
                                # LOE rbx r12 r13 r14 r15 zmm0
..B2.65:                        # Preds ..B2.21 Latency 13
..LN236:
        xorl      %eax, %eax                                    #47.16 c1
..LN237:
        incl      %eax                                          #47.16
..LN238:
        kmov      %eax, %k1                                     #47.16 c5
..LN239:
        vpackstorelpd %zmm0, 8(%rsp){%k1}                       #47.16 c9
..___tag_value__Z6timeSiPfii.73:
..LN240:
	.loc    1  38  is_stmt 1
        call      omp_get_wtime                                 #38.15
..___tag_value__Z6timeSiPfii.74:
..LN241:
                                # LOE rbx r12 r13 r14 r15 zmm0
..B2.22:                        # Preds ..B2.65 Latency 21
..LN242:
        xorl      %eax, %eax                                    #38.33 c1
..LN243:
        incl      %eax                                          #38.33
..LN244:
        kmov      %eax, %k1                                     #38.33 c5
..LN245:
        vsubpd    24(%rsp){1to8}, %zmm0, %zmm0{%k1}             #38.33 c9
..LN246:
	.loc    1  37  is_stmt 1
        vcmpltpd  .L_2il0floatpacket.2(%rip){1to8}, %zmm0, %k0{%k1} #37.15 c13
..LN247:
        nop                                                     #37.15 c17
..LN248:
        jkzd      ..B2.26, %k0  # Prob 50%                      #37.15 c21
..LN249:
                                # LOE rbx r12 r13 r14 r15 eax k1
..B2.23:                        # Preds ..B2.22 Latency 5
..L75:          # optimization report
                # %s was not vectorized: loop control variable %s was found, but loop iteration count cannot be computed before executing the loop
..LN250:
        testq     %r15, %r15                                    #37.31 c1
..LN251:
        jle       ..B2.24       # Prob 50%                      #37.31 c5
..LN252:
        jmp       ..B2.25       # Prob 100%                     #37.31 c5
..LN253:
                                # LOE rbx r12 r13 r14 r15 eax k1
..B2.26:                        # Preds ..B2.17 ..B2.22 Latency 21
..LN254:
        vbroadcastsd 8(%rsp), %zmm1                             # c1
..LN255:
        xorl      %eax, %eax                                    # c1
..LN256:
        incl      %eax                                          #
..LN257:
        vbroadcastsd (%rsp), %zmm2                              # c5
..LN258:
        movq      %rbx, %rdx                                    # c5
..LN259:
        movq      %r12, %rsi                                    # c9
..LN260:
        movq      %r14, %r12                                    # c9
..LN261:
        kmov      %eax, %k1                                     # c13
..LN262:
        movq      56(%rsp), %r13                                # c13
	.cfi_restore 13
..LN263:
        movq      64(%rsp), %r14                                # c17
	.cfi_restore 14
..LN264:
        movq      72(%rsp), %r15                                # c17
	.cfi_restore 15
..LN265:
        movq      80(%rsp), %rbx                                # c21
	.cfi_restore 3
	.cfi_escape 0x10, 0x03, 0x0e, 0x38, 0x1c, 0x0d, 0xc0, 0xff, 0xff, 0xff, 0x1a, 0x0d, 0xd0, 0xfd, 0xff, 0xff, 0x22
	.cfi_escape 0x10, 0x0d, 0x0e, 0x38, 0x1c, 0x0d, 0xc0, 0xff, 0xff, 0xff, 0x1a, 0x0d, 0xb8, 0xfd, 0xff, 0xff, 0x22
	.cfi_escape 0x10, 0x0e, 0x0e, 0x38, 0x1c, 0x0d, 0xc0, 0xff, 0xff, 0xff, 0x1a, 0x0d, 0xc0, 0xfd, 0xff, 0xff, 0x22
	.cfi_escape 0x10, 0x0f, 0x0e, 0x38, 0x1c, 0x0d, 0xc0, 0xff, 0xff, 0xff, 0x1a, 0x0d, 0xc8, 0xfd, 0xff, 0xff, 0x22
..LN266:
                                # LOE rdx rbx rsi r12 r13 r14 r15 eax ebx r13d r14d r15d bl bh r13b r14b r15b xmm1 xmm2 ymm1 ymm2 zmm1 zmm2 k1
..B2.28:                        # Preds ..B2.26 Latency 21
..LN267:
	.loc    1  34  is_stmt 1
        movq      $0, 24(%rsp)                                  #34.12 c1
..LN268:
	.loc    1  36  is_stmt 1
        kmov      %eax, %k2                                     #36.22 c5
..LN269:
        movq      %rdx, 96(%rsp)                                #36.22 c5
..LN270:
        vpackstorelpd %zmm2, (%rsp){%k2}                        #36.22 c9
..LN271:
        vpackstorelpd %zmm1, 8(%rsp){%k2}                       #36.22 c13
..LN272:
        movb      %al, %al                                      #36.22 c13
..LN273:
        movq      %rsi, 104(%rsp)                               #36.22 c17
..___tag_value__Z6timeSiPfii.84:
..LN274:
        call      omp_get_wtime                                 #36.22
..___tag_value__Z6timeSiPfii.85:
..LN275:
                                # LOE rbx r12 r13 r14 r15 ebx r13d r14d r15d bl bh r13b r14b r15b zmm0
..B2.66:                        # Preds ..B2.28 Latency 13
..LN276:
        vbroadcastsd 8(%rsp), %zmm1                             # c1
..LN277:
        xorl      %eax, %eax                                    # c1
..LN278:
        incl      %eax                                          #
..LN279:
        vbroadcastsd (%rsp), %zmm2                              # c5
..LN280:
        kmov      %eax, %k1                                     # c5
..LN281:
        movq      104(%rsp), %rsi                               # c9
..LN282:
        movb      $1, %cl                                       #36.22 c9
..LN283:
        movq      96(%rsp), %rdx                                # c13
..LN284:
        jmp       ..B2.29       # Prob 100%                     # c13
..LN285:
                                # LOE rdx rbx rsi r12 r13 r14 r15 cl zmm0 zmm1 zmm2 k1
..B2.37:                        # Preds ..B2.36 Latency 22
..LN286:
        vbroadcastsd 16(%rsp), %zmm0                            # c1
..LN287:
        movq      %r15, 24(%rsp)                                # c1
..LN288:
        vbroadcastsd 8(%rsp), %zmm1                             # c5
..LN289:
        movq      %rbx, %rdx                                    # c5
..LN290:
        vbroadcastsd (%rsp), %zmm2                              # c9
..LN291:
        movq      %r12, %rsi                                    # c9
..LN292:
        movq      %r14, %r12                                    # c13
..LN293:
        movb      $1, %cl                                       # c13
..LN294:
        movq      56(%rsp), %r13                                # c17
	.cfi_restore 13
..LN295:
        movq      64(%rsp), %r14                                # c17
	.cfi_restore 14
..LN296:
        movq      72(%rsp), %r15                                # c21
	.cfi_restore 15
..LN297:
        movq      80(%rsp), %rbx                                # c21
	.cfi_restore 3
	.cfi_escape 0x10, 0x03, 0x0e, 0x38, 0x1c, 0x0d, 0xc0, 0xff, 0xff, 0xff, 0x1a, 0x0d, 0xd0, 0xfd, 0xff, 0xff, 0x22
	.cfi_escape 0x10, 0x0d, 0x0e, 0x38, 0x1c, 0x0d, 0xc0, 0xff, 0xff, 0xff, 0x1a, 0x0d, 0xb8, 0xfd, 0xff, 0xff, 0x22
	.cfi_escape 0x10, 0x0e, 0x0e, 0x38, 0x1c, 0x0d, 0xc0, 0xff, 0xff, 0xff, 0x1a, 0x0d, 0xc0, 0xfd, 0xff, 0xff, 0x22
	.cfi_escape 0x10, 0x0f, 0x0e, 0x38, 0x1c, 0x0d, 0xc0, 0xff, 0xff, 0xff, 0x1a, 0x0d, 0xc8, 0xfd, 0xff, 0xff, 0x22
..LN298:
                                # LOE rdx rbx rsi r12 r13 r14 r15 cl zmm0 zmm1 zmm2 k1
..B2.29:                        # Preds ..B2.37 ..B2.66 Latency 33
..LN299:
	.loc    1  37  is_stmt 1
        movb      %cl, %al                                      #37.31 c1
..LN300:
        xorl      %ecx, %ecx                                    #37.31 c1
..LN301:
        incl      %ecx                                          #37.31
..LN302:
        kmov      %ecx, %k1                                     #37.31 c5
..LN303:
        movq      %r13, 56(%rsp)                                #37.31 c5
..LN304:
        vpackstorelpd %zmm0, 16(%rsp){%k1}                      #37.31 c9
..LN305:
        movq      88(%rsp), %r13                                #37.31 c9
..LN306:
        vpackstorelpd %zmm1, 8(%rsp){%k1}                       #37.31 c13
..LN307:
        vpackstorelpd %zmm2, (%rsp){%k1}                        #37.31 c17
..LN308:
        movb      %al, %al                                      #37.31 c17
..LN309:
        movq      %r14, 64(%rsp)                                #37.31 c21
..LN310:
        movq      %r12, %r14                                    #37.31 c21
..LN311:
        movq      %r15, 72(%rsp)                                #37.31 c25
..LN312:
        movq      %rsi, %r12                                    #37.31 c25
..LN313:
        movq      %rbx, 80(%rsp)                                #37.31 c29
..LN314:
        movq      %rdx, %rbx                                    #37.31 c29
..LN315:
        movq      24(%rsp), %r15                                #37.31 c33
..LN316:
        jmp       ..B2.30       # Prob 100%                     #37.31 c33
..LN317:
                                # LOE rbx r12 r13 r14 r15 al
..B2.38:                        # Preds ..B2.36 Latency 2
..LN318:
        xorb      %al, %al                                      #37.31 c1
..LN319:
                                # LOE rbx r12 r13 r14 r15 al
..B2.30:                        # Preds ..B2.29 ..B2.38 Latency 5
..LN320:
        incq      %r15                                          #37.24 c1
..LN321:
        testb     %al, %al                                      #37.31 c5
..LN322:
        je        ..B2.39       # Prob 50%                      #37.31 c5
..LN323:
                                # LOE rbx r12 r13 r14 r15
..B2.31:                        # Preds ..B2.30 Latency 1
..___tag_value__Z6timeSiPfii.94:
..LN324:
	.loc    1  41  is_stmt 1
        call      omp_get_wtime                                 #41.14
..___tag_value__Z6timeSiPfii.95:
..LN325:
                                # LOE rbx r12 r13 r14 r15
..B2.32:                        # Preds ..B2.31 Latency 9
..LN326:
	.loc    1  43  is_stmt 1
        movq      %r13, %rdi                                    #43.9 c1
..LN327:
        movq      %r12, %rsi                                    #43.9 c1
..LN328:
        movq      %rbx, %rdx                                    #43.9 c5
..___tag_value__Z6timeSiPfii.96:
..LN329:
#       init(float *, long, long)
        call      _Z4initPfll                                   #43.9
..___tag_value__Z6timeSiPfii.97:
..LN330:
                                # LOE rbx r12 r13 r14 r15
..B2.33:                        # Preds ..B2.32 Latency 1
..___tag_value__Z6timeSiPfii.98:
..LN331:
	.loc    1  44  is_stmt 1
        call      omp_get_wtime                                 #44.14
..___tag_value__Z6timeSiPfii.99:
..LN332:
                                # LOE rbx r12 r13 r14 r15
..B2.34:                        # Preds ..B2.33 Latency 1
..___tag_value__Z6timeSiPfii.100:
..LN333:
	.loc    1  38  is_stmt 1
        call      omp_get_wtime                                 #38.15
..___tag_value__Z6timeSiPfii.101:
..LN334:
                                # LOE rbx r12 r13 r14 r15 zmm0
..B2.35:                        # Preds ..B2.34 Latency 21
..LN335:
        xorl      %eax, %eax                                    #38.33 c1
..LN336:
        incl      %eax                                          #38.33
..LN337:
        kmov      %eax, %k1                                     #38.33 c5
..LN338:
        vsubpd    16(%rsp){1to8}, %zmm0, %zmm0{%k1}             #38.33 c9
..LN339:
	.loc    1  37  is_stmt 1
        vcmpltpd  .L_2il0floatpacket.3(%rip){1to8}, %zmm0, %k0{%k1} #37.15 c13
..LN340:
        nop                                                     #37.15 c17
..LN341:
        jkzd      ..B2.39, %k0  # Prob 50%                      #37.15 c21
..LN342:
                                # LOE rbx r12 r13 r14 r15 eax k1
..B2.36:                        # Preds ..B2.35 Latency 5
..L102:         # optimization report
                # %s was not vectorized: loop control variable %s was found, but loop iteration count cannot be computed before executing the loop
..LN343:
        testq     %r15, %r15                                    #37.31 c1
..LN344:
        jle       ..B2.37       # Prob 50%                      #37.31 c5
..LN345:
        jmp       ..B2.38       # Prob 100%                     #37.31 c5
..LN346:
                                # LOE rbx r12 r13 r14 r15 eax k1
..B2.39:                        # Preds ..B2.30 ..B2.35 Latency 21
..LN347:
        vbroadcastsd 8(%rsp), %zmm1                             # c1
..LN348:
        xorl      %eax, %eax                                    # c1
..LN349:
        incl      %eax                                          #
..LN350:
        vbroadcastsd (%rsp), %zmm2                              # c5
..LN351:
        movq      %rbx, %rdx                                    # c5
..LN352:
        movq      %r12, %rsi                                    # c9
..LN353:
        movq      %r14, %r12                                    # c9
..LN354:
        kmov      %eax, %k1                                     # c13
..LN355:
        movq      56(%rsp), %r13                                # c13
	.cfi_restore 13
..LN356:
        movq      64(%rsp), %r14                                # c17
	.cfi_restore 14
..LN357:
        movq      72(%rsp), %r15                                # c17
	.cfi_restore 15
..LN358:
        movq      80(%rsp), %rbx                                # c21
	.cfi_restore 3
	.cfi_escape 0x10, 0x03, 0x0e, 0x38, 0x1c, 0x0d, 0xc0, 0xff, 0xff, 0xff, 0x1a, 0x0d, 0xd0, 0xfd, 0xff, 0xff, 0x22
	.cfi_escape 0x10, 0x0d, 0x0e, 0x38, 0x1c, 0x0d, 0xc0, 0xff, 0xff, 0xff, 0x1a, 0x0d, 0xb8, 0xfd, 0xff, 0xff, 0x22
	.cfi_escape 0x10, 0x0e, 0x0e, 0x38, 0x1c, 0x0d, 0xc0, 0xff, 0xff, 0xff, 0x1a, 0x0d, 0xc0, 0xfd, 0xff, 0xff, 0x22
	.cfi_escape 0x10, 0x0f, 0x0e, 0x38, 0x1c, 0x0d, 0xc0, 0xff, 0xff, 0xff, 0x1a, 0x0d, 0xc8, 0xfd, 0xff, 0xff, 0x22
..LN359:
                                # LOE rdx rbx rsi r12 r13 r14 r15 eax ebx r13d r14d r15d bl bh r13b r14b r15b xmm1 xmm2 ymm1 ymm2 zmm1 zmm2 k1
..B2.41:                        # Preds ..B2.39 Latency 21
..LN360:
	.loc    1  34  is_stmt 1
        movq      $0, 112(%rsp)                                 #34.12 c1
..LN361:
	.loc    1  36  is_stmt 1
        kmov      %eax, %k2                                     #36.22 c5
..LN362:
        movq      %rdx, 96(%rsp)                                #36.22 c5
..LN363:
        vpackstorelpd %zmm2, (%rsp){%k2}                        #36.22 c9
..LN364:
        vpackstorelpd %zmm1, 8(%rsp){%k2}                       #36.22 c13
..LN365:
        movb      %al, %al                                      #36.22 c13
..LN366:
        movq      %rsi, 104(%rsp)                               #36.22 c17
..___tag_value__Z6timeSiPfii.111:
..LN367:
        call      omp_get_wtime                                 #36.22
..___tag_value__Z6timeSiPfii.112:
..LN368:
                                # LOE rbx r12 r13 r14 r15 ebx r13d r14d r15d bl bh r13b r14b r15b zmm0
..B2.68:                        # Preds ..B2.41 Latency 13
..LN369:
        vbroadcastsd 8(%rsp), %zmm1                             # c1
..LN370:
        xorl      %eax, %eax                                    # c1
..LN371:
        incl      %eax                                          #
..LN372:
        vbroadcastsd (%rsp), %zmm2                              # c5
..LN373:
        kmov      %eax, %k1                                     # c5
..LN374:
        movq      104(%rsp), %rsi                               # c9
..LN375:
        movb      $1, %cl                                       #36.22 c9
..LN376:
        movq      96(%rsp), %rdx                                # c13
..LN377:
        jmp       ..B2.42       # Prob 100%                     # c13
..LN378:
                                # LOE rdx rbx rsi r12 r13 r14 r15 cl zmm0 zmm1 zmm2 k1
..B2.50:                        # Preds ..B2.49 Latency 22
..LN379:
        vbroadcastsd 24(%rsp), %zmm0                            # c1
..LN380:
        movq      %r15, 112(%rsp)                               # c1
..LN381:
        vbroadcastsd 8(%rsp), %zmm1                             # c5
..LN382:
        movq      %rbx, %rdx                                    # c5
..LN383:
        vbroadcastsd (%rsp), %zmm2                              # c9
..LN384:
        movq      %r12, %rsi                                    # c9
..LN385:
        movq      %r14, %r12                                    # c13
..LN386:
        movb      $1, %cl                                       # c13
..LN387:
        movq      56(%rsp), %r13                                # c17
	.cfi_restore 13
..LN388:
        movq      64(%rsp), %r14                                # c17
	.cfi_restore 14
..LN389:
        movq      72(%rsp), %r15                                # c21
	.cfi_restore 15
..LN390:
        movq      80(%rsp), %rbx                                # c21
	.cfi_restore 3
	.cfi_escape 0x10, 0x03, 0x0e, 0x38, 0x1c, 0x0d, 0xc0, 0xff, 0xff, 0xff, 0x1a, 0x0d, 0xd0, 0xfd, 0xff, 0xff, 0x22
	.cfi_escape 0x10, 0x0d, 0x0e, 0x38, 0x1c, 0x0d, 0xc0, 0xff, 0xff, 0xff, 0x1a, 0x0d, 0xb8, 0xfd, 0xff, 0xff, 0x22
	.cfi_escape 0x10, 0x0e, 0x0e, 0x38, 0x1c, 0x0d, 0xc0, 0xff, 0xff, 0xff, 0x1a, 0x0d, 0xc0, 0xfd, 0xff, 0xff, 0x22
	.cfi_escape 0x10, 0x0f, 0x0e, 0x38, 0x1c, 0x0d, 0xc0, 0xff, 0xff, 0xff, 0x1a, 0x0d, 0xc8, 0xfd, 0xff, 0xff, 0x22
..LN391:
                                # LOE rdx rbx rsi r12 r13 r14 r15 cl zmm0 zmm1 zmm2 k1
..B2.42:                        # Preds ..B2.50 ..B2.68 Latency 33
..LN392:
	.loc    1  37  is_stmt 1
        movb      %cl, %al                                      #37.31 c1
..LN393:
        xorl      %ecx, %ecx                                    #37.31 c1
..LN394:
        incl      %ecx                                          #37.31
..LN395:
        kmov      %ecx, %k1                                     #37.31 c5
..LN396:
        movq      %r13, 56(%rsp)                                #37.31 c5
..LN397:
        vpackstorelpd %zmm0, 24(%rsp){%k1}                      #37.31 c9
..LN398:
        movq      88(%rsp), %r13                                #37.31 c9
..LN399:
        vpackstorelpd %zmm1, 8(%rsp){%k1}                       #37.31 c13
..LN400:
        vpackstorelpd %zmm2, (%rsp){%k1}                        #37.31 c17
..LN401:
        movb      %al, %al                                      #37.31 c17
..LN402:
        movq      %r14, 64(%rsp)                                #37.31 c21
..LN403:
        movq      %r12, %r14                                    #37.31 c21
..LN404:
        movq      %r15, 72(%rsp)                                #37.31 c25
..LN405:
        movq      %rsi, %r12                                    #37.31 c25
..LN406:
        movq      %rbx, 80(%rsp)                                #37.31 c29
..LN407:
        movq      %rdx, %rbx                                    #37.31 c29
..LN408:
        movq      112(%rsp), %r15                               #37.31 c33
..LN409:
        jmp       ..B2.43       # Prob 100%                     #37.31 c33
..LN410:
                                # LOE rbx r12 r13 r14 r15 al
..B2.51:                        # Preds ..B2.49 Latency 2
..LN411:
        xorb      %al, %al                                      #37.31 c1
..LN412:
                                # LOE rbx r12 r13 r14 r15 al
..B2.43:                        # Preds ..B2.42 ..B2.51 Latency 5
..LN413:
        incq      %r15                                          #37.24 c1
..LN414:
        testb     %al, %al                                      #37.31 c5
..LN415:
        je        ..B2.52       # Prob 50%                      #37.31 c5
..LN416:
                                # LOE rbx r12 r13 r14 r15
..B2.44:                        # Preds ..B2.43 Latency 1
..___tag_value__Z6timeSiPfii.121:
..LN417:
	.loc    1  41  is_stmt 1
        call      omp_get_wtime                                 #41.14
..___tag_value__Z6timeSiPfii.122:
..LN418:
                                # LOE rbx r12 r13 r14 r15 zmm0
..B2.69:                        # Preds ..B2.44 Latency 9
..LN419:
        xorl      %eax, %eax                                    #41.14 c1
..LN420:
        incl      %eax                                          #41.14
..LN421:
        kmov      %eax, %k1                                     #41.14 c5
..LN422:
        vpackstorelpd %zmm0, 16(%rsp){%k1}                      #41.14 c9
..LN423:
                                # LOE rbx r12 r13 r14 r15
..B2.45:                        # Preds ..B2.69 Latency 9
..LN424:
	.loc    1  43  is_stmt 1
        movq      %r13, %rdi                                    #43.9 c1
..LN425:
        movq      %r12, %rsi                                    #43.9 c1
..LN426:
        movq      %rbx, %rdx                                    #43.9 c5
..___tag_value__Z6timeSiPfii.123:
..LN427:
#       simd(float *, long, long)
        call      _Z4simdPfll                                   #43.9
..___tag_value__Z6timeSiPfii.124:
..LN428:
                                # LOE rbx r12 r13 r14 r15
..B2.46:                        # Preds ..B2.45 Latency 1
..___tag_value__Z6timeSiPfii.125:
..LN429:
	.loc    1  44  is_stmt 1
        call      omp_get_wtime                                 #44.14
..___tag_value__Z6timeSiPfii.126:
..LN430:
                                # LOE rbx r12 r13 r14 r15 zmm0
..B2.47:                        # Preds ..B2.46 Latency 17
..LN431:
	.loc    1  47  is_stmt 1
        xorl      %eax, %eax                                    #47.16 c1
..LN432:
        incl      %eax                                          #47.16
..LN433:
        kmov      %eax, %k1                                     #47.16 c5
..LN434:
        vsubpd    16(%rsp){1to8}, %zmm0, %zmm1{%k1}             #47.16 c9
..LN435:
        vbroadcastsd (%rsp), %zmm0                              #47.16 c13
..LN436:
        call      fmin                                          #47.16 c17
..LN437:
                                # LOE rbx r12 r13 r14 r15 zmm0
..B2.72:                        # Preds ..B2.47 Latency 13
..LN438:
        xorl      %eax, %eax                                    #47.16 c1
..LN439:
        incl      %eax                                          #47.16
..LN440:
        kmov      %eax, %k1                                     #47.16 c5
..LN441:
        vpackstorelpd %zmm0, (%rsp){%k1}                        #47.16 c9
..___tag_value__Z6timeSiPfii.127:
..LN442:
	.loc    1  38  is_stmt 1
        call      omp_get_wtime                                 #38.15
..___tag_value__Z6timeSiPfii.128:
..LN443:
                                # LOE rbx r12 r13 r14 r15 zmm0
..B2.48:                        # Preds ..B2.72 Latency 21
..LN444:
        xorl      %eax, %eax                                    #38.33 c1
..LN445:
        incl      %eax                                          #38.33
..LN446:
        kmov      %eax, %k1                                     #38.33 c5
..LN447:
        vsubpd    24(%rsp){1to8}, %zmm0, %zmm0{%k1}             #38.33 c9
..LN448:
	.loc    1  37  is_stmt 1
        vcmpltpd  .L_2il0floatpacket.2(%rip){1to8}, %zmm0, %k0{%k1} #37.15 c13
..LN449:
        nop                                                     #37.15 c17
..LN450:
        jkzd      ..B2.52, %k0  # Prob 50%                      #37.15 c21
..LN451:
                                # LOE rbx r12 r13 r14 r15 eax k1
..B2.49:                        # Preds ..B2.48 Latency 5
..L129:         # optimization report
                # %s was not vectorized: loop control variable %s was found, but loop iteration count cannot be computed before executing the loop
..LN452:
        testq     %r15, %r15                                    #37.31 c1
..LN453:
        jle       ..B2.50       # Prob 50%                      #37.31 c5
..LN454:
        jmp       ..B2.51       # Prob 100%                     #37.31 c5
..LN455:
                                # LOE rbx r12 r13 r14 r15 eax k1
..B2.52:                        # Preds ..B2.43 ..B2.48 Latency 21
..LN456:
        vbroadcastsd 8(%rsp), %zmm1                             # c1
..LN457:
        xorl      %eax, %eax                                    # c1
..LN458:
        incl      %eax                                          #
..LN459:
        vbroadcastsd (%rsp), %zmm2                              # c5
..LN460:
        movq      %rbx, %rdx                                    # c5
..LN461:
        movq      %r12, %rsi                                    # c9
..LN462:
        movq      %r14, %r12                                    # c9
..LN463:
        kmov      %eax, %k1                                     # c13
..LN464:
        movq      56(%rsp), %r13                                # c13
	.cfi_restore 13
..LN465:
        movq      64(%rsp), %r14                                # c17
	.cfi_restore 14
..LN466:
        movq      72(%rsp), %r15                                # c17
	.cfi_restore 15
..LN467:
        movq      80(%rsp), %rbx                                # c21
	.cfi_restore 3
	.cfi_escape 0x10, 0x03, 0x0e, 0x38, 0x1c, 0x0d, 0xc0, 0xff, 0xff, 0xff, 0x1a, 0x0d, 0xd0, 0xfd, 0xff, 0xff, 0x22
	.cfi_escape 0x10, 0x0d, 0x0e, 0x38, 0x1c, 0x0d, 0xc0, 0xff, 0xff, 0xff, 0x1a, 0x0d, 0xb8, 0xfd, 0xff, 0xff, 0x22
	.cfi_escape 0x10, 0x0e, 0x0e, 0x38, 0x1c, 0x0d, 0xc0, 0xff, 0xff, 0xff, 0x1a, 0x0d, 0xc0, 0xfd, 0xff, 0xff, 0x22
	.cfi_escape 0x10, 0x0f, 0x0e, 0x38, 0x1c, 0x0d, 0xc0, 0xff, 0xff, 0xff, 0x1a, 0x0d, 0xc8, 0xfd, 0xff, 0xff, 0x22
..LN468:
                                # LOE rdx rbx rsi r12 r13 r14 r15 ebx r13d r14d r15d bl bh r13b r14b r15b xmm1 xmm2 ymm1 ymm2 zmm1 zmm2 k1
..B2.54:                        # Preds ..B2.52 Latency 25
..LN469:
	.loc    1  289  is_stmt 1
        vcmpltpd  %zmm1, %zmm2, %k2{%k1}                        #289.5 c1
..LN470:
        vpackstorelpd %zmm2, 48(%rsp){%k1}                      #289.5 c1
..LN471:
        vmovapd   %zmm1, %zmm0                                  #289.5 c5
..LN472:
        vpackstorelpd %zmm1, 32(%rsp){%k1}                      #289.5 c5
..LN473:
        vmovapd   %zmm2, %zmm0{%k2}                             #289.5 c9
..LN474:
        movq      %r12, %rdi                                    #289.5 c9
..LN475:
        xorl      %eax, %eax                                    #289.5 c13
..LN476:
        movl      %edx, 612(%rsp)                               #289.5 c13
..LN477:
        vpackstorelpd %zmm0, 40(%rsp){%k1}                      #289.5 c17
..LN478:
        movb      %dl, %dl                                      #289.5 c17
..LN479:
        movl      %esi, 608(%rsp)                               #289.5 c21
..___tag_value__Z6timeSiPfii.138:
..LN480:
        call      __offload_target_leave                        #289.5
..___tag_value__Z6timeSiPfii.139:
..LN481:
                                # LOE rbx r13 r14 r15 ebx r13d r14d r15d bl bh r13b r14b r15b
..B2.55:                        # Preds ..B2.54 Latency 9
..LN482:
	.loc    1  289  epilogue_begin  is_stmt 1
        addq      $632, %rsp                                    #289.5
	.cfi_restore 12
..LN483:
        popq      %r12                                          #289.5
..LN484:
        movq      %rbp, %rsp                                    #289.5 c9
..LN485:
        popq      %rbp                                          #289.5
	.cfi_def_cfa 7, 8
	.cfi_restore 6
..LN486:
        ret                                                     #289.5
	.cfi_def_cfa 6, 16
	.cfi_restore 3
	.cfi_restore 13
	.cfi_restore 14
	.cfi_restore 15
..LN487:
                                # LOE
	.type	__offload_entry_nbody_cpp_289timeSi_2a3c14a2b98be1db2ef2390f3d1fea1dicc010706210850ujhShB,@function
	.size	__offload_entry_nbody_cpp_289timeSi_2a3c14a2b98be1db2ef2390f3d1fea1dicc010706210850ujhShB,.-__offload_entry_nbody_cpp_289timeSi_2a3c14a2b98be1db2ef2390f3d1fea1dicc010706210850ujhShB
	.globl _Z6timeSiPfii
_Z6timeSiPfii:
# parameter 1(A): %rdi
# parameter 2(N): %esi
# parameter 3(M): %edx
..B2.56:                        # Preds ..B2.0 Latency 13
..LN488:
	.loc    1  286  is_stmt 1
        pushq     %rbp                                          #286.53
	.cfi_def_cfa 7, 16
..LN489:
        movq      %rsp, %rbp                                    #286.53
	.cfi_def_cfa 6, 16
	.cfi_offset 6, -16
..LN490:
        andq      $-64, %rsp                                    #286.53
..LN491:
        pushq     %r12                                          #286.53 c1
..LN492:
        subq      $632, %rsp                                    #286.53 c1
..LN493:
	.loc    1  286  epilogue_begin  is_stmt 1
        addq      $632, %rsp                                    #286.53
	.cfi_escape 0x10, 0x0c, 0x0e, 0x38, 0x1c, 0x0d, 0xc0, 0xff, 0xff, 0xff, 0x1a, 0x0d, 0xf8, 0xff, 0xff, 0xff, 0x22
	.cfi_restore 12
..LN494:
        popq      %r12                                          #286.53
..LN495:
        movq      %rbp, %rsp                                    #286.53 c13
..LN496:
        popq      %rbp                                          #286.53
	.cfi_def_cfa 7, 8
	.cfi_restore 6
..LN497:
        ret                                                     #286.53
        .align    16,0x90
	.cfi_endproc
..LN498:
                                # LOE
..LN499:
# mark_end;
	.type	_Z6timeSiPfii,@function
	.size	_Z6timeSiPfii,.-_Z6timeSiPfii
..LN_Z6timeSiPfii.500:
.LN_Z6timeSiPfii:
	.data
	.align 64
	.align 64
.2.28_2__offload_var_desc1_p.80:
	.byte	34
	.byte	1
	.byte	1
	.byte	1
	.long	8
	.long	0
	.long	0
	.long	0x00000000,0x00000000
	.long	0x00000008,0x00000000
	.long	0x00000001,0x00000000
	.long	0x00000000,0x00000000
	.long	0x00000000,0x00000000
	.long	0x00000000,0x00000000
	.byte	17
	.byte	3
	.byte	1
	.byte	1
	.long	8
	.long	0
	.long	0
	.long	0x00000000,0x00000000
	.long	0x00000004,0x00000000
	.long	0x00000001,0x00000000
	.long	0x00000000,0x00000000
	.long	0x00000000,0x00000000
	.long	0x00000000,0x00000000
	.byte	17
	.byte	3
	.byte	1
	.byte	1
	.long	8
	.long	0
	.long	0
	.long	0x00000000,0x00000000
	.long	0x00000004,0x00000000
	.long	0x00000001,0x00000000
	.long	0x00000000,0x00000000
	.long	0x00000000,0x00000000
	.long	0x00000000,0x00000000
	.byte	17
	.byte	3
	.byte	1
	.byte	1
	.long	8
	.long	0
	.long	0
	.long	0x00000000,0x00000000
	.long	0x00000008,0x00000000
	.long	0x00000001,0x00000000
	.long	0x00000000,0x00000000
	.long	0x00000000,0x00000000
	.long	0x00000000,0x00000000
	.byte	17
	.byte	3
	.byte	1
	.byte	1
	.long	8
	.long	0
	.long	0
	.long	0x00000000,0x00000000
	.long	0x00000008,0x00000000
	.long	0x00000001,0x00000000
	.long	0x00000000,0x00000000
	.long	0x00000000,0x00000000
	.long	0x00000000,0x00000000
	.byte	17
	.byte	3
	.byte	1
	.byte	1
	.long	8
	.long	0
	.long	0
	.long	0x00000000,0x00000000
	.long	0x00000008,0x00000000
	.long	0x00000001,0x00000000
	.long	0x00000000,0x00000000
	.long	0x00000000,0x00000000
	.long	0x00000000,0x00000000
	.align 64
.2.28_2__offload_var_desc2_p.85:
	.quad	__sd_2inst_string.1
	.long	0x00000000,0x00000000
	.quad	__sd_2inst_string.2
	.long	0x00000000,0x00000000
	.quad	__sd_2inst_string.3
	.long	0x00000000,0x00000000
	.quad	__sd_2inst_string.4
	.long	0x00000000,0x00000000
	.quad	__sd_2inst_string.5
	.long	0x00000000,0x00000000
	.quad	__sd_2inst_string.6
	.long	0x00000000,0x00000000
	.section .rodata, "a"
	.align 8
	.align 4
__sd_2inst_string.0:
	.byte	95
	.byte	95
	.byte	111
	.byte	102
	.byte	102
	.byte	108
	.byte	111
	.byte	97
	.byte	100
	.byte	95
	.byte	101
	.byte	110
	.byte	116
	.byte	114
	.byte	121
	.byte	95
	.byte	110
	.byte	98
	.byte	111
	.byte	100
	.byte	121
	.byte	95
	.byte	99
	.byte	112
	.byte	112
	.byte	95
	.byte	50
	.byte	56
	.byte	57
	.byte	116
	.byte	105
	.byte	109
	.byte	101
	.byte	83
	.byte	105
	.byte	95
	.byte	50
	.byte	97
	.byte	51
	.byte	99
	.byte	49
	.byte	52
	.byte	97
	.byte	50
	.byte	98
	.byte	57
	.byte	56
	.byte	98
	.byte	101
	.byte	49
	.byte	100
	.byte	98
	.byte	50
	.byte	101
	.byte	102
	.byte	50
	.byte	51
	.byte	57
	.byte	48
	.byte	102
	.byte	51
	.byte	100
	.byte	49
	.byte	102
	.byte	101
	.byte	97
	.byte	49
	.byte	100
	.byte	105
	.byte	99
	.byte	99
	.byte	48
	.byte	49
	.byte	48
	.byte	55
	.byte	48
	.byte	54
	.byte	50
	.byte	49
	.byte	48
	.byte	56
	.byte	53
	.byte	48
	.byte	117
	.byte	106
	.byte	104
	.byte	83
	.byte	104
	.byte	66
	.byte	0
	.space 2, 0x00 	# pad
	.align 4
__sd_2inst_string.1:
	.byte	112
	.byte	65
	.byte	95
	.byte	109
	.byte	105
	.byte	99
	.byte	0
	.space 1, 0x00 	# pad
	.align 4
__sd_2inst_string.2:
	.byte	78
	.byte	0
	.space 2, 0x00 	# pad
	.align 4
__sd_2inst_string.3:
	.byte	77
	.byte	0
	.space 2, 0x00 	# pad
	.align 4
__sd_2inst_string.4:
	.byte	116
	.byte	48
	.byte	0
	.space 1, 0x00 	# pad
	.align 4
__sd_2inst_string.5:
	.byte	116
	.byte	109
	.byte	105
	.byte	110
	.byte	0
	.space 3, 0x00 	# pad
	.align 4
__sd_2inst_string.6:
	.byte	116
	.byte	49
	.byte	0
	.section .OffloadEntryTable., "waG",@progbits,__offload_entry_nbody_cpp_289timeSi_2a3c14a2b98be1db2ef2390f3d1fea1dicc010706210850ujhShB_$entry,comdat
	.align 16
__offload_entry_nbody_cpp_289timeSi_2a3c14a2b98be1db2ef2390f3d1fea1dicc010706210850ujhShB_$entry:
	.type	__offload_entry_nbody_cpp_289timeSi_2a3c14a2b98be1db2ef2390f3d1fea1dicc010706210850ujhShB_$entry,@object
	.size	__offload_entry_nbody_cpp_289timeSi_2a3c14a2b98be1db2ef2390f3d1fea1dicc010706210850ujhShB_$entry,16
	.quad	__sd_2inst_string.0
	.quad	__offload_entry_nbody_cpp_289timeSi_2a3c14a2b98be1db2ef2390f3d1fea1dicc010706210850ujhShB
	.data
# -- End  _Z6timeSiPfii, __offload_entry_nbody_cpp_289timeSi_2a3c14a2b98be1db2ef2390f3d1fea1dicc010706210850ujhShB
	.text
.L_2__routine_start__Z4simdPfll_2:
# -- Begin  _Z4simdPfll, L__Z4simdPfll_148__par_loop0_2.4
	.text
# mark_begin;
# Threads 4
        .align    16,0x90
	.globl _Z4simdPfll
# --- simd(float *, long, long)
_Z4simdPfll:
# parameter 1(buf): %rdi
# parameter 2(nParticles): %rsi
# parameter 3(nSteps): %rdx
..B3.1:                         # Preds ..B3.0 Latency 25
	.cfi_startproc
	.cfi_personality 0x3,__gxx_personality_v0
..___tag_value__Z4simdPfll.164:
..L165:
                                                        #131.1
..LN501:
	.loc    1  131  is_stmt 1
        pushq     %rbp                                          #131.1
	.cfi_def_cfa_offset 16
..LN502:
        movq      %rsp, %rbp                                    #131.1
	.cfi_def_cfa 6, 16
	.cfi_offset 6, -16
..LN503:
        andq      $-64, %rsp                                    #131.1
..LN504:
        subq      $1664, %rsp                                   #131.1 c1
..LN505:
        movq      %rbx, 1440(%rsp)                              #131.1 c5
	.cfi_escape 0x10, 0x03, 0x0e, 0x38, 0x1c, 0x0d, 0xc0, 0xff, 0xff, 0xff, 0x1a, 0x0d, 0x20, 0xff, 0xff, 0xff, 0x22
..LN506:
        movq      %rdi, %rbx                                    #131.1 c5
..LN507:
        movl      $.2.29_2_kmpc_loc_struct_pack.12, %edi        #131.1 c9
..LN508:
        movq      %r15, 1408(%rsp)                              #131.1 c9
..LN509:
        movq      %r14, 1416(%rsp)                              #131.1 c13
..LN510:
        movq      %r12, 1432(%rsp)                              #131.1 c13
..LN511:
        movq      %r13, 1424(%rsp)                              #131.1 c17
	.cfi_escape 0x10, 0x0c, 0x0e, 0x38, 0x1c, 0x0d, 0xc0, 0xff, 0xff, 0xff, 0x1a, 0x0d, 0x18, 0xff, 0xff, 0xff, 0x22
	.cfi_escape 0x10, 0x0d, 0x0e, 0x38, 0x1c, 0x0d, 0xc0, 0xff, 0xff, 0xff, 0x1a, 0x0d, 0x10, 0xff, 0xff, 0xff, 0x22
	.cfi_escape 0x10, 0x0e, 0x0e, 0x38, 0x1c, 0x0d, 0xc0, 0xff, 0xff, 0xff, 0x1a, 0x0d, 0x08, 0xff, 0xff, 0xff, 0x22
	.cfi_escape 0x10, 0x0f, 0x0e, 0x38, 0x1c, 0x0d, 0xc0, 0xff, 0xff, 0xff, 0x1a, 0x0d, 0x00, 0xff, 0xff, 0xff, 0x22
..LN512:
        movq      %rdx, %r12                                    #131.1 c17
..LN513:
        movq      %rsi, 352(%rsp)                               #131.1 c21
..LN514:
        call      __kmpc_global_thread_num                      #131.1 c25
..LN515:
                                # LOE rbx r12 eax
..B3.123:                       # Preds ..B3.1 Latency 1
..LN516:
	.loc    1  131  prologue_end  is_stmt 1
        movl      %eax, %r10d                                   #131.1 c1
..LN517:
	.loc    1  135  is_stmt 1
        movq      352(%rsp), %r9                                #135.43 c1
..LN518:
                                # LOE rbx r9 r12 r10d
..B3.4:                         # Preds ..B3.123 Latency 5
..LN519:
	.loc    1  144  is_stmt 1
        xorl      %r11d, %r11d                                  #144.5 c1
..LN520:
        testq     %r12, %r12                                    #144.31 c1
..LN521:
        jle       ..B3.43       # Prob 9%                       #144.31 c5
..LN522:
                                # LOE rbx r9 r12 r10d r11d
..B3.5:                         # Preds ..B3.4 Latency 65
..LN523:
	.loc    1  178  is_stmt 1
        vmovaps   .L_2il0floatpacket.6(%rip), %zmm5             #178.29 c1
..LN524:
	.loc    1  176  is_stmt 1
        vmovaps   .L_2il0floatpacket.7(%rip), %zmm4             #176.5 c5
..LN525:
        vmovapd   .L_2il0floatpacket.8(%rip), %zmm3             #176.5 c9
..LN526:
        vmovapd   .L_2il0floatpacket.9(%rip), %zmm2             #176.5 c13
..LN527:
	.loc    1  178  is_stmt 1
        vpxord    %zmm1, %zmm1, %zmm1                           #178.9 c17
..LN528:
        vmovaps   %zmm6, 128(%rsp)                              #178.29 c17
..LN529:
        vbroadcastss .L_2il0floatpacket.5(%rip), %zmm0          #178.29 c21
..LN530:
        vmovaps   %zmm7, 192(%rsp)                              #178.29 c25
..LN531:
	.loc    1  136  is_stmt 1
        lea       (,%r9,8), %rsi                                #136.12 c25
..LN532:
	.loc    1  178  is_stmt 1
        vmovaps   %zmm8, (%rsp)                                 #178.29 c29
..LN533:
	.loc    1  136  is_stmt 1
        lea       (%r9,%r9,4), %rax                             #136.62 c29
..LN534:
	.loc    1  178  is_stmt 1
        vmovaps   %zmm9, 64(%rsp)                               #178.29 c33
..LN535:
	.loc    1  136  is_stmt 1
        movq      %r9, %rcx                                     #136.37 c33
..LN536:
        shlq      $4, %rcx                                      #136.37 c37
..LN537:
        lea       (%rsi,%r9,4), %rdi                            #136.12 c37
..LN538:
        lea       (%rbx,%rax,4), %rdx                           #136.62 c41
..LN539:
        addq      %rbx, %rcx                                    #136.37 c41
..LN540:
        addq      %rbx, %rdi                                    #136.12 c45
..LN541:
	.loc    1  135  is_stmt 1
        lea       (%rbx,%r9,8), %r8                             #135.62 c45
..LN542:
        lea       (%rbx,%r9,4), %r9                             #135.37 c49
..LN543:
	.loc    1  136  is_stmt 1
        movq      %rdx, 296(%rsp)                               #136.55 c49
..LN544:
        movq      %rcx, 288(%rsp)                               #136.30 c53
..LN545:
        movq      %rdi, 280(%rsp)                               #136.5 c53
..LN546:
	.loc    1  135  is_stmt 1
        movq      %r8, 272(%rsp)                                #135.55 c57
..LN547:
        movq      %r9, 264(%rsp)                                #135.30 c57
..LN548:
        movq      %rbx, 256(%rsp)                               #135.5 c61
..LN549:
	.loc    1  131  is_stmt 1
        movl      %r10d, 304(%rsp)                              #131.1 c61
..LN550:
	.loc    1  178  is_stmt 1
        movl      %r11d, 360(%rsp)                              #178.29 c65
..LN551:
        movq      %r12, 368(%rsp)                               #178.29 c65
..LN552:
                                # LOE
..B3.6:                         # Preds ..B3.41 ..B3.5 Latency 5
..L175:         # optimization report
                # %s was not vectorized: inner loop was already vectorized
..___tag_value__Z4simdPfll.176:
..LN553:
	.loc    1  145  is_stmt 1
        call      omp_get_wtime                                 #145.27
..___tag_value__Z4simdPfll.177:
..LN554:
                                # LOE
..B3.7:                         # Preds ..B3.6 Latency 5
..LN555:
	.loc    1  148  is_stmt 1
        movl      $.2.29_2_kmpc_loc_struct_pack.27, %edi        #148.5 c1
..LN556:
        xorl      %eax, %eax                                    #148.5 c1
..___tag_value__Z4simdPfll.178:
..LN557:
        call      __kmpc_ok_to_fork                             #148.5
..___tag_value__Z4simdPfll.179:
..LN558:
                                # LOE eax
..B3.8:                         # Preds ..B3.7 Latency 1
..LN559:
        testl     %eax, %eax                                    #148.5 c1
..LN560:
        je        ..B3.10       # Prob 50%                      #148.5 c1
..LN561:
                                # LOE
..B3.9:                         # Preds ..B3.8 Latency 37
..LN562:
        addq      $-48, %rsp                                    #148.5 c1
..LN563:
        movl      $L__Z4simdPfll_148__par_loop0_2.4, %edx       #148.5 c1
..LN564:
        lea       312(%rsp), %rax                               #148.5 c5
..LN565:
        movl      $.2.29_2_kmpc_loc_struct_pack.27, %edi        #148.5 c5
..LN566:
        lea       8(%rax), %rcx                                 #148.5 c9
..LN567:
        lea       16(%rax), %rbx                                #148.5 c9
..LN568:
        lea       24(%rax), %r8                                 #148.5 c13
..LN569:
        movq      %rax, (%rsp)                                  #148.5 c13
..LN570:
        movq      %rcx, 8(%rsp)                                 #148.5 c17
..LN571:
        lea       32(%rax), %r9                                 #148.5 c17
..LN572:
        movq      %rbx, 16(%rsp)                                #148.5 c21
..LN573:
        movl      $8, %esi                                      #148.5 c21
..LN574:
        movq      %r8, 24(%rsp)                                 #148.5 c25
..LN575:
        lea       -8(%rax), %r8                                 #148.5 c25
..LN576:
        movq      %r9, 32(%rsp)                                 #148.5 c29
..LN577:
        lea       88(%rax), %rcx                                #148.5 c29
..LN578:
        movq      %r8, %r9                                      #148.5 c33
..LN579:
        xorl      %eax, %eax                                    #148.5 c33
..___tag_value__Z4simdPfll.180:
..LN580:
        call      __kmpc_fork_call                              #148.5
..___tag_value__Z4simdPfll.181:
..LN581:
                                # LOE
..B3.125:                       # Preds ..B3.9 Latency 2
..LN582:
        addq      $48, %rsp                                     #148.5 c1
..LN583:
        jmp       ..B3.13       # Prob 100%                     #148.5 c1
..LN584:
                                # LOE
..B3.10:                        # Preds ..B3.8 Latency 9
..LN585:
        movl      304(%rsp), %esi                               #148.5 c1
..LN586:
        movl      $.2.29_2_kmpc_loc_struct_pack.27, %edi        #148.5 c1
..LN587:
        xorl      %eax, %eax                                    #148.5 c5
..___tag_value__Z4simdPfll.182:
..LN588:
        call      __kmpc_serialized_parallel                    #148.5
..___tag_value__Z4simdPfll.183:
..LN589:
                                # LOE
..B3.11:                        # Preds ..B3.10 Latency 33
..LN590:
        lea       304(%rsp), %rdi                               #148.5 c1
..LN591:
        movl      $___kmpv_zero_Z4simdPfll_0, %esi              #148.5 c1
..LN592:
        lea       -8(%rdi), %rax                                #148.5 c5
..LN593:
        lea       -8(%rax), %rdx                                #148.5 c9
..LN594:
        lea       -16(%rax), %rcx                               #148.5 c9
..LN595:
        pushq     %rax                                          #148.5 c13
..LN596:
        lea       -24(%rax), %rbx                               #148.5 c13
..LN597:
        pushq     %rdx                                          #148.5 c17
..LN598:
        lea       56(%rax), %rdx                                #148.5 c17
..LN599:
        pushq     %rcx                                          #148.5 c21
..LN600:
        lea       -40(%rax), %rcx                               #148.5 c21
..LN601:
        movq      %rcx, %r8                                     #148.5 c25
..LN602:
        lea       -32(%rax), %r9                                #148.5 c25
..LN603:
        pushq     %rbx                                          #148.5 c29
..___tag_value__Z4simdPfll.184:
..LN604:
        call      L__Z4simdPfll_148__par_loop0_2.4              #148.5
..___tag_value__Z4simdPfll.185:
..LN605:
                                # LOE
..B3.126:                       # Preds ..B3.11 Latency 1
..LN606:
        addq      $32, %rsp                                     #148.5 c1
..LN607:
                                # LOE
..B3.12:                        # Preds ..B3.126 Latency 9
..LN608:
        movl      304(%rsp), %esi                               #148.5 c1
..LN609:
        movl      $.2.29_2_kmpc_loc_struct_pack.27, %edi        #148.5 c1
..LN610:
        xorl      %eax, %eax                                    #148.5 c5
..___tag_value__Z4simdPfll.186:
..LN611:
        call      __kmpc_end_serialized_parallel                #148.5
..___tag_value__Z4simdPfll.187:
..LN612:
                                # LOE
..B3.13:                        # Preds ..B3.125 ..B3.12 Latency 5
..LN613:
	.loc    1  176  is_stmt 1
        movq      352(%rsp), %rsi                               #176.24 c1
..LN614:
        testq     %rsi, %rsi                                    #176.24 c5
..LN615:
        jle       ..B3.40       # Prob 50%                      #176.24 c5
..LN616:
                                # LOE rsi
..B3.14:                        # Preds ..B3.13 Latency 17
..LN617:
	.loc    1  178  is_stmt 1
        movq      272(%rsp), %r9                                #178.56 c1
..LN618:
        movq      256(%rsp), %rcx                               #178.9 c1
..LN619:
	.loc    1  176  is_stmt 1
        movq      %r9, %r15                                     #176.5 c5
..LN620:
	.loc    1  178  is_stmt 1
        movq      264(%rsp), %r8                                #178.33 c5
..LN621:
        movq      280(%rsp), %rdx                               #178.20 c9
..LN622:
        movq      288(%rsp), %rbx                               #178.44 c9
..LN623:
        movq      296(%rsp), %rdi                               #178.67 c13
..LN624:
	.loc    1  176  is_stmt 1
        andq      $63, %r15                                     #176.5 c13
..LN625:
        je        ..B3.16       # Prob 50%                      #176.5 c17
..LN626:
                                # LOE rdx rcx rbx rsi rdi r8 r9 r15
..B3.15:                        # Preds ..B3.14 Latency 17
..LN627:
        negq      %r15                                          #176.5 c1
..LN628:
        addq      $64, %r15                                     #176.5 c5
..LN629:
        shrq      $2, %r15                                      #176.5 c9
..LN630:
        cmpq      %r15, %rsi                                    #176.5 c13
..LN631:
        jge       ..L188        # Prob 50%                      #176.5 c17
..LN632:
        movq      %rsi, %r15                                    #176.5
..L188:                                                         #
..LN633:
                                # LOE rdx rcx rbx rsi rdi r8 r9 r15
..B3.16:                        # Preds ..B3.15 ..B3.14 Latency 21
..LN634:
        movq      %rsi, %rax                                    #176.5 c1
..LN635:
        subq      %r15, %rax                                    #176.5 c5
..LN636:
        andq      $31, %rax                                     #176.5 c9
..LN637:
        negq      %rax                                          #176.5 c13
..LN638:
        addq      %rsi, %rax                                    #176.5 c17
..LN639:
        cmpq      $1, %r15                                      #176.5 c21
..LN640:
        jb        ..B3.22       # Prob 50%                      #176.5 c21
..LN641:
                                # LOE rax rdx rcx rbx rsi rdi r8 r9 r15
..B3.17:                        # Preds ..B3.16 Latency 1
..LN642:
        vmovdqa32 .L_2il0floatpacket.11(%rip), %zmm1            #176.5 c1
..LN643:
                                # LOE rax rdx rcx rbx rsi rdi r8 r9 r15 zmm1
..B3.19:                        # Preds ..B3.17 Latency 69
..LN644:
        vmovaps   .L_2il0floatpacket.10(%rip), %zmm0            #176.5 c1
..LN645:
        vbroadcastss .L_2il0floatpacket.5(%rip), %zmm3          #176.5 c5
..LN646:
        vpxord    %zmm4, %zmm4, %zmm4                           #176.5 c9
..LN647:
        movq      %rax, 344(%rsp)                               #176.5 c9
..LN648:
        vmovapd   .L_2il0floatpacket.9(%rip), %zmm5             #176.5 c13
..LN649:
        vmovapd   .L_2il0floatpacket.8(%rip), %zmm6             #176.5 c17
..LN650:
        vmovaps   .L_2il0floatpacket.7(%rip), %zmm7             #176.5 c21
..LN651:
        vmovaps   128(%rsp), %zmm8                              #176.5 c25
..LN652:
        movl      $1285, %eax                                   #176.5 c25
..LN653:
        vmovaps   192(%rsp), %zmm9                              #176.5 c29
..LN654:
        kmov      %eax, %k5                                     #176.5 c29
..LN655:
        movl      $20560, %eax                                  #176.5 c33
..LN656:
        movq      %r15, 1344(%rsp)                              #176.5 c33
..LN657:
        vpbroadcastq 1344(%rsp), %zmm2                          #176.5 c37
..LN658:
        kmov      %eax, %k4                                     #176.5 c41
..LN659:
        movl      $2570, %eax                                   #176.5 c41
..LN660:
        kmov      %eax, %k3                                     #176.5 c45
..LN661:
        movl      $41120, %eax                                  #176.5 c45
..LN662:
        kmov      %eax, %k2                                     #176.5 c49
..LN663:
        movq      344(%rsp), %rax                               #176.5 c49
..LN664:
        xorl      %r11d, %r11d                                  #176.5 c53
..LN665:
        xorl      %r14d, %r14d                                  #176.5 c53
..LN666:
        movq      %rcx, %r12                                    #176.5 c57
..LN667:
        movq      %r8, %r10                                     #176.5 c57
..LN668:
        movq      %r9, %r13                                     #176.5 c61
..LN669:
        movq      %rax, 312(%rsp)                               #176.5 c61
..LN670:
        movq      %r9, 320(%rsp)                                #176.5 c65
..LN671:
        movq      %r8, 328(%rsp)                                #176.5 c65
..LN672:
        movq      %rcx, 336(%rsp)                               #176.5 c69
..LN673:
                                # LOE rdx rbx rsi rdi r10 r12 r13 r14 r15 r11d zmm0 zmm1 zmm2 zmm3 zmm4 zmm5 zmm6 zmm7 zmm8 zmm9 k2 k3 k4 k5
..B3.20:                        # Preds ..B3.20 ..B3.19 Latency 365
..L189:         # optimization report
                # LOOP WAS VECTORIZED
                # PEELED LOOP FOR VECTORIZATION
                # MASKED VECTORIZATION
                # VECTORIZATION HAS UNALIGNED MEMORY REFERENCES
                # VECTORIZATION SPEEDUP COEFFECIENT 4.503906
                # VECTOR TRIP COUNT IS ESTIMATED CONSTANT
                # VECTOR LENGTH 16
                # NORMALIZED VECTORIZATION OVERHEAD 0.312500
..LN674:
        addl      $16, %r11d                                    #176.5 c1
..LN675:
        vpshufd   $216, %zmm1, %zmm11                           #176.5 c5
..LN676:
        addq      $64, %r12                                     #176.5 c5
..LN677:
        vpshufd   $114, %zmm1, %zmm10                           #176.5 c9
..LN678:
        addq      $64, %r10                                     #176.5 c9
..LN679:
        vpermf32x4 $80, %zmm11, %zmm8{%k5}                      #176.5 c13
..LN680:
        addq      $64, %r14                                     #176.5 c13
..LN681:
        vpermf32x4 $80, %zmm10, %zmm8{%k4}                      #176.5 c17
..LN682:
        addq      $64, %r13                                     #176.5 c17
..LN683:
        vpermf32x4 $80, %zmm10, %zmm8{%k3}                      #176.5 c21
..LN684:
        vmovaps   %zmm8, %zmm12                                 #176.5 c25
..LN685:
        vpermf32x4 $80, %zmm11, %zmm12{%k2}                     #176.5 c29
..LN686:
        vpsrad    $31, %zmm12, %zmm13                           #176.5 c33
..LN687:
        vpermf32x4 $78, %zmm1, %zmm16                           #176.5 c37
..LN688:
        vpandq    %zmm6, %zmm12, %zmm15                         #176.5 c41
..LN689:
        vpandq    %zmm5, %zmm13, %zmm14                         #176.5 c45
..LN690:
        vpshufd   $216, %zmm16, %zmm18                          #176.5 c49
..LN691:
        vporq     %zmm15, %zmm14, %zmm23                        #176.5 c53
..LN692:
        vpshufd   $114, %zmm16, %zmm17                          #176.5 c57
..LN693:
        vpcmpud   $2, %zmm2, %zmm23, %k7                        #176.5 c61
..LN694:
        vpermf32x4 $80, %zmm18, %zmm9{%k5}                      #176.5 c65
..LN695:
        vpcmpud   $0, %zmm2, %zmm23, %k6                        #176.5 c69
..LN696:
        kmov      %k7, %r9d                                     #176.5 c69
..LN697:
        vpermf32x4 $80, %zmm17, %zmm9{%k4}                      #176.5 c73
..LN698:
        addl      %r9d, %r9d                                    #176.5 c73
..LN699:
        vpcmpltd  %zmm2, %zmm23, %k0                            #176.5 c77
..LN700:
        kmov      %k6, %ecx                                     #176.5 c77
..LN701:
        vpermf32x4 $80, %zmm17, %zmm9{%k3}                      #176.5 c81
..LN702:
        andl      %ecx, %r9d                                    #176.5 c81
..LN703:
        vmovaps   %zmm9, %zmm19                                 #176.5 c85
..LN704:
        kmov      %k0, %r8d                                     #176.5 c85
..LN705:
        vpermf32x4 $80, %zmm18, %zmm19{%k2}                     #176.5 c89
..LN706:
        orl       %r8d, %r9d                                    #176.5 c89
..LN707:
        vpsrad    $31, %zmm19, %zmm20                           #176.5 c93
..LN708:
        andl      $-21846, %r9d                                 #176.5 c93
..LN709:
        vmovaps   %zmm4, %zmm24                                 #176.5 c97
..LN710:
        kmov      %r9d, %k1                                     #176.5 c97
..LN711:
        vbroadcastss .L_2il0floatpacket.12(%rip), %zmm24{%k1}   #176.5 c101
..LN712:
        vpandq    %zmm6, %zmm19, %zmm22                         #176.5 c105
..LN713:
        vpandq    %zmm5, %zmm20, %zmm21                         #176.5 c109
..LN714:
        vcmpneqpd %zmm24, %zmm4, %k0                            #176.5 c113
..LN715:
        vporq     %zmm22, %zmm21, %zmm25                        #176.5 c117
..LN716:
        vpcmpud   $0, %zmm2, %zmm25, %k7                        #176.5 c121
..LN717:
        kmov      %k0, %eax                                     #176.5 c121
..LN718:
        vpcmpud   $2, %zmm2, %zmm25, %k0                        #176.5 c125
..LN719:
        movzbl    %al, %eax                                     #176.5 c125
..LN720:
        vpcmpltd  %zmm2, %zmm25, %k6                            #176.5 c129
..LN721:
        kmov      %k7, %ecx                                     #176.5 c129
..LN722:
        vmovaps   %zmm4, %zmm26                                 #176.5 c133
..LN723:
        kmov      %k0, %r9d                                     #176.5 c133
..LN724:
	.loc    1  178  is_stmt 1
        vmovaps   %zmm4, %zmm28                                 #178.9 c137
..LN725:
	.loc    1  176  is_stmt 1
        addl      %r9d, %r9d                                    #176.5 c137
..LN726:
	.loc    1  178  is_stmt 1
        vmovaps   %zmm4, %zmm27                                 #178.20 c141
..LN727:
	.loc    1  176  is_stmt 1
        kmov      %k6, %r8d                                     #176.5 c141
..LN728:
	.loc    1  178  is_stmt 1
        vmovaps   %zmm4, %zmm30                                 #178.33 c145
..LN729:
	.loc    1  176  is_stmt 1
        andl      %ecx, %r9d                                    #176.5 c145
..LN730:
	.loc    1  178  is_stmt 1
        vmovaps   %zmm4, %zmm29                                 #178.44 c149
..LN731:
	.loc    1  176  is_stmt 1
        orl       %r8d, %r9d                                    #176.5 c149
..LN732:
	.loc    1  178  is_stmt 1
        vmovaps   %zmm4, %zmm31                                 #178.67 c153
..LN733:
	.loc    1  176  is_stmt 1
        andl      $-21846, %r9d                                 #176.5 c153
..LN734:
	.loc    1  178  is_stmt 1
        vmovaps   %zmm4, %zmm10                                 #178.56 c157
..LN735:
	.loc    1  176  is_stmt 1
        kmov      %r9d, %k1                                     #176.5 c157
..LN736:
        vbroadcastss .L_2il0floatpacket.12(%rip), %zmm26{%k1}   #176.5 c161
..LN737:
        vcmpneqpd %zmm26, %zmm4, %k6                            #176.5 c165
..LN738:
	.loc    1  178  is_stmt 1
        lea       -64(%rdi,%r14), %r8                           #178.67 c165
..LN739:
	.loc    1  176  is_stmt 1
        vpaddd    %zmm7, %zmm1, %zmm1                           #176.5 c169
..LN740:
        movb      %al, %al                                      #176.5 c169
..LN741:
        kmov      %k6, %ecx                                     #176.5 c173
..LN742:
        shll      $8, %ecx                                      #176.5 c177
..LN743:
        orl       %ecx, %eax                                    #176.5 c181
..LN744:
	.loc    1  178  is_stmt 1
        lea       -64(%rbx,%r14), %rcx                          #178.44 c181
..LN745:
        kmov      %eax, %k1                                     #178.9 c185
..LN746:
        lea       -64(%rdx,%r14), %rax                          #178.20 c185
..LN747:
        kmov      %k1, %k7                                      #178.9 c189
..LN748:
        kmov      %k1, %k6                                      #178.20 c189
..LN749:
        vgatherpf0hintdps -64(%r12,%zmm0,4){%k7}                #178.9 c193
..LN750:
        vgatherpf0hintdps -64(%r12,%zmm0,4){%k7}                #178.9
..LN751:
        nop                                                     #178.9
..L191:                                                         #
..LN752:
        vgatherdps -64(%r12,%zmm0,4), %zmm28{%k7}               #178.9
..LN753:
        jkzd      ..L190, %k7   # Prob 50%                      #178.9
..LN754:
        vgatherdps -64(%r12,%zmm0,4), %zmm28{%k7}               #178.9
..LN755:
        vgatherdps -64(%r12,%zmm0,4), %zmm28{%k7}               #178.9
..LN756:
        vgatherdps -64(%r12,%zmm0,4), %zmm28{%k7}               #178.9
..LN757:
        vgatherdps -64(%r12,%zmm0,4), %zmm28{%k7}               #178.9
..LN758:
        vgatherdps -64(%r12,%zmm0,4), %zmm28{%k7}               #178.9
..LN759:
        vgatherdps -64(%r12,%zmm0,4), %zmm28{%k7}               #178.9
..LN760:
        vgatherdps -64(%r12,%zmm0,4), %zmm28{%k7}               #178.9
..LN761:
        vgatherdps -64(%r12,%zmm0,4), %zmm28{%k7}               #178.9
..LN762:
        jknzd     ..L191, %k7   # Prob 50%                      #178.9
..L190:                                                         #
..LN763:
        vgatherpf0hintdps (%rax,%zmm0,4){%k6}                   #178.20 c213
..LN764:
        vgatherpf0hintdps (%rax,%zmm0,4){%k6}                   #178.20
..LN765:
        nop                                                     #178.20
..L193:                                                         #
..LN766:
        vgatherdps (%rax,%zmm0,4), %zmm27{%k6}                  #178.20
..LN767:
        jkzd      ..L192, %k6   # Prob 50%                      #178.20
..LN768:
        vgatherdps (%rax,%zmm0,4), %zmm27{%k6}                  #178.20
..LN769:
        vgatherdps (%rax,%zmm0,4), %zmm27{%k6}                  #178.20
..LN770:
        vgatherdps (%rax,%zmm0,4), %zmm27{%k6}                  #178.20
..LN771:
        vgatherdps (%rax,%zmm0,4), %zmm27{%k6}                  #178.20
..LN772:
        vgatherdps (%rax,%zmm0,4), %zmm27{%k6}                  #178.20
..LN773:
        vgatherdps (%rax,%zmm0,4), %zmm27{%k6}                  #178.20
..LN774:
        vgatherdps (%rax,%zmm0,4), %zmm27{%k6}                  #178.20
..LN775:
        vgatherdps (%rax,%zmm0,4), %zmm27{%k6}                  #178.20
..LN776:
        jknzd     ..L193, %k6   # Prob 50%                      #178.20
..L192:                                                         #
..LN777:
        vfmadd231ps %zmm3, %zmm27, %zmm28                       #178.9 c233
..LN778:
        kmov      %k1, %k7                                      #178.9 c233
..LN779:
        kmov      %k1, %k6                                      #178.33 c237
..LN780:
        vscatterpf0hintdps -64(%r12,%zmm0,4){%k7}               #178.9 c241
..LN781:
        vscatterpf0hintdps -64(%r12,%zmm0,4){%k7}               #178.9
..LN782:
        nop                                                     #178.9
..L195:                                                         #
..LN783:
        vscatterdps %zmm28, -64(%r12,%zmm0,4){%k7}              #178.9
..LN784:
        jkzd      ..L194, %k7   # Prob 50%                      #178.9
..LN785:
        vscatterdps %zmm28, -64(%r12,%zmm0,4){%k7}              #178.9
..LN786:
        vscatterdps %zmm28, -64(%r12,%zmm0,4){%k7}              #178.9
..LN787:
        vscatterdps %zmm28, -64(%r12,%zmm0,4){%k7}              #178.9
..LN788:
        vscatterdps %zmm28, -64(%r12,%zmm0,4){%k7}              #178.9
..LN789:
        vscatterdps %zmm28, -64(%r12,%zmm0,4){%k7}              #178.9
..LN790:
        vscatterdps %zmm28, -64(%r12,%zmm0,4){%k7}              #178.9
..LN791:
        vscatterdps %zmm28, -64(%r12,%zmm0,4){%k7}              #178.9
..LN792:
        vscatterdps %zmm28, -64(%r12,%zmm0,4){%k7}              #178.9
..LN793:
        jknzd     ..L195, %k7   # Prob 50%                      #178.9
..L194:                                                         #
..LN794:
        vgatherpf0hintdps -64(%r10,%zmm0,4){%k6}                #178.33 c261
..LN795:
        vgatherpf0hintdps -64(%r10,%zmm0,4){%k6}                #178.33
..LN796:
        nop                                                     #178.33
..L197:                                                         #
..LN797:
        vgatherdps -64(%r10,%zmm0,4), %zmm30{%k6}               #178.33
..LN798:
        jkzd      ..L196, %k6   # Prob 50%                      #178.33
..LN799:
        vgatherdps -64(%r10,%zmm0,4), %zmm30{%k6}               #178.33
..LN800:
        vgatherdps -64(%r10,%zmm0,4), %zmm30{%k6}               #178.33
..LN801:
        vgatherdps -64(%r10,%zmm0,4), %zmm30{%k6}               #178.33
..LN802:
        vgatherdps -64(%r10,%zmm0,4), %zmm30{%k6}               #178.33
..LN803:
        vgatherdps -64(%r10,%zmm0,4), %zmm30{%k6}               #178.33
..LN804:
        vgatherdps -64(%r10,%zmm0,4), %zmm30{%k6}               #178.33
..LN805:
        vgatherdps -64(%r10,%zmm0,4), %zmm30{%k6}               #178.33
..LN806:
        vgatherdps -64(%r10,%zmm0,4), %zmm30{%k6}               #178.33
..LN807:
        jknzd     ..L197, %k6   # Prob 50%                      #178.33
..L196:                                                         #
..LN808:
        kmov      %k1, %k7                                      #178.44 c281
..LN809:
        vgatherpf0hintdps (%rcx,%zmm0,4){%k7}                   #178.44 c285
..LN810:
        vgatherpf0hintdps (%rcx,%zmm0,4){%k7}                   #178.44
..LN811:
        nop                                                     #178.44
..L199:                                                         #
..LN812:
        vgatherdps (%rcx,%zmm0,4), %zmm29{%k7}                  #178.44
..LN813:
        jkzd      ..L198, %k7   # Prob 50%                      #178.44
..LN814:
        vgatherdps (%rcx,%zmm0,4), %zmm29{%k7}                  #178.44
..LN815:
        vgatherdps (%rcx,%zmm0,4), %zmm29{%k7}                  #178.44
..LN816:
        vgatherdps (%rcx,%zmm0,4), %zmm29{%k7}                  #178.44
..LN817:
        vgatherdps (%rcx,%zmm0,4), %zmm29{%k7}                  #178.44
..LN818:
        vgatherdps (%rcx,%zmm0,4), %zmm29{%k7}                  #178.44
..LN819:
        vgatherdps (%rcx,%zmm0,4), %zmm29{%k7}                  #178.44
..LN820:
        vgatherdps (%rcx,%zmm0,4), %zmm29{%k7}                  #178.44
..LN821:
        vgatherdps (%rcx,%zmm0,4), %zmm29{%k7}                  #178.44
..LN822:
        jknzd     ..L199, %k7   # Prob 50%                      #178.44
..L198:                                                         #
..LN823:
        vfmadd231ps %zmm3, %zmm29, %zmm30                       #178.33 c305
..LN824:
        kmov      %k1, %k6                                      #178.33 c305
..LN825:
        kmov      %k1, %k7                                      #178.67 c309
..LN826:
        vscatterpf0hintdps -64(%r10,%zmm0,4){%k6}               #178.33 c313
..LN827:
        vscatterpf0hintdps -64(%r10,%zmm0,4){%k6}               #178.33
..LN828:
        nop                                                     #178.33
..L201:                                                         #
..LN829:
        vscatterdps %zmm30, -64(%r10,%zmm0,4){%k6}              #178.33
..LN830:
        jkzd      ..L200, %k6   # Prob 50%                      #178.33
..LN831:
        vscatterdps %zmm30, -64(%r10,%zmm0,4){%k6}              #178.33
..LN832:
        vscatterdps %zmm30, -64(%r10,%zmm0,4){%k6}              #178.33
..LN833:
        vscatterdps %zmm30, -64(%r10,%zmm0,4){%k6}              #178.33
..LN834:
        vscatterdps %zmm30, -64(%r10,%zmm0,4){%k6}              #178.33
..LN835:
        vscatterdps %zmm30, -64(%r10,%zmm0,4){%k6}              #178.33
..LN836:
        vscatterdps %zmm30, -64(%r10,%zmm0,4){%k6}              #178.33
..LN837:
        vscatterdps %zmm30, -64(%r10,%zmm0,4){%k6}              #178.33
..LN838:
        vscatterdps %zmm30, -64(%r10,%zmm0,4){%k6}              #178.33
..LN839:
        jknzd     ..L201, %k6   # Prob 50%                      #178.33
..L200:                                                         #
..LN840:
        vgatherpf0hintdps (%r8,%zmm0,4){%k7}                    #178.67 c333
..LN841:
        vgatherpf0hintdps (%r8,%zmm0,4){%k7}                    #178.67
..LN842:
        nop                                                     #178.67
..L203:                                                         #
..LN843:
        vgatherdps (%r8,%zmm0,4), %zmm31{%k7}                   #178.67
..LN844:
        jkzd      ..L202, %k7   # Prob 50%                      #178.67
..LN845:
        vgatherdps (%r8,%zmm0,4), %zmm31{%k7}                   #178.67
..LN846:
        vgatherdps (%r8,%zmm0,4), %zmm31{%k7}                   #178.67
..LN847:
        vgatherdps (%r8,%zmm0,4), %zmm31{%k7}                   #178.67
..LN848:
        vgatherdps (%r8,%zmm0,4), %zmm31{%k7}                   #178.67
..LN849:
        vgatherdps (%r8,%zmm0,4), %zmm31{%k7}                   #178.67
..LN850:
        vgatherdps (%r8,%zmm0,4), %zmm31{%k7}                   #178.67
..LN851:
        vgatherdps (%r8,%zmm0,4), %zmm31{%k7}                   #178.67
..LN852:
        vgatherdps (%r8,%zmm0,4), %zmm31{%k7}                   #178.67
..LN853:
        jknzd     ..L203, %k7   # Prob 50%                      #178.67
..L202:                                                         #
..LN854:
        vloadunpacklps -64(%r13), %zmm10{%k1}                   #178.56 c353
..LN855:
	.loc    1  176  is_stmt 1
        cmpq      %r15, %r11                                    #176.5 c353
..LN856:
	.loc    1  178  is_stmt 1
        vfmadd231ps %zmm3, %zmm31, %zmm10                       #178.56 c357
..LN857:
        nop                                                     #178.56 c361
..LN858:
        vpackstorelps %zmm10, -64(%r13){%k1}                    #178.56 c365
..LN859:
	.loc    1  176  is_stmt 1
        jb        ..B3.20       # Prob 82%                      #176.5 c365
..LN860:
                                # LOE rdx rbx rsi rdi r10 r12 r13 r14 r15 r11d zmm0 zmm1 zmm2 zmm3 zmm4 zmm5 zmm6 zmm7 zmm8 zmm9 k2 k3 k4 k5
..B3.21:                        # Preds ..B3.20 Latency 13
..LN861:
        vmovaps   %zmm8, 128(%rsp)                              # c1
..LN862:
        movq      312(%rsp), %rax                               # c1
..LN863:
        vmovaps   %zmm9, 192(%rsp)                              # c5
..LN864:
        movq      320(%rsp), %r9                                # c5
..LN865:
        movq      328(%rsp), %r8                                # c9
..LN866:
        cmpq      %r15, %rsi                                    #176.5 c9
..LN867:
        movq      336(%rsp), %rcx                               # c13
..LN868:
        je        ..B3.40       # Prob 10%                      #176.5 c13
..LN869:
                                # LOE rax rdx rcx rbx rsi rdi r8 r9 r15
..B3.22:                        # Preds ..B3.21 ..B3.16 Latency 5
..LN870:
        lea       32(%r15), %r10                                #176.5 c1
..LN871:
        cmpq      %r10, %rax                                    #176.5 c5
..LN872:
        jl        ..B3.32       # Prob 50%                      #176.5 c5
..LN873:
                                # LOE rax rdx rcx rbx rsi rdi r8 r9 r15
..B3.23:                        # Preds ..B3.22 Latency 13
..LN874:
	.loc    1  178  is_stmt 1
        movl      %r15d, %r11d                                  #178.33 c1
..LN875:
        movslq    %r15d, %r10                                   #178.33 c5
..LN876:
        lea       (%r8,%r10,4), %r12                            #178.33 c9
..LN877:
	.loc    1  176  is_stmt 1
        andq      $63, %r12                                     #176.5 c13
..LN878:
        jne       ..B3.29       # Prob 40%                      #176.5 c13
..LN879:
                                # LOE rax rdx rcx rbx rsi rdi r8 r9 r15 r11d
..B3.25:                        # Preds ..B3.23 Latency 25
..LN880:
	.loc    1  178  is_stmt 1
        vmovaps   .L_2il0floatpacket.6(%rip), %zmm8             #178.33 c1
..LN881:
        vprefetch0 (%rcx)                                       #178.9 c5
..LN882:
	.loc    1  176  is_stmt 1
        movslq    %r15d, %r10                                   #176.5 c5
..LN883:
	.loc    1  178  is_stmt 1
        vprefetch0 128(%rcx)                                    #178.9 c9
..LN884:
        movb      %al, %al                                      #178.20 c9
..LN885:
        vprefetch0 (%rdx)                                       #178.20 c13
..LN886:
        movb      %al, %al                                      #178.20 c13
..LN887:
        vprefetch0 128(%rdx)                                    #178.20 c17
..LN888:
        movb      %al, %al                                      #178.33 c17
..LN889:
        vprefetch0 (%r8)                                        #178.33 c21
..LN890:
        movb      %al, %al                                      #178.33 c21
..LN891:
        vprefetch0 128(%r8)                                     #178.33 c25
..LN892:
                                # LOE rax rdx rcx rbx rsi rdi r8 r9 r10 r11d zmm8
..B3.26:                        # Preds ..B3.26 ..B3.25 Latency 145
..L204:         # optimization report
                # LOOP WAS UNROLLED BY 2
                # LOOP WAS PREFETCHED, LINES = 24
                # LOOP WAS VECTORIZED
                # VECTORIZATION HAS UNALIGNED MEMORY REFERENCES
                # VECTORIZATION SPEEDUP COEFFECIENT 15.289062
                # VECTOR TRIP COUNT IS ESTIMATED CONSTANT
                # VECTOR LENGTH 16
                # NORMALIZED VECTORIZATION OVERHEAD 0.218750
..LN893:
        vprefetche1 1024(%rcx,%r10,4)                           #178.9 c1
..LN894:
        vloadunpackld (%rcx,%r10,4), %zmm1                      #178.9 c5
..LN895:
        vprefetch0 256(%rcx,%r10,4)                             #178.9 c5
..LN896:
        vloadunpackld (%rdx,%r10,4), %zmm0                      #178.20 c9
..LN897:
        vprefetch1 1024(%rdx,%r10,4)                            #178.20 c9
..LN898:
        vloadunpackhd 64(%rcx,%r10,4), %zmm1                    #178.9 c13
..LN899:
        vprefetch0 256(%rdx,%r10,4)                             #178.20 c13
..LN900:
        vloadunpackhd 64(%rdx,%r10,4), %zmm0                    #178.20 c17
..LN901:
        vprefetche1 1024(%r8,%r10,4)                            #178.33 c17
..LN902:
        vfmadd231ps %zmm8, %zmm0, %zmm1                         #178.9 c21
..LN903:
        vprefetch0 256(%r8,%r10,4)                              #178.33 c21
..LN904:
        vprefetch1 1024(%rbx,%r10,4)                            #178.44 c25
..LN905:
	.loc    1  176  is_stmt 1
        addl      $32, %r11d                                    #176.5 c25
..LN906:
	.loc    1  178  is_stmt 1
        vpackstoreld %zmm1, (%rcx,%r10,4)                       #178.9 c29
..LN907:
        vprefetch0 256(%rbx,%r10,4)                             #178.44 c29
..LN908:
        vpackstorehd %zmm1, 64(%rcx,%r10,4)                     #178.9 c33
..LN909:
	.loc    1  176  is_stmt 1
        addq      $32, %r10                                     #176.5 c33
..LN910:
	.loc    1  178  is_stmt 1
        vloadunpackld -128(%rbx,%r10,4), %zmm2                  #178.44 c37
..LN911:
        vprefetche1 896(%r9,%r10,4)                             #178.56 c37
..LN912:
        vloadunpackhd -64(%rbx,%r10,4), %zmm2                   #178.44 c41
..LN913:
        vprefetch0 128(%r9,%r10,4)                              #178.56 c41
..LN914:
        vfmadd213ps -128(%r8,%r10,4), %zmm8, %zmm2              #178.33 c45
..LN915:
        vprefetch1 896(%rdi,%r10,4)                             #178.67 c45
..LN916:
        vprefetch0 128(%rdi,%r10,4)                             #178.67 c49
..LN917:
	.loc    1  176  is_stmt 1
        cmpq      %rax, %r11                                    #176.5 c49
..LN918:
	.loc    1  178  is_stmt 1
        vmovaps   %zmm2, -128(%r8,%r10,4)                       #178.33 c53
..LN919:
        vprefetche1 960(%rcx,%r10,4)                            #178.9 c53
..LN920:
        vloadunpackld -128(%rdi,%r10,4), %zmm3                  #178.67 c57
..LN921:
        vprefetch0 192(%rcx,%r10,4)                             #178.9 c57
..LN922:
        vloadunpackhd -64(%rdi,%r10,4), %zmm3                   #178.67 c61
..LN923:
        vprefetch1 960(%rdx,%r10,4)                             #178.20 c61
..LN924:
        vfmadd213ps -128(%r9,%r10,4), %zmm8, %zmm3              #178.56 c65
..LN925:
        vprefetch0 192(%rdx,%r10,4)                             #178.20 c65
..LN926:
        vprefetche1 960(%r8,%r10,4)                             #178.33 c69
..LN927:
        movb      %al, %al                                      #178.56 c69
..LN928:
        vmovaps   %zmm3, -128(%r9,%r10,4)                       #178.56 c73
..LN929:
        vprefetch0 192(%r8,%r10,4)                              #178.33 c73
..LN930:
        vloadunpackld -64(%rcx,%r10,4), %zmm5                   #178.9 c77
..LN931:
        vprefetch1 960(%rbx,%r10,4)                             #178.44 c77
..LN932:
        vloadunpackld -64(%rdx,%r10,4), %zmm4                   #178.20 c81
..LN933:
        vprefetch0 192(%rbx,%r10,4)                             #178.44 c81
..LN934:
        vloadunpackhd (%rcx,%r10,4), %zmm5                      #178.9 c85
..LN935:
        vprefetche1 960(%r9,%r10,4)                             #178.56 c85
..LN936:
        vloadunpackhd (%rdx,%r10,4), %zmm4                      #178.20 c89
..LN937:
        vprefetch0 192(%r9,%r10,4)                              #178.56 c89
..LN938:
        vfmadd231ps %zmm8, %zmm4, %zmm5                         #178.9 c93
..LN939:
        vprefetch1 960(%rdi,%r10,4)                             #178.67 c93
..LN940:
        vprefetch0 192(%rdi,%r10,4)                             #178.67 c97
..LN941:
        movb      %al, %al                                      #178.9 c97
..LN942:
        vpackstoreld %zmm5, -64(%rcx,%r10,4)                    #178.9 c101
..LN943:
        vpackstorehd %zmm5, (%rcx,%r10,4)                       #178.9 c105
..LN944:
        vloadunpackld -64(%rbx,%r10,4), %zmm6                   #178.44 c109
..LN945:
        vloadunpackhd (%rbx,%r10,4), %zmm6                      #178.44 c113
..LN946:
        vfmadd213ps -64(%r8,%r10,4), %zmm8, %zmm6               #178.33 c117
..LN947:
        nop                                                     #178.33 c121
..LN948:
        vmovaps   %zmm6, -64(%r8,%r10,4)                        #178.33 c125
..LN949:
        vloadunpackld -64(%rdi,%r10,4), %zmm7                   #178.67 c129
..LN950:
        vloadunpackhd (%rdi,%r10,4), %zmm7                      #178.67 c133
..LN951:
        vfmadd213ps -64(%r9,%r10,4), %zmm8, %zmm7               #178.56 c137
..LN952:
        nop                                                     #178.56 c141
..LN953:
        vmovaps   %zmm7, -64(%r9,%r10,4)                        #178.56 c145
..LN954:
	.loc    1  176  is_stmt 1
        jb        ..B3.26       # Prob 82%                      #176.5 c145
..LN955:
        jmp       ..B3.32       # Prob 100%                     #176.5 c145
..LN956:
                                # LOE rax rdx rcx rbx rsi rdi r8 r9 r10 r11d zmm8
..B3.29:                        # Preds ..B3.23 Latency 25
..LN957:
	.loc    1  178  is_stmt 1
        vmovaps   .L_2il0floatpacket.6(%rip), %zmm10            #178.33 c1
..LN958:
        vprefetch0 (%rcx)                                       #178.9 c5
..LN959:
	.loc    1  176  is_stmt 1
        movslq    %r15d, %r10                                   #176.5 c5
..LN960:
	.loc    1  178  is_stmt 1
        vprefetch0 128(%rcx)                                    #178.9 c9
..LN961:
        movb      %al, %al                                      #178.20 c9
..LN962:
        vprefetch0 (%rdx)                                       #178.20 c13
..LN963:
        movb      %al, %al                                      #178.20 c13
..LN964:
        vprefetch0 128(%rdx)                                    #178.20 c17
..LN965:
        movb      %al, %al                                      #178.33 c17
..LN966:
        vprefetch0 (%r8)                                        #178.33 c21
..LN967:
        movb      %al, %al                                      #178.33 c21
..LN968:
        vprefetch0 128(%r8)                                     #178.33 c25
..LN969:
                                # LOE rax rdx rcx rbx rsi rdi r8 r9 r10 r11d zmm10
..B3.30:                        # Preds ..B3.30 ..B3.29 Latency 169
..L205:         # optimization report
                # LOOP WAS PREFETCHED, LINES = 24
                # LOOP WAS VECTORIZED
                # ALTERNATE ALIGNMENT VECTOR LOOP
..LN970:
        vprefetche1 1024(%rcx,%r10,4)                           #178.9 c1
..LN971:
        vloadunpackld (%rcx,%r10,4), %zmm1                      #178.9 c5
..LN972:
        vprefetch0 256(%rcx,%r10,4)                             #178.9 c5
..LN973:
        vloadunpackld (%rdx,%r10,4), %zmm0                      #178.20 c9
..LN974:
        vprefetch1 1024(%rdx,%r10,4)                            #178.20 c9
..LN975:
        vloadunpackhd 64(%rcx,%r10,4), %zmm1                    #178.9 c13
..LN976:
        vprefetch0 256(%rdx,%r10,4)                             #178.20 c13
..LN977:
        vloadunpackhd 64(%rdx,%r10,4), %zmm0                    #178.20 c17
..LN978:
        vprefetche1 1024(%r8,%r10,4)                            #178.33 c17
..LN979:
        vfmadd231ps %zmm10, %zmm0, %zmm1                        #178.9 c21
..LN980:
        vprefetch0 256(%r8,%r10,4)                              #178.33 c21
..LN981:
        vprefetch1 1024(%rbx,%r10,4)                            #178.44 c25
..LN982:
	.loc    1  176  is_stmt 1
        addl      $32, %r11d                                    #176.5 c25
..LN983:
	.loc    1  178  is_stmt 1
        vpackstoreld %zmm1, (%rcx,%r10,4)                       #178.9 c29
..LN984:
        vprefetch0 256(%rbx,%r10,4)                             #178.44 c29
..LN985:
        vpackstorehd %zmm1, 64(%rcx,%r10,4)                     #178.9 c33
..LN986:
	.loc    1  176  is_stmt 1
        addq      $32, %r10                                     #176.5 c33
..LN987:
	.loc    1  178  is_stmt 1
        vloadunpackld -128(%r8,%r10,4), %zmm3                   #178.33 c37
..LN988:
        vprefetche1 896(%r9,%r10,4)                             #178.56 c37
..LN989:
        vloadunpackld -128(%rbx,%r10,4), %zmm2                  #178.44 c41
..LN990:
        vprefetch0 128(%r9,%r10,4)                              #178.56 c41
..LN991:
        vloadunpackhd -64(%r8,%r10,4), %zmm3                    #178.33 c45
..LN992:
        vprefetch1 896(%rdi,%r10,4)                             #178.67 c45
..LN993:
        vloadunpackhd -64(%rbx,%r10,4), %zmm2                   #178.44 c49
..LN994:
        vprefetch0 128(%rdi,%r10,4)                             #178.67 c49
..LN995:
        vfmadd231ps %zmm10, %zmm2, %zmm3                        #178.33 c53
..LN996:
        vprefetche1 960(%rcx,%r10,4)                            #178.9 c53
..LN997:
        vprefetch0 192(%rcx,%r10,4)                             #178.9 c57
..LN998:
	.loc    1  176  is_stmt 1
        cmpq      %rax, %r11                                    #176.5 c57
..LN999:
	.loc    1  178  is_stmt 1
        vpackstoreld %zmm3, -128(%r8,%r10,4)                    #178.33 c61
..LN1000:
        vprefetch1 960(%rdx,%r10,4)                             #178.20 c61
..LN1001:
        vpackstorehd %zmm3, -64(%r8,%r10,4)                     #178.33 c65
..LN1002:
        vloadunpackld -128(%rdi,%r10,4), %zmm4                  #178.67 c69
..LN1003:
        vprefetch0 192(%rdx,%r10,4)                             #178.20 c69
..LN1004:
        vloadunpackhd -64(%rdi,%r10,4), %zmm4                   #178.67 c73
..LN1005:
        vprefetche1 960(%r8,%r10,4)                             #178.33 c73
..LN1006:
        vfmadd213ps -128(%r9,%r10,4), %zmm10, %zmm4             #178.56 c77
..LN1007:
        vprefetch0 192(%r8,%r10,4)                              #178.33 c77
..LN1008:
        vprefetch1 960(%rbx,%r10,4)                             #178.44 c81
..LN1009:
        movb      %al, %al                                      #178.56 c81
..LN1010:
        vmovaps   %zmm4, -128(%r9,%r10,4)                       #178.56 c85
..LN1011:
        vprefetch0 192(%rbx,%r10,4)                             #178.44 c85
..LN1012:
        vloadunpackld -64(%rcx,%r10,4), %zmm6                   #178.9 c89
..LN1013:
        vprefetche1 960(%r9,%r10,4)                             #178.56 c89
..LN1014:
        vloadunpackld -64(%rdx,%r10,4), %zmm5                   #178.20 c93
..LN1015:
        vprefetch0 192(%r9,%r10,4)                              #178.56 c93
..LN1016:
        vloadunpackhd (%rcx,%r10,4), %zmm6                      #178.9 c97
..LN1017:
        vprefetch1 960(%rdi,%r10,4)                             #178.67 c97
..LN1018:
        vloadunpackhd (%rdx,%r10,4), %zmm5                      #178.20 c101
..LN1019:
        vprefetch0 192(%rdi,%r10,4)                             #178.67 c101
..LN1020:
        vfmadd231ps %zmm10, %zmm5, %zmm6                        #178.9 c105
..LN1021:
        nop                                                     #178.9 c109
..LN1022:
        vpackstoreld %zmm6, -64(%rcx,%r10,4)                    #178.9 c113
..LN1023:
        vpackstorehd %zmm6, (%rcx,%r10,4)                       #178.9 c117
..LN1024:
        vloadunpackld -64(%r8,%r10,4), %zmm8                    #178.33 c121
..LN1025:
        vloadunpackld -64(%rbx,%r10,4), %zmm7                   #178.44 c125
..LN1026:
        vloadunpackhd (%r8,%r10,4), %zmm8                       #178.33 c129
..LN1027:
        vloadunpackhd (%rbx,%r10,4), %zmm7                      #178.44 c133
..LN1028:
        vfmadd231ps %zmm10, %zmm7, %zmm8                        #178.33 c137
..LN1029:
        nop                                                     #178.33 c141
..LN1030:
        vpackstoreld %zmm8, -64(%r8,%r10,4)                     #178.33 c145
..LN1031:
        vpackstorehd %zmm8, (%r8,%r10,4)                        #178.33 c149
..LN1032:
        vloadunpackld -64(%rdi,%r10,4), %zmm9                   #178.67 c153
..LN1033:
        vloadunpackhd (%rdi,%r10,4), %zmm9                      #178.67 c157
..LN1034:
        vfmadd213ps -64(%r9,%r10,4), %zmm10, %zmm9              #178.56 c161
..LN1035:
        nop                                                     #178.56 c165
..LN1036:
        vmovaps   %zmm9, -64(%r9,%r10,4)                        #178.56 c169
..LN1037:
	.loc    1  176  is_stmt 1
        jb        ..B3.30       # Prob 82%                      #176.5 c169
..LN1038:
                                # LOE rax rdx rcx rbx rsi rdi r8 r9 r10 r11d zmm10
..B3.32:                        # Preds ..B3.30 ..B3.26 ..B3.22 Latency 5
..LN1039:
        lea       1(%rax), %r10                                 #176.5 c1
..LN1040:
        cmpq      %r10, %rsi                                    #176.5 c5
..LN1041:
        jb        ..B3.40       # Prob 50%                      #176.5 c5
..LN1042:
                                # LOE rax rdx rcx rbx rsi rdi r8 r9
..B3.33:                        # Preds ..B3.32 Latency 1
..LN1043:
        vmovdqa32 .L_2il0floatpacket.11(%rip), %zmm1            #176.5 c1
..LN1044:
                                # LOE rax rdx rcx rbx rsi rdi r8 r9 zmm1
..B3.35:                        # Preds ..B3.33 Latency 65
..LN1045:
        vbroadcastss .L_2il0floatpacket.5(%rip), %zmm2          #176.5 c1
..LN1046:
        vpxord    %zmm3, %zmm3, %zmm3                           #176.5 c5
..LN1047:
        lea       1344(%rsp), %r10                              #176.5 c5
..LN1048:
        vmovapd   .L_2il0floatpacket.9(%rip), %zmm4             #176.5 c9
..LN1049:
        vmovapd   .L_2il0floatpacket.8(%rip), %zmm5             #176.5 c13
..LN1050:
        vmovaps   .L_2il0floatpacket.7(%rip), %zmm6             #176.5 c17
..LN1051:
        vmovaps   (%rsp), %zmm7                                 #176.5 c21
..LN1052:
	.loc    1  178  is_stmt 1
        movslq    %eax, %r14                                    #178.9 c21
..LN1053:
	.loc    1  176  is_stmt 1
        vmovaps   64(%rsp), %zmm8                               #176.5 c25
..LN1054:
        subq      %rax, %rsi                                    #176.5 c25
..LN1055:
        movq      %rsi, (%r10)                                  #176.5 c29
..LN1056:
        xorl      %r11d, %r11d                                  #176.5 c29
..LN1057:
        vpbroadcastq (%r10), %zmm0                              #176.5 c33
..LN1058:
	.loc    1  178  is_stmt 1
        lea       (%rdx,%r14,4), %r10                           #178.20 c33
..LN1059:
        lea       (%rcx,%r14,4), %rdx                           #178.9 c37
..LN1060:
	.loc    1  176  is_stmt 1
        movl      $1285, %ecx                                   #176.5 c37
..LN1061:
        kmov      %ecx, %k5                                     #176.5 c41
..LN1062:
        movl      $20560, %ecx                                  #176.5 c41
..LN1063:
        kmov      %ecx, %k4                                     #176.5 c45
..LN1064:
        movl      $2570, %ecx                                   #176.5 c45
..LN1065:
        kmov      %ecx, %k3                                     #176.5 c49
..LN1066:
        movl      $41120, %ecx                                  #176.5 c49
..LN1067:
	.loc    1  178  is_stmt 1
        lea       (%rbx,%r14,4), %rax                           #178.44 c53
..LN1068:
        lea       (%r8,%r14,4), %r13                            #178.33 c53
..LN1069:
        lea       (%rdi,%r14,4), %r12                           #178.67 c57
..LN1070:
        lea       (%r9,%r14,4), %r9                             #178.56 c57
..LN1071:
	.loc    1  176  is_stmt 1
        xorl      %r8d, %r8d                                    #176.5 c61
..LN1072:
        xorl      %edi, %edi                                    #176.5 c61
..LN1073:
        kmov      %ecx, %k2                                     #176.5 c65
..LN1074:
                                # LOE rax rdx rsi rdi r8 r9 r10 r12 r13 r11d zmm0 zmm1 zmm2 zmm3 zmm4 zmm5 zmm6 zmm7 zmm8 k2 k3 k4 k5
..B3.36:                        # Preds ..B3.38 ..B3.35 Latency 181
..L206:         # optimization report
                # LOOP WAS VECTORIZED
                # REMAINDER LOOP FOR VECTORIZATION
                # MASKED VECTORIZATION
                # VECTORIZATION HAS UNALIGNED MEMORY REFERENCES
                # VECTORIZATION SPEEDUP COEFFECIENT 10.578125
                # VECTOR TRIP COUNT IS ESTIMATED CONSTANT
                # VECTOR LENGTH 16
                # NORMALIZED VECTORIZATION OVERHEAD 0.250000
..LN1075:
        vpshufd   $216, %zmm1, %zmm10                           #176.5 c5
..LN1076:
        vpshufd   $114, %zmm1, %zmm9                            #176.5 c9
..LN1077:
        vpermf32x4 $80, %zmm10, %zmm7{%k5}                      #176.5 c13
..LN1078:
        vpermf32x4 $80, %zmm9, %zmm7{%k4}                       #176.5 c17
..LN1079:
        vpermf32x4 $78, %zmm1, %zmm15                           #176.5 c21
..LN1080:
        vpermf32x4 $80, %zmm9, %zmm7{%k3}                       #176.5 c25
..LN1081:
        vmovaps   %zmm7, %zmm11                                 #176.5 c29
..LN1082:
        vpermf32x4 $80, %zmm10, %zmm11{%k2}                     #176.5 c33
..LN1083:
        vpshufd   $216, %zmm15, %zmm17                          #176.5 c37
..LN1084:
        vpshufd   $114, %zmm15, %zmm16                          #176.5 c41
..LN1085:
        vpsrad    $31, %zmm11, %zmm12                           #176.5 c45
..LN1086:
        vpermf32x4 $80, %zmm17, %zmm8{%k5}                      #176.5 c49
..LN1087:
        vpermf32x4 $80, %zmm16, %zmm8{%k4}                      #176.5 c53
..LN1088:
        vpandq    %zmm5, %zmm11, %zmm14                         #176.5 c57
..LN1089:
        vpandq    %zmm4, %zmm12, %zmm13                         #176.5 c61
..LN1090:
        vpermf32x4 $80, %zmm16, %zmm8{%k3}                      #176.5 c65
..LN1091:
        vporq     %zmm14, %zmm13, %zmm22                        #176.5 c69
..LN1092:
        vmovaps   %zmm8, %zmm18                                 #176.5 c73
..LN1093:
        vpermf32x4 $80, %zmm17, %zmm18{%k2}                     #176.5 c77
..LN1094:
        vpcmpud   $2, %zmm0, %zmm22, %k6                        #176.5 c81
..LN1095:
        vpcmpud   $0, %zmm0, %zmm22, %k1                        #176.5 c85
..LN1096:
        vpsrad    $31, %zmm18, %zmm19                           #176.5 c89
..LN1097:
        kmov      %k6, %r14d                                    #176.5 c89
..LN1098:
        vpcmpltd  %zmm0, %zmm22, %k0                            #176.5 c93
..LN1099:
        kmov      %k1, %ebx                                     #176.5 c93
..LN1100:
        vpandq    %zmm5, %zmm18, %zmm21                         #176.5 c97
..LN1101:
        addl      %r14d, %r14d                                  #176.5 c97
..LN1102:
        vpandq    %zmm4, %zmm19, %zmm20                         #176.5 c101
..LN1103:
        kmov      %k0, %ecx                                     #176.5 c101
..LN1104:
        vporq     %zmm21, %zmm20, %zmm24                        #176.5 c105
..LN1105:
        andl      %ebx, %r14d                                   #176.5 c105
..LN1106:
        vmovaps   %zmm3, %zmm23                                 #176.5 c109
..LN1107:
        orl       %ecx, %r14d                                   #176.5 c109
..LN1108:
        vpcmpud   $0, %zmm0, %zmm24, %k6                        #176.5 c113
..LN1109:
        andl      $-21846, %r14d                                #176.5 c113
..LN1110:
        vpcmpltd  %zmm0, %zmm24, %k1                            #176.5 c117
..LN1111:
        kmov      %r14d, %k7                                    #176.5 c117
..LN1112:
        vbroadcastss .L_2il0floatpacket.12(%rip), %zmm23{%k7}   #176.5 c121
..LN1113:
        vpcmpud   $2, %zmm0, %zmm24, %k7                        #176.5 c125
..LN1114:
        kmov      %k6, %r15d                                    #176.5 c125
..LN1115:
        vcmpneqpd %zmm23, %zmm3, %k0                            #176.5 c129
..LN1116:
        kmov      %k1, %ecx                                     #176.5 c129
..LN1117:
        vmovaps   %zmm3, %zmm25                                 #176.5 c133
..LN1118:
        kmov      %k7, %r14d                                    #176.5 c133
..LN1119:
        addl      %r14d, %r14d                                  #176.5 c137
..LN1120:
        kmov      %k0, %ebx                                     #176.5 c137
..LN1121:
        andl      %r15d, %r14d                                  #176.5 c141
..LN1122:
        movl      %ebx, %r15d                                   #176.5 c141
..LN1123:
        orl       %ecx, %r14d                                   #176.5 c145
..LN1124:
        andl      $-21846, %r14d                                #176.5 c149
..LN1125:
        kmov      %r14d, %k1                                    #176.5 c153
..LN1126:
        vbroadcastss .L_2il0floatpacket.12(%rip), %zmm25{%k1}   #176.5 c157
..LN1127:
        vcmpneqpd %zmm25, %zmm3, %k0                            #176.5 c161
..LN1128:
        nop                                                     #176.5 c165
..LN1129:
        kmov      %k0, %ecx                                     #176.5 c169
..LN1130:
        andl      %ecx, %r15d                                   #176.5 c173
..LN1131:
        xorl      $-1, %r15d                                    #176.5 c177
..LN1132:
        testb     %r15b, %r15b                                  #176.5 c181
..LN1133:
        jne       ..B3.118      # Prob 9%                       #176.5 c181
..LN1134:
                                # LOE rax rdx rsi rdi r8 r9 r10 r12 r13 ecx ebx r11d zmm0 zmm1 zmm2 zmm3 zmm4 zmm5 zmm6 zmm7 zmm8 k2 k3 k4 k5
..B3.37:                        # Preds ..B3.36 Latency 81
..LN1135:
	.loc    1  178  is_stmt 1
        vloadunpackld (%rdx,%r8,4), %zmm10                      #178.9 c1
..LN1136:
        vloadunpackld (%r10,%r8,4), %zmm9                       #178.20 c5
..LN1137:
        vloadunpackhd 64(%rdx,%r8,4), %zmm10                    #178.9 c9
..LN1138:
        vloadunpackhd 64(%r10,%r8,4), %zmm9                     #178.20 c13
..LN1139:
        vfmadd231ps %zmm2, %zmm9, %zmm10                        #178.9 c17
..LN1140:
        nop                                                     #178.9 c21
..LN1141:
        vpackstoreld %zmm10, (%rdx,%r8,4)                       #178.9 c25
..LN1142:
        vpackstorehd %zmm10, 64(%rdx,%r8,4)                     #178.9 c29
..LN1143:
        vloadunpackld (%r13,%r8,4), %zmm12                      #178.33 c33
..LN1144:
        vloadunpackld (%rax,%r8,4), %zmm11                      #178.44 c37
..LN1145:
        vloadunpackhd 64(%r13,%r8,4), %zmm12                    #178.33 c41
..LN1146:
        vloadunpackhd 64(%rax,%r8,4), %zmm11                    #178.44 c45
..LN1147:
        vfmadd231ps %zmm2, %zmm11, %zmm12                       #178.33 c49
..LN1148:
        nop                                                     #178.33 c53
..LN1149:
        vpackstoreld %zmm12, (%r13,%r8,4)                       #178.33 c57
..LN1150:
        vpackstorehd %zmm12, 64(%r13,%r8,4)                     #178.33 c61
..LN1151:
        vloadunpackld (%r12,%r8,4), %zmm13                      #178.67 c65
..LN1152:
        vloadunpackhd 64(%r12,%r8,4), %zmm13                    #178.67 c69
..LN1153:
        vfmadd213ps (%r9,%r8,4), %zmm2, %zmm13                  #178.56 c73
..LN1154:
        nop                                                     #178.56 c77
..LN1155:
        vmovaps   %zmm13, (%r9,%r8,4)                           #178.56 c81
..LN1156:
                                # LOE rax rdx rsi rdi r8 r9 r10 r12 r13 r11d zmm0 zmm1 zmm2 zmm3 zmm4 zmm5 zmm6 zmm7 zmm8 k2 k3 k4 k5
..B3.38:                        # Preds ..B3.118 ..B3.37 Latency 9
..LN1157:
	.loc    1  176  is_stmt 1
        vpaddd    %zmm6, %zmm1, %zmm1                           #176.5 c1
..LN1158:
        addl      $16, %r11d                                    #176.5 c1
..LN1159:
        addq      $64, %rdi                                     #176.5 c5
..LN1160:
        addq      $16, %r8                                      #176.5 c5
..LN1161:
        cmpq      %rsi, %r11                                    #176.5 c9
..LN1162:
        jb        ..B3.36       # Prob 82%                      #176.5 c9
..LN1163:
                                # LOE rax rdx rsi rdi r8 r9 r10 r12 r13 r11d zmm0 zmm1 zmm2 zmm3 zmm4 zmm5 zmm6 zmm7 zmm8 k2 k3 k4 k5
..B3.39:                        # Preds ..B3.38 Latency 5
..LN1164:
        vmovaps   %zmm7, (%rsp)                                 # c1
..LN1165:
        vmovaps   %zmm8, 64(%rsp)                               # c5
..LN1166:
                                # LOE
..B3.40:                        # Preds ..B3.39 ..B3.21 ..B3.32 ..B3.13 Latency 1
..___tag_value__Z4simdPfll.207:
..LN1167:
	.loc    1  181  is_stmt 1
        call      omp_get_wtime                                 #181.25
..___tag_value__Z4simdPfll.208:
..LN1168:
                                # LOE
..B3.41:                        # Preds ..B3.40 Latency 9
..LN1169:
	.loc    1  144  is_stmt 1
        movl      360(%rsp), %eax                               #144.5 c1
..LN1170:
        movq      368(%rsp), %rdx                               #144.5 c1
..LN1171:
        incl      %eax                                          #144.5 c5
..LN1172:
        movl      %eax, 360(%rsp)                               #144.5 c5
..LN1173:
        cmpq      %rdx, %rax                                    #144.5 c9
..LN1174:
        jb        ..B3.6        # Prob 82%                      #144.5 c9
..LN1175:
                                # LOE
..B3.43:                        # Preds ..B3.41 ..B3.4 Latency 13
..LN1176:
	.loc    1  200  is_stmt 1
        movq      1408(%rsp), %r15                              #200.1 c1
	.cfi_restore 15
..LN1177:
        movq      1416(%rsp), %r14                              #200.1 c1
	.cfi_restore 14
..LN1178:
        movq      1424(%rsp), %r13                              #200.1 c5
	.cfi_restore 13
..LN1179:
        movq      1432(%rsp), %r12                              #200.1 c5
	.cfi_restore 12
..LN1180:
        movq      1440(%rsp), %rbx                              #200.1 c9
	.cfi_restore 3
..LN1181:
	.loc    1  200  epilogue_begin  is_stmt 1
        movq      %rbp, %rsp                                    #200.1 c13
..LN1182:
        popq      %rbp                                          #200.1
	.cfi_def_cfa 7, 8
	.cfi_restore 6
..LN1183:
        ret                                                     #200.1
	.cfi_def_cfa 6, 16
..LN1184:
                                # LOE
L__Z4simdPfll_148__par_loop0_2.4:
# parameter 1: %rdi
# parameter 2: %rsi
# parameter 3: %rdx
# parameter 4: %rcx
# parameter 5: %r8
# parameter 6: %r9
# parameter 7: 16 + %rbp
# parameter 8: 24 + %rbp
# parameter 9: 32 + %rbp
# parameter 10: 40 + %rbp
..B3.44:                        # Preds ..B3.0 Latency 21
..LN1185:
	.loc    1  148  is_stmt 1
        pushq     %rbp                                          #148.5
	.cfi_def_cfa 7, 16
..LN1186:
        movq      %rsp, %rbp                                    #148.5
	.cfi_def_cfa 6, 16
	.cfi_offset 6, -16
..LN1187:
        andq      $-64, %rsp                                    #148.5
..LN1188:
        subq      $1664, %rsp                                   #148.5 c1
..LN1189:
        movq      %r13, 1424(%rsp)                              #148.5 c5
	.cfi_escape 0x10, 0x0d, 0x0e, 0x38, 0x1c, 0x0d, 0xc0, 0xff, 0xff, 0xff, 0x1a, 0x0d, 0x10, 0xff, 0xff, 0xff, 0x22
..LN1190:
        movq      (%rdx), %r13                                  #148.5 c5
..LN1191:
        movq      %rbx, 1440(%rsp)                              #148.5 c9
..LN1192:
	.loc    1  149  prologue_end  is_stmt 1
        testq     %r13, %r13                                    #149.42 c9
..LN1193:
	.loc    1  148  is_stmt 1
        movq      %r15, 1408(%rsp)                              #148.5 c13
	.cfi_escape 0x10, 0x03, 0x0e, 0x38, 0x1c, 0x0d, 0xc0, 0xff, 0xff, 0xff, 0x1a, 0x0d, 0x20, 0xff, 0xff, 0xff, 0x22
	.cfi_escape 0x10, 0x0f, 0x0e, 0x38, 0x1c, 0x0d, 0xc0, 0xff, 0xff, 0xff, 0x1a, 0x0d, 0x00, 0xff, 0xff, 0xff, 0x22
..LN1194:
        movl      (%rdi), %r15d                                 #148.5 c13
..LN1195:
        movq      %r14, 1416(%rsp)                              #148.5 c17
..LN1196:
        movq      %r12, 1432(%rsp)                              #148.5 c17
	.cfi_escape 0x10, 0x0c, 0x0e, 0x38, 0x1c, 0x0d, 0xc0, 0xff, 0xff, 0xff, 0x1a, 0x0d, 0x18, 0xff, 0xff, 0xff, 0x22
	.cfi_escape 0x10, 0x0e, 0x0e, 0x38, 0x1c, 0x0d, 0xc0, 0xff, 0xff, 0xff, 0x1a, 0x0d, 0x08, 0xff, 0xff, 0xff, 0x22
..LN1197:
        movq      %rcx, %r12                                    #148.5 c21
..LN1198:
	.loc    1  149  is_stmt 1
        jle       ..B3.50       # Prob 10%                      #149.42 c21
..LN1199:
                                # LOE r12 r13 r15d
..B3.45:                        # Preds ..B3.44 Latency 33
..LN1200:
	.loc    1  148  is_stmt 1
        xorl      %r14d, %r14d                                  #148.5 c1
..LN1201:
        lea       -1(%r13), %r8                                 #148.5 c1
..LN1202:
        movl      $1, %ebx                                      #148.5 c5
..LN1203:
        movl      %r14d, 1632(%rsp)                             #148.5 c5
..LN1204:
        movl      %r8d, 1636(%rsp)                              #148.5 c9
..LN1205:
        movl      $.2.29_2_kmpc_loc_struct_pack.27, %edi        #148.5 c9
..LN1206:
        movl      %r14d, 1640(%rsp)                             #148.5 c13
..LN1207:
        movl      %r15d, %esi                                   #148.5 c13
..LN1208:
        movl      %ebx, 1644(%rsp)                              #148.5 c17
..LN1209:
        addq      $-16, %rsp                                    #148.5 c17
..LN1210:
        movl      $35, %edx                                     #148.5 c21
..LN1211:
        xorl      %ecx, %ecx                                    #148.5 c21
..LN1212:
        movl      %ebx, %r9d                                    #148.5 c25
..LN1213:
        xorl      %eax, %eax                                    #148.5 c25
..LN1214:
        movl      %ebx, (%rsp)                                  #148.5 c29
..___tag_value__Z4simdPfll.228:
..LN1215:
        call      __kmpc_dispatch_init_4                        #148.5
..___tag_value__Z4simdPfll.229:
..LN1216:
                                # LOE r12 r13 ebx r14d r15d
..B3.127:                       # Preds ..B3.45 Latency 1
..LN1217:
        addq      $16, %rsp                                     #148.5 c1
..LN1218:
                                # LOE r12 r13 ebx r14d r15d
..B3.46:                        # Preds ..B3.127 Latency 93
..LN1219:
	.loc    1  160  is_stmt 1
        vpxord    %zmm14, %zmm14, %zmm14                        #160.30 c1
..LN1220:
	.loc    1  148  is_stmt 1
        vmovaps   %zmm0, 448(%rsp)                              #148.5 c1
..LN1221:
	.loc    1  151  is_stmt 1
        vpxord    %zmm6, %zmm6, %zmm6                           #151.18 c5
..LN1222:
	.loc    1  148  is_stmt 1
        vmovaps   %zmm1, 512(%rsp)                              #148.5 c5
..LN1223:
        vmovaps   %zmm2, 576(%rsp)                              #148.5 c9
..LN1224:
	.loc    1  172  is_stmt 1
        kmov      %ebx, %k1                                     #172.28 c9
..LN1225:
        vbroadcastss .L_2il0floatpacket.5(%rip), %zmm13{%k1}    #172.28 c13
..LN1226:
	.loc    1  148  is_stmt 1
        vmovaps   %zmm3, 640(%rsp)                              #148.5 c17
..LN1227:
	.loc    1  156  is_stmt 1
        movslq    %r13d, %r8                                    #156.7 c17
..LN1228:
	.loc    1  148  is_stmt 1
        vmovaps   %zmm4, 704(%rsp)                              #148.5 c21
..LN1229:
        vmovaps   %zmm5, 320(%rsp)                              #148.5 c25
..LN1230:
        vmovaps   %zmm7, 768(%rsp)                              #148.5 c29
..LN1231:
        vmovaps   %zmm8, 832(%rsp)                              #148.5 c33
..LN1232:
        vmovaps   %zmm9, 896(%rsp)                              #148.5 c37
..LN1233:
        vmovaps   %zmm10, 960(%rsp)                             #148.5 c41
..LN1234:
        vmovaps   %zmm11, 1024(%rsp)                            #148.5 c45
..LN1235:
        vmovaps   %zmm12, 384(%rsp)                             #148.5 c49
..LN1236:
        vpackstorelps %zmm13, 24(%rsp){%k1}                     #148.5 c53
..LN1237:
        vmovaps   %zmm15, 192(%rsp)                             #148.5 c57
..LN1238:
        vmovaps   %zmm16, 256(%rsp)                             #148.5 c61
..LN1239:
        vmovaps   %zmm17, 1152(%rsp)                            #148.5 c65
..LN1240:
        vmovaps   %zmm18, 1216(%rsp)                            #148.5 c69
..LN1241:
        vmovaps   %zmm19, 64(%rsp)                              #148.5 c73
..LN1242:
        vmovaps   %zmm20, 128(%rsp)                             #148.5 c77
..LN1243:
        vmovaps   %zmm21, 1088(%rsp)                            #148.5 c81
..LN1244:
        vmovaps   %zmm22, 1280(%rsp)                            #148.5 c85
..LN1245:
        movb      %al, %al                                      #148.5 c85
..LN1246:
        movq      %r8, 1504(%rsp)                               #148.5 c89
..LN1247:
        movq      %r13, 1464(%rsp)                              #148.5 c89
..LN1248:
        movl      %r15d, 1360(%rsp)                             #148.5 c93
..LN1249:
        jmp       ..B3.47       # Prob 100%                     #148.5 c93
..LN1250:
                                # LOE r12 zmm6
..B3.117:                       # Preds ..B3.116 Latency 50
..LN1251:
        vmovaps   %zmm18, 448(%rsp)                             # c1
..LN1252:
        movq      1400(%rsp), %r12                              # c1
..LN1253:
        vmovaps   %zmm20, 512(%rsp)                             # c5
..LN1254:
        vmovaps   %zmm10, 576(%rsp)                             # c9
..LN1255:
        vmovaps   %zmm8, 640(%rsp)                              # c13
..LN1256:
        vmovaps   %zmm21, 704(%rsp)                             # c17
..LN1257:
        vmovaps   %zmm11, 320(%rsp)                             # c21
..LN1258:
        vmovaps   %zmm22, 768(%rsp)                             # c25
..LN1259:
        vmovaps   %zmm12, 832(%rsp)                             # c29
..LN1260:
        vmovaps   %zmm13, 896(%rsp)                             # c33
..LN1261:
        vmovaps   %zmm14, 960(%rsp)                             # c37
..LN1262:
        vmovaps   %zmm15, 1024(%rsp)                            # c41
..LN1263:
        vmovaps   %zmm16, 384(%rsp)                             # c45
..LN1264:
        vmovaps   %zmm9, 1088(%rsp)                             # c49
..LN1265:
                                # LOE r12 zmm6
..B3.47:                        # Preds ..B3.117 ..B3.46 Latency 25
..L230:         # optimization report
                # %s was not vectorized: inner loop was already vectorized
..LN1266:
        lea       1640(%rsp), %rdx                              #148.5 c1
..LN1267:
        xorl      %ebx, %ebx                                    #148.5 c5
..LN1268:
        incl      %ebx                                          #148.5
..LN1269:
        movl      $.2.29_2_kmpc_loc_struct_pack.27, %edi        #148.5 c5
..LN1270:
        movl      1360(%rsp), %esi                              #148.5 c9
..LN1271:
        lea       -8(%rdx), %rcx                                #148.5 c9
..LN1272:
        lea       -4(%rdx), %r8                                 #148.5 c13
..LN1273:
        lea       4(%rdx), %r9                                  #148.5 c13
..LN1274:
        xorl      %eax, %eax                                    #148.5 c17
..LN1275:
        kmov      %ebx, %k1                                     #148.5 c17
..LN1276:
        vpackstorelps %zmm6, 16(%rsp){%k1}                      #148.5 c21
..___tag_value__Z4simdPfll.231:
..LN1277:
        call      __kmpc_dispatch_next_4                        #148.5
..___tag_value__Z4simdPfll.232:
..LN1278:
                                # LOE r12 eax
..B3.128:                       # Preds ..B3.47 Latency 1
..LN1279:
        vbroadcastss 16(%rsp), %zmm6                            # c1
..LN1280:
        movl      %eax, %edx                                    #148.5 c1
..LN1281:
                                # LOE r12 edx xmm6 ymm6 zmm6
..B3.48:                        # Preds ..B3.128 Latency 13
..LN1282:
        movl      1632(%rsp), %ebx                              #148.5 c1
..LN1283:
        testl     %edx, %edx                                    #148.5 c1
..LN1284:
        movl      1636(%rsp), %eax                              #148.5 c5
..LN1285:
        movl      %ebx, 1624(%rsp)                              #148.5 c5
..LN1286:
        movslq    %ebx, %rbx                                    #148.5 c9
..LN1287:
        cltq                                                    #148.5 c9
..LN1288:
        jne       ..B3.51       # Prob 50%                      #148.5 c13
..LN1289:
                                # LOE rax rbx r12 xmm6 ymm6 zmm6
..B3.50:                        # Preds ..B3.48 ..B3.44 Latency 13
..LN1290:
        movq      1408(%rsp), %r15                              #148.5 c1
	.cfi_restore 15
..LN1291:
        movq      1416(%rsp), %r14                              #148.5 c1
	.cfi_restore 14
..LN1292:
        movq      1424(%rsp), %r13                              #148.5 c5
	.cfi_restore 13
..LN1293:
        movq      1432(%rsp), %r12                              #148.5 c5
	.cfi_restore 12
..LN1294:
        movq      1440(%rsp), %rbx                              #148.5 c9
	.cfi_restore 3
..LN1295:
	.loc    1  148  epilogue_begin  is_stmt 1
        movq      %rbp, %rsp                                    #148.5 c13
..LN1296:
        popq      %rbp                                          #148.5
	.cfi_def_cfa 7, 8
	.cfi_restore 6
..LN1297:
        ret                                                     #148.5
	.cfi_def_cfa 6, 16
	.cfi_escape 0x10, 0x03, 0x0e, 0x38, 0x1c, 0x0d, 0xc0, 0xff, 0xff, 0xff, 0x1a, 0x0d, 0x20, 0xff, 0xff, 0xff, 0x22
	.cfi_offset 6, -16
	.cfi_escape 0x10, 0x0c, 0x0e, 0x38, 0x1c, 0x0d, 0xc0, 0xff, 0xff, 0xff, 0x1a, 0x0d, 0x18, 0xff, 0xff, 0xff, 0x22
	.cfi_escape 0x10, 0x0d, 0x0e, 0x38, 0x1c, 0x0d, 0xc0, 0xff, 0xff, 0xff, 0x1a, 0x0d, 0x10, 0xff, 0xff, 0xff, 0x22
	.cfi_escape 0x10, 0x0e, 0x0e, 0x38, 0x1c, 0x0d, 0xc0, 0xff, 0xff, 0xff, 0x1a, 0x0d, 0x08, 0xff, 0xff, 0xff, 0x22
	.cfi_escape 0x10, 0x0f, 0x0e, 0x38, 0x1c, 0x0d, 0xc0, 0xff, 0xff, 0xff, 0x1a, 0x0d, 0x00, 0xff, 0xff, 0xff, 0x22
..LN1298:
                                # LOE
..B3.51:                        # Preds ..B3.48 Latency 89
..LN1299:
	.loc    1  151  is_stmt 1
        vmovaps   %zmm6, %zmm7                                  #151.18 c1
..LN1300:
	.loc    1  160  is_stmt 1
        movq      (%r12), %r8                                   #160.30 c1
..LN1301:
	.loc    1  151  is_stmt 1
        vmovaps   448(%rsp), %zmm18                             #151.18 c5
..LN1302:
	.loc    1  148  is_stmt 1
        subq      %rbx, %rax                                    #148.5 c5
..LN1303:
	.loc    1  151  is_stmt 1
        vmovaps   512(%rsp), %zmm20                             #151.18 c9
..LN1304:
	.loc    1  148  is_stmt 1
        incq      %rax                                          #148.5 c9
..LN1305:
	.loc    1  151  is_stmt 1
        vmovaps   576(%rsp), %zmm10                             #151.18 c13
..LN1306:
	.loc    1  160  is_stmt 1
        lea       (%r8,%rbx,4), %r10                            #160.39 c13
..LN1307:
	.loc    1  151  is_stmt 1
        vmovaps   640(%rsp), %zmm8                              #151.18 c17
..LN1308:
        movq      %rax, 1592(%rsp)                              #151.18 c17
..LN1309:
        vmovaps   704(%rsp), %zmm21                             #151.18 c21
..LN1310:
        movl      $1, %eax                                      #151.18 c21
..LN1311:
        vmovaps   320(%rsp), %zmm11                             #151.18 c25
..LN1312:
	.loc    1  149  is_stmt 1
        xorl      %edi, %edi                                    #149.5 c25
..LN1313:
	.loc    1  151  is_stmt 1
        vmovaps   768(%rsp), %zmm22                             #151.18 c29
..LN1314:
        movq      %r10, 1496(%rsp)                              #151.18 c29
..LN1315:
        vmovaps   832(%rsp), %zmm12                             #151.18 c33
..LN1316:
        movq      %r12, 1400(%rsp)                              #151.18 c33
..LN1317:
        vmovaps   896(%rsp), %zmm13                             #151.18 c37
..LN1318:
        kmov      %eax, %k1                                     #151.18 c37
..LN1319:
        vmovaps   960(%rsp), %zmm14                             #151.18 c41
..LN1320:
        vmovaps   1024(%rsp), %zmm15                            #151.18 c45
..LN1321:
        vmovaps   384(%rsp), %zmm16                             #151.18 c49
..LN1322:
        vbroadcastss 24(%rsp), %zmm19                           #151.18 c53
..LN1323:
	.loc    1  161  is_stmt 1
        movq      8(%r12), %r11                                 #161.30 c53
..LN1324:
	.loc    1  151  is_stmt 1
        vpxord    %zmm17, %zmm17, %zmm17                        #151.18 c57
..LN1325:
	.loc    1  162  is_stmt 1
        movq      16(%r12), %rdx                                #162.30 c57
..LN1326:
	.loc    1  151  is_stmt 1
        vmovaps   1088(%rsp), %zmm9                             #151.18 c61
..LN1327:
	.loc    1  156  is_stmt 1
        movq      %rdx, %rcx                                    #156.7 c61
..LN1328:
	.loc    1  172  is_stmt 1
        movq      24(%r12), %r15                                #172.9 c65
..LN1329:
        movq      32(%r12), %r14                                #172.39 c65
..LN1330:
        movq      40(%r12), %r13                                #172.60 c69
..LN1331:
	.loc    1  161  is_stmt 1
        lea       (%r11,%rbx,4), %r9                            #161.39 c69
..LN1332:
	.loc    1  162  is_stmt 1
        lea       (%rdx,%rbx,4), %rsi                           #162.39 c73
..LN1333:
	.loc    1  156  is_stmt 1
        andq      $63, %rcx                                     #156.7 c73
..LN1334:
	.loc    1  151  is_stmt 1
        movq      %rcx, 1472(%rsp)                              #151.18 c77
..LN1335:
        movq      %rsi, 1480(%rsp)                              #151.18 c77
..LN1336:
        movq      %r9, 1488(%rsp)                               #151.18 c81
..LN1337:
        movq      1464(%rsp), %rsi                              #151.18 c81
..LN1338:
        movq      %r11, 1512(%rsp)                              #151.18 c85
..LN1339:
        movq      %r13, 1600(%rsp)                              #151.18 c85
..LN1340:
        movq      %r14, 1608(%rsp)                              #151.18 c89
..LN1341:
        movq      %r15, 1616(%rsp)                              #151.18 c89
..LN1342:
                                # LOE rdx rbx rsi rdi r8 zmm6 zmm7 zmm8 zmm9 zmm10 zmm11 zmm12 zmm13 zmm14 zmm15 zmm16 zmm17 zmm18 zmm19 zmm20 zmm21 zmm22 k1
..B3.52:                        # Preds ..B3.116 ..B3.51 Latency 17
..L248:         # optimization report
                # OPENMP LOOP
                # %s was not vectorized: inner loop was already vectorized
..LN1343:
	.loc    1  172  is_stmt 1
        movl      1624(%rsp), %r10d                             #172.9 c1
..LN1344:
	.loc    1  153  is_stmt 1
        vmovaps   %zmm6, %zmm5                                  #153.18 c5
..LN1345:
	.loc    1  172  is_stmt 1
        lea       1(%r10,%rdi), %r10d                           #172.9 c5
..LN1346:
	.loc    1  151  is_stmt 1
        vmovaps   %zmm7, %zmm0                                  #151.18 c9
..LN1347:
	.loc    1  156  is_stmt 1
        lea       -1(%r10), %eax                                #156.7 c9
..LN1348:
	.loc    1  152  is_stmt 1
        vmovaps   %zmm6, %zmm4                                  #152.18 c13
..LN1349:
	.loc    1  156  is_stmt 1
        testl     %eax, %eax                                    #156.7 c13
..LN1350:
	.loc    1  153  is_stmt 1
        vmovaps   %zmm5, %zmm7                                  #153.18 c17
..LN1351:
	.loc    1  156  is_stmt 1
        jle       ..B3.84       # Prob 50%                      #156.7 c17
..LN1352:
                                # LOE rdx rbx rsi rdi r8 r10d zmm0 zmm4 zmm5 zmm6 zmm7 zmm8 zmm9 zmm10 zmm11 zmm12 zmm13 zmm14 zmm15 zmm16 zmm17 zmm18 zmm19 zmm20 zmm21 zmm22 k1
..B3.53:                        # Preds ..B3.52 Latency 21
..LN1353:
	.loc    1  151  is_stmt 1
        vmovaps   %zmm17, %zmm2                                 #151.18 c1
..LN1354:
	.loc    1  156  is_stmt 1
        movslq    %r10d, %r9                                    #156.7 c1
..LN1355:
	.loc    1  152  is_stmt 1
        vmovaps   %zmm17, %zmm1                                 #152.18 c5
..LN1356:
	.loc    1  156  is_stmt 1
        decq      %r9                                           #156.7 c5
..LN1357:
	.loc    1  153  is_stmt 1
        vmovaps   %zmm17, %zmm0                                 #153.18 c9
..LN1358:
	.loc    1  156  is_stmt 1
        movq      1504(%rsp), %rax                              #156.7 c9
..LN1359:
        movq      1472(%rsp), %r14                              #156.7 c13
..LN1360:
        cmpq      %r9, %rax                                     #156.7 c13
..LN1361:
        jae       ..L249        # Prob 50%                      #156.7 c17
..LN1362:
        movq      %rax, %r9                                     #156.7
..L249:                                                         #
..LN1363:
        testq     %r14, %r14                                    #156.7 c17
..LN1364:
        je        ..B3.55       # Prob 50%                      #156.7 c21
..LN1365:
                                # LOE rdx rbx rsi rdi r8 r9 r14 r10d zmm0 zmm1 zmm2 zmm6 zmm7 zmm8 zmm9 zmm10 zmm11 zmm12 zmm13 zmm14 zmm15 zmm16 zmm17 zmm18 zmm19 zmm20 zmm21 zmm22 k1
..B3.54:                        # Preds ..B3.53 Latency 21
..LN1366:
        xorl      %r14d, %r14d                                  #156.7 c1
..LN1367:
        movq      1472(%rsp), %rax                              #156.7 c1
..LN1368:
        subq      %rax, %r14                                    #156.7 c5
..LN1369:
        addq      $64, %r14                                     #156.7 c9
..LN1370:
        shrq      $2, %r14                                      #156.7 c13
..LN1371:
        cmpq      %r14, %r9                                     #156.7 c17
..LN1372:
        jae       ..L250        # Prob 50%                      #156.7 c21
..LN1373:
        movq      %r9, %r14                                     #156.7
..L250:                                                         #
..LN1374:
                                # LOE rdx rbx rsi rdi r8 r9 r14 r10d zmm0 zmm1 zmm2 zmm6 zmm7 zmm8 zmm9 zmm10 zmm11 zmm12 zmm13 zmm14 zmm15 zmm16 zmm17 zmm18 zmm19 zmm20 zmm21 zmm22 k1
..B3.55:                        # Preds ..B3.54 ..B3.53 Latency 21
..LN1375:
        movq      %r9, %rax                                     #156.7 c1
..LN1376:
        subq      %r14, %rax                                    #156.7 c5
..LN1377:
        andq      $15, %rax                                     #156.7 c9
..LN1378:
        negq      %rax                                          #156.7 c13
..LN1379:
        addq      %r9, %rax                                     #156.7 c17
..LN1380:
        cmpq      $1, %r14                                      #156.7 c21
..LN1381:
        jb        ..B3.73       # Prob 50%                      #156.7 c21
..LN1382:
                                # LOE rax rdx rbx rsi rdi r8 r9 r14 r10d zmm0 zmm1 zmm2 zmm6 zmm7 zmm8 zmm9 zmm10 zmm11 zmm12 zmm13 zmm14 zmm15 zmm16 zmm17 zmm18 zmm19 zmm20 zmm21 zmm22 k1
..B3.56:                        # Preds ..B3.55 Latency 97
..LN1383:
        vmovaps   .L_2il0floatpacket.7(%rip), %zmm28            #156.7 c1
..LN1384:
        vmovdqa32 .L_2il0floatpacket.11(%rip), %zmm27           #156.7 c5
..LN1385:
        vmovapd   .L_2il0floatpacket.8(%rip), %zmm26            #156.7 c9
..LN1386:
        vmovapd   .L_2il0floatpacket.9(%rip), %zmm25            #156.7 c13
..LN1387:
        vmovaps   .L_2il0floatpacket.10(%rip), %zmm3            #156.7 c17
..LN1388:
        vmovaps   192(%rsp), %zmm30                             #156.7 c21
..LN1389:
        vmovaps   %zmm11, 320(%rsp)                             #156.7 c21
..LN1390:
        vmovaps   256(%rsp), %zmm29                             #156.7 c25
..LN1391:
        vmovaps   %zmm9, 1088(%rsp)                             #156.7 c25
..LN1392:
	.loc    1  160  is_stmt 1
        movq      1496(%rsp), %r15                              #160.39 c29
..LN1393:
	.loc    1  156  is_stmt 1
        movl      $1285, %esi                                   #156.7 c29
..LN1394:
	.loc    1  160  is_stmt 1
        vbroadcastss (%r15,%rdi,4), %zmm24                      #160.39 c33
..LN1395:
	.loc    1  156  is_stmt 1
        kmov      %esi, %k6                                     #156.7 c33
..LN1396:
	.loc    1  161  is_stmt 1
        movq      1488(%rsp), %r15                              #161.39 c37
..LN1397:
	.loc    1  156  is_stmt 1
        movl      $20560, %esi                                  #156.7 c37
..LN1398:
	.loc    1  161  is_stmt 1
        vbroadcastss (%r15,%rdi,4), %zmm23                      #161.39 c41
..LN1399:
	.loc    1  156  is_stmt 1
        kmov      %esi, %k5                                     #156.7 c41
..LN1400:
	.loc    1  162  is_stmt 1
        movq      1480(%rsp), %r15                              #162.39 c45
..LN1401:
	.loc    1  156  is_stmt 1
        movl      $2570, %esi                                   #156.7 c45
..LN1402:
	.loc    1  162  is_stmt 1
        vbroadcastss (%r15,%rdi,4), %zmm5                       #162.39 c49
..LN1403:
	.loc    1  156  is_stmt 1
        lea       1344(%rsp), %r15                              #156.7 c49
..LN1404:
        kmov      %esi, %k4                                     #156.7 c53
..LN1405:
        movl      $41120, %esi                                  #156.7 c53
..LN1406:
	.loc    1  169  is_stmt 1
        xorl      %r12d, %r12d                                  #169.9 c57
..LN1407:
	.loc    1  156  is_stmt 1
        kmov      %esi, %k3                                     #156.7 c57
..LN1408:
        xorl      %esi, %esi                                    #156.7 c61
..LN1409:
        incl      %esi                                          #156.7
..LN1410:
	.loc    1  169  is_stmt 1
        movl      %r12d, 1544(%rsp)                             #169.9 c61
..LN1411:
        movl      %r12d, 1560(%rsp)                             #169.9 c65
..LN1412:
	.loc    1  156  is_stmt 1
        xorl      %ecx, %ecx                                    #156.7 c65
..LN1413:
        movq      %r14, (%r15)                                  #156.7 c69
..LN1414:
        kmov      %esi, %k2                                     #156.7 c69
..LN1415:
        vpbroadcastq (%r15), %zmm4                              #156.7 c73
..LN1416:
        vpackstorelps %zmm7, 8(%rsp){%k2}                       #156.7 c73
..LN1417:
        vpackstorelps %zmm6, 16(%rsp){%k2}                      #156.7 c77
..LN1418:
	.loc    1  164  is_stmt 1
        xorl      %r13d, %r13d                                  #164.56 c77
..LN1419:
	.loc    1  169  is_stmt 1
        movl      %r12d, 1576(%rsp)                             #169.9 c81
..LN1420:
        xorl      %r11d, %r11d                                  #169.9 c81
..LN1421:
	.loc    1  156  is_stmt 1
        movl      %r10d, 48(%rsp)                               #156.7 c85
..LN1422:
        movl      1560(%rsp), %esi                              #156.7 c85
..LN1423:
        movq      %r9, 56(%rsp)                                 #156.7 c89
..LN1424:
        movq      %rdi, 1448(%rsp)                              #156.7 c89
..LN1425:
        movq      %rax, 1352(%rsp)                              #156.7 c93
..LN1426:
        movl      1544(%rsp), %edi                              #156.7 c93
..LN1427:
        movq      %rbx, 1456(%rsp)                              #156.7 c97
..LN1428:
        movl      %ecx, %ebx                                    #156.7 c97
..LN1429:
                                # LOE rdx r8 r14 ecx ebx esi edi r11d r12d r13d zmm0 zmm1 zmm2 zmm3 zmm4 zmm5 zmm8 zmm10 zmm12 zmm13 zmm14 zmm15 zmm16 zmm17 zmm18 zmm20 zmm21 zmm22 zmm23 zmm24 zmm25 zmm26 zmm27 zmm28 zmm29 zmm30 k1 k3 k4 k5 k6
..B3.57:                        # Preds ..B3.59 ..B3.56 Latency 281
..L251:         # optimization report
                # LOOP WAS VECTORIZED
                # PEELED LOOP FOR VECTORIZATION
                # SIMD LOOP
                # MASKED VECTORIZATION
                # VECTORIZATION HAS UNALIGNED MEMORY REFERENCES
                # VECTORIZATION SPEEDUP COEFFECIENT 2.337891
                # VECTOR TRIP COUNT IS ESTIMATED CONSTANT
                # VECTOR LENGTH 16
                # NORMALIZED VECTORIZATION OVERHEAD 0.500000
..LN1430:
	.loc    1  160  is_stmt 1
        movslq    %ecx, %rcx                                    #160.30 c1
..LN1431:
	.loc    1  156  is_stmt 1
        vpshufd   $216, %zmm27, %zmm6                           #156.7 c5
..LN1432:
        vpshufd   $114, %zmm27, %zmm11                          #156.7 c9
..LN1433:
        vpermf32x4 $80, %zmm6, %zmm30{%k6}                      #156.7 c13
..LN1434:
        vpermf32x4 $80, %zmm11, %zmm30{%k5}                     #156.7 c17
..LN1435:
        vpermf32x4 $80, %zmm11, %zmm30{%k4}                     #156.7 c21
..LN1436:
        vmovaps   %zmm30, %zmm7                                 #156.7 c25
..LN1437:
        vpermf32x4 $80, %zmm6, %zmm7{%k3}                       #156.7 c29
..LN1438:
        vpermf32x4 $78, %zmm27, %zmm11                          #156.7 c33
..LN1439:
        vpsrad    $31, %zmm7, %zmm9                             #156.7 c37
..LN1440:
        vpandq    %zmm26, %zmm7, %zmm19                         #156.7 c41
..LN1441:
        vpandq    %zmm25, %zmm9, %zmm31                         #156.7 c45
..LN1442:
        vpshufd   $216, %zmm11, %zmm7                           #156.7 c49
..LN1443:
        vpshufd   $114, %zmm11, %zmm6                           #156.7 c53
..LN1444:
        vporq     %zmm19, %zmm31, %zmm19                        #156.7 c57
..LN1445:
        vpermf32x4 $80, %zmm7, %zmm29{%k6}                      #156.7 c61
..LN1446:
        vpermf32x4 $80, %zmm6, %zmm29{%k5}                      #156.7 c65
..LN1447:
        vpcmpud   $2, %zmm4, %zmm19, %k2                        #156.7 c69
..LN1448:
        vpermf32x4 $80, %zmm6, %zmm29{%k4}                      #156.7 c73
..LN1449:
        vpcmpud   $0, %zmm4, %zmm19, %k7                        #156.7 c77
..LN1450:
        kmov      %k2, %r15d                                    #156.7 c77
..LN1451:
        vpcmpud   $1, %zmm4, %zmm19, %k0                        #156.7 c81
..LN1452:
        addl      %r15d, %r15d                                  #156.7 c81
..LN1453:
        vmovaps   %zmm29, %zmm9                                 #156.7 c85
..LN1454:
        kmov      %k7, %r9d                                     #156.7 c85
..LN1455:
        vpermf32x4 $80, %zmm7, %zmm9{%k3}                       #156.7 c89
..LN1456:
        kmov      %k0, %r10d                                    #156.7 c89
..LN1457:
        vpsrad    $31, %zmm9, %zmm31                            #156.7 c93
..LN1458:
        andl      %r9d, %r15d                                   #156.7 c93
..LN1459:
        vmovaps   %zmm17, %zmm19                                #156.7 c97
..LN1460:
        orl       %r10d, %r15d                                  #156.7 c97
..LN1461:
        vpandq    %zmm26, %zmm9, %zmm6                          #156.7 c101
..LN1462:
        andl      $-21846, %r15d                                #156.7 c101
..LN1463:
        vpandq    %zmm25, %zmm31, %zmm11                        #156.7 c105
..LN1464:
        kmov      %r15d, %k7                                    #156.7 c105
..LN1465:
        vbroadcastss .L_2il0floatpacket.12(%rip), %zmm19{%k7}   #156.7 c109
..LN1466:
        vcmpneqpd %zmm19, %zmm17, %k0                           #156.7 c113
..LN1467:
        vporq     %zmm6, %zmm11, %zmm7                          #156.7 c117
..LN1468:
        vpcmpud   $2, %zmm4, %zmm7, %k7                         #156.7 c121
..LN1469:
        kmov      %k0, %eax                                     #156.7 c121
..LN1470:
        vpcmpud   $0, %zmm4, %zmm7, %k2                         #156.7 c125
..LN1471:
        movzbl    %al, %eax                                     #156.7 c125
..LN1472:
        vpcmpud   $1, %zmm4, %zmm7, %k0                         #156.7 c129
..LN1473:
        kmov      %k7, %r15d                                    #156.7 c129
..LN1474:
        vmovaps   %zmm17, %zmm19                                #156.7 c133
..LN1475:
        kmov      %k2, %r9d                                     #156.7 c133
..LN1476:
	.loc    1  160  is_stmt 1
        vmovaps   %zmm17, %zmm11                                #160.30 c137
..LN1477:
	.loc    1  156  is_stmt 1
        addl      %r15d, %r15d                                  #156.7 c137
..LN1478:
	.loc    1  161  is_stmt 1
        vmovaps   %zmm17, %zmm6                                 #161.30 c141
..LN1479:
	.loc    1  156  is_stmt 1
        kmov      %k0, %r10d                                    #156.7 c141
..LN1480:
	.loc    1  162  is_stmt 1
        vmovaps   %zmm17, %zmm9                                 #162.30 c145
..LN1481:
	.loc    1  156  is_stmt 1
        andl      %r9d, %r15d                                   #156.7 c145
..LN1482:
        vpaddd    %zmm28, %zmm27, %zmm27                        #156.7 c149
..LN1483:
        orl       %r10d, %r15d                                  #156.7 c149
..LN1484:
        andl      $-21846, %r15d                                #156.7 c153
..LN1485:
        kmov      %r15d, %k2                                    #156.7 c157
..LN1486:
        vbroadcastss .L_2il0floatpacket.12(%rip), %zmm19{%k2}   #156.7 c161
..LN1487:
        vcmpneqpd %zmm19, %zmm17, %k0                           #156.7 c165
..LN1488:
        nop                                                     #156.7 c169
..LN1489:
        kmov      %k0, %r9d                                     #156.7 c173
..LN1490:
        shll      $8, %r9d                                      #156.7 c177
..LN1491:
        orl       %r9d, %eax                                    #156.7 c181
..LN1492:
	.loc    1  160  is_stmt 1
        lea       (%r8,%rcx,4), %r9                             #160.30 c181
..LN1493:
        kmov      %eax, %k2                                     #160.30 c185
..LN1494:
	.loc    1  156  is_stmt 1
        movzwl    %ax, %r10d                                    #156.7 c185
..LN1495:
	.loc    1  162  is_stmt 1
        vloadunpacklps (%rdx,%rcx,4), %zmm9{%k2}                #162.30 c189
..LN1496:
	.loc    1  160  is_stmt 1
        kmov      %k2, %k7                                      #160.30 c189
..LN1497:
        vgatherpf0hintdps (%r9,%zmm3,4){%k7}                    #160.30 c193
..LN1498:
        vgatherpf0hintdps (%r9,%zmm3,4){%k7}                    #160.30
..LN1499:
        nop                                                     #160.30
..L253:                                                         #
..LN1500:
        vgatherdps (%r9,%zmm3,4), %zmm11{%k7}                   #160.30
..LN1501:
        jkzd      ..L252, %k7   # Prob 50%                      #160.30
..LN1502:
        vgatherdps (%r9,%zmm3,4), %zmm11{%k7}                   #160.30
..LN1503:
        vgatherdps (%r9,%zmm3,4), %zmm11{%k7}                   #160.30
..LN1504:
        vgatherdps (%r9,%zmm3,4), %zmm11{%k7}                   #160.30
..LN1505:
        vgatherdps (%r9,%zmm3,4), %zmm11{%k7}                   #160.30
..LN1506:
        vgatherdps (%r9,%zmm3,4), %zmm11{%k7}                   #160.30
..LN1507:
        vgatherdps (%r9,%zmm3,4), %zmm11{%k7}                   #160.30
..LN1508:
        vgatherdps (%r9,%zmm3,4), %zmm11{%k7}                   #160.30
..LN1509:
        vgatherdps (%r9,%zmm3,4), %zmm11{%k7}                   #160.30
..LN1510:
        jknzd     ..L253, %k7   # Prob 50%                      #160.30
..L252:                                                         #
..LN1511:
        vsubps    %zmm24, %zmm11, %zmm19                        #160.39 c213
..LN1512:
	.loc    1  161  is_stmt 1
        movq      1512(%rsp), %rax                              #161.30 c213
..LN1513:
	.loc    1  162  is_stmt 1
        vsubps    %zmm5, %zmm9, %zmm9                           #162.39 c217
..LN1514:
	.loc    1  161  is_stmt 1
        lea       (%rax,%rcx,4), %r9                            #161.30 c217
..LN1515:
        kmov      %k2, %k7                                      #161.30 c221
..LN1516:
        vgatherpf0hintdps (%r9,%zmm3,4){%k7}                    #161.30 c225
..LN1517:
        vgatherpf0hintdps (%r9,%zmm3,4){%k7}                    #161.30
..LN1518:
        nop                                                     #161.30
..L255:                                                         #
..LN1519:
        vgatherdps (%r9,%zmm3,4), %zmm6{%k7}                    #161.30
..LN1520:
        jkzd      ..L254, %k7   # Prob 50%                      #161.30
..LN1521:
        vgatherdps (%r9,%zmm3,4), %zmm6{%k7}                    #161.30
..LN1522:
        vgatherdps (%r9,%zmm3,4), %zmm6{%k7}                    #161.30
..LN1523:
        vgatherdps (%r9,%zmm3,4), %zmm6{%k7}                    #161.30
..LN1524:
        vgatherdps (%r9,%zmm3,4), %zmm6{%k7}                    #161.30
..LN1525:
        vgatherdps (%r9,%zmm3,4), %zmm6{%k7}                    #161.30
..LN1526:
        vgatherdps (%r9,%zmm3,4), %zmm6{%k7}                    #161.30
..LN1527:
        vgatherdps (%r9,%zmm3,4), %zmm6{%k7}                    #161.30
..LN1528:
        vgatherdps (%r9,%zmm3,4), %zmm6{%k7}                    #161.30
..LN1529:
        jknzd     ..L255, %k7   # Prob 50%                      #161.30
..L254:                                                         #
..LN1530:
        vsubps    %zmm23, %zmm6, %zmm11                         #161.39 c245
..LN1531:
	.loc    1  169  is_stmt 1
        testl     %r10d, %r10d                                  #169.9 c245
..LN1532:
	.loc    1  163  is_stmt 1
        vmulps    %zmm11, %zmm11, %zmm7                         #163.51 c249
..LN1533:
        vfmadd231ps %zmm19, %zmm19, %zmm7                       #163.51 c253
..LN1534:
        vfmadd231ps %zmm9, %zmm9, %zmm7                         #163.59 c257
..LN1535:
	.loc    1  164  is_stmt 1
        vrsqrt23ps %zmm7, %zmm6                                 #164.56 c261
..LN1536:
        vmulps    %zmm6, %zmm6, %zmm31                          #164.56 c265
..LN1537:
        vmulps    %zmm31, %zmm6, %zmm31                         #164.56 c269
..LN1538:
	.loc    1  167  is_stmt 1
        vfmadd231ps %zmm19, %zmm31, %zmm2{%k2}                  #167.13 c273
..LN1539:
        vfmadd231ps %zmm11, %zmm31, %zmm1{%k2}                  #167.35 c277
..LN1540:
        vfmadd231ps %zmm9, %zmm31, %zmm0{%k2}                   #167.57 c281
..LN1541:
	.loc    1  169  is_stmt 1
        je        ..B3.59       # Prob 40%                      #169.9 c281
..LN1542:
                                # LOE rdx r8 r14 ecx ebx esi edi r10d r11d r12d r13d zmm0 zmm1 zmm2 zmm3 zmm4 zmm5 zmm6 zmm7 zmm8 zmm9 zmm10 zmm11 zmm12 zmm13 zmm14 zmm15 zmm16 zmm17 zmm18 zmm19 zmm20 zmm21 zmm22 zmm23 zmm24 zmm25 zmm26 zmm27 zmm28 zmm29 zmm30 zmm31 k1 k3 k4 k5 k6
..B3.58:                        # Preds ..B3.57 Latency 21
..LN1543:
        vmovaps   %zmm19, %zmm16                                #169.9 c1
..LN1544:
        movl      %r10d, %edi                                   #169.9 c1
..LN1545:
        vmovaps   %zmm11, %zmm15                                #169.9 c5
..LN1546:
        movl      %r10d, %esi                                   #169.9 c5
..LN1547:
        vmovaps   %zmm9, %zmm14                                 #169.9 c9
..LN1548:
        movl      %r10d, %ebx                                   #169.9 c9
..LN1549:
        vmovaps   %zmm7, %zmm13                                 #169.9 c13
..LN1550:
        movl      %r10d, %r12d                                  #169.9 c13
..LN1551:
	.loc    1  164  is_stmt 1
        vmovaps   %zmm6, %zmm12                                 #164.56 c17
..LN1552:
        movl      %r10d, %r13d                                  #164.56 c17
..LN1553:
	.loc    1  169  is_stmt 1
        vmovaps   %zmm31, %zmm22                                #169.9 c21
..LN1554:
        movl      %r10d, %r11d                                  #169.9 c21
..LN1555:
                                # LOE rdx r8 r14 ecx ebx esi edi r11d r12d r13d zmm0 zmm1 zmm2 zmm3 zmm4 zmm5 zmm8 zmm10 zmm12 zmm13 zmm14 zmm15 zmm16 zmm17 zmm18 zmm20 zmm21 zmm22 zmm23 zmm24 zmm25 zmm26 zmm27 zmm28 zmm29 zmm30 k1 k3 k4 k5 k6
..B3.59:                        # Preds ..B3.57 ..B3.58 Latency 5
..LN1556:
	.loc    1  156  is_stmt 1
        addl      $16, %ecx                                     #156.7 c1
..LN1557:
        cmpq      %r14, %rcx                                    #156.7 c5
..LN1558:
        jb        ..B3.57       # Prob 82%                      #156.7 c5
..LN1559:
                                # LOE rdx r8 r14 ecx ebx esi edi r11d r12d r13d zmm0 zmm1 zmm2 zmm3 zmm4 zmm5 zmm8 zmm10 zmm12 zmm13 zmm14 zmm15 zmm16 zmm17 zmm18 zmm20 zmm21 zmm22 zmm23 zmm24 zmm25 zmm26 zmm27 zmm28 zmm29 zmm30 k1 k3 k4 k5 k6
..B3.60:                        # Preds ..B3.59 Latency 33
..LN1560:
        vmovaps   320(%rsp), %zmm11                             # c1
..LN1561:
        vmovaps   %zmm30, 192(%rsp)                             # c1
..LN1562:
        vbroadcastss 8(%rsp), %zmm7                             # c5
..LN1563:
        vmovaps   %zmm29, 256(%rsp)                             # c5
..LN1564:
        vbroadcastss 16(%rsp), %zmm6                            # c9
..LN1565:
        movl      %ebx, 1576(%rsp)                              # c9
..LN1566:
        vbroadcastss 24(%rsp), %zmm19                           # c13
..LN1567:
        movl      %esi, 1560(%rsp)                              # c13
..LN1568:
        vmovaps   1088(%rsp), %zmm9                             # c17
..LN1569:
        movl      %edi, 1544(%rsp)                              # c17
..LN1570:
        movl      48(%rsp), %r10d                               # c21
..LN1571:
        movq      56(%rsp), %r9                                 # c25
..LN1572:
        movq      1352(%rsp), %rax                              # c25
..LN1573:
        movq      1448(%rsp), %rdi                              # c29
..LN1574:
        movq      1456(%rsp), %rbx                              # c29
..LN1575:
        movq      1464(%rsp), %rsi                              # c33
..LN1576:
                                # LOE rax rdx rbx rsi rdi r8 r9 r10 r14 eax ebx esi edi r9d r10d r11d r12d r13d al bl ah bh sil dil r9b r10b xmm6 xmm7  ymm6 ymm7  zmm0 zmm1 zmm2 zmm6 zmm7 zmm8 zmm9 zmm10 zmm11 zmm12 zmm13 zmm14 zmm15 zmm16 zmm17 zmm18 zmm19 zmm20 zmm21 zmm22 k1
..B3.72:                        # Preds ..B3.60 Latency 1
..LN1577:
        cmpq      %r14, %r9                                     #156.7 c1
..LN1578:
        je        ..B3.83       # Prob 10%                      #156.7 c1
..LN1579:
                                # LOE rax rdx rbx rsi rdi r8 r9 r14 r10d zmm0 zmm1 zmm2 zmm6 zmm7 zmm8 zmm9 zmm10 zmm11 zmm12 zmm13 zmm14 zmm15 zmm16 zmm17 zmm18 zmm19 zmm20 zmm21 zmm22 k1
..B3.73:                        # Preds ..B3.72 ..B3.55 Latency 5
..LN1580:
        lea       16(%r14), %rcx                                #156.7 c1
..LN1581:
        cmpq      %rcx, %rax                                    #156.7 c5
..LN1582:
        jb        ..B3.77       # Prob 50%                      #156.7 c5
..LN1583:
                                # LOE rax rdx rbx rsi rdi r8 r9 r14 r10d zmm0 zmm1 zmm2 zmm6 zmm7 zmm8 zmm9 zmm10 zmm11 zmm12 zmm13 zmm14 zmm15 zmm16 zmm17 zmm18 zmm19 zmm20 zmm21 zmm22 k1
..B3.74:                        # Preds ..B3.73 Latency 41
..LN1584:
        movl      %r14d, %ecx                                   #156.7 c1
..LN1585:
	.loc    1  160  is_stmt 1
        vprefetch0 (%r8)                                        #160.30 c5
..LN1586:
	.loc    1  156  is_stmt 1
        movslq    %r14d, %r11                                   #156.7 c5
..LN1587:
	.loc    1  160  is_stmt 1
        vprefetch0 64(%r8)                                      #160.30 c9
..LN1588:
	.loc    1  162  is_stmt 1
        movb      %al, %al                                      #162.30 c9
..LN1589:
        vprefetch0 (%rdx)                                       #162.30 c13
..LN1590:
        movb      %al, %al                                      #162.30 c13
..LN1591:
        vprefetch0 64(%rdx)                                     #162.30 c17
..LN1592:
	.loc    1  161  is_stmt 1
        movb      %al, %al                                      #161.30 c17
..LN1593:
        movq      1512(%rsp), %r12                              #161.30 c21
..LN1594:
	.loc    1  160  is_stmt 1
        movq      1496(%rsp), %r13                              #160.39 c21
..LN1595:
        vbroadcastss (%r13,%rdi,4), %zmm5                       #160.39 c25
..LN1596:
	.loc    1  161  is_stmt 1
        vprefetch0 (%r12)                                       #161.30 c25
..LN1597:
        vprefetch0 64(%r12)                                     #161.30 c29
..LN1598:
        movb      %al, %al                                      #161.39 c29
..LN1599:
        movq      1488(%rsp), %r14                              #161.39 c33
..LN1600:
	.loc    1  162  is_stmt 1
        movq      1480(%rsp), %r15                              #162.39 c33
..LN1601:
	.loc    1  161  is_stmt 1
        vbroadcastss (%r14,%rdi,4), %zmm4                       #161.39 c37
..LN1602:
	.loc    1  162  is_stmt 1
        vbroadcastss (%r15,%rdi,4), %zmm3                       #162.39 c41
..LN1603:
                                # LOE rax rdx rbx rsi rdi r8 r9 r11 r12 ecx r10d zmm0 zmm1 zmm2 zmm3 zmm4 zmm5 zmm6 zmm7 zmm8 zmm9 zmm10 zmm11 zmm12 zmm13 zmm14 zmm15 zmm16 zmm17 zmm18 zmm19 zmm20 zmm21 zmm22 k1
..B3.75:                        # Preds ..B3.75 ..B3.74 Latency 65
..L256:         # optimization report
                # LOOP WAS UNROLLED BY 1
                # LOOP WAS PREFETCHED, LINES = 6
                # LOOP WAS VECTORIZED
                # SIMD LOOP
                # VECTORIZATION HAS UNALIGNED MEMORY REFERENCES
                # VECTORIZATION SPEEDUP COEFFECIENT 13.468750
                # VECTOR TRIP COUNT IS ESTIMATED CONSTANT
                # VECTOR LENGTH 16
                # NORMALIZED VECTORIZATION OVERHEAD 1.125000
..LN1604:
	.loc    1  160  is_stmt 1
        vprefetch1 512(%r8,%r11,4)                              #160.30 c1
..LN1605:
	.loc    1  161  is_stmt 1
        vloadunpackld (%r12,%r11,4), %zmm24                     #161.30 c5
..LN1606:
	.loc    1  160  is_stmt 1
        vprefetch0 128(%r8,%r11,4)                              #160.30 c5
..LN1607:
        vloadunpackld (%r8,%r11,4), %zmm23                      #160.30 c9
..LN1608:
	.loc    1  161  is_stmt 1
        vprefetch1 512(%r12,%r11,4)                             #161.30 c9
..LN1609:
        vloadunpackhd 64(%r12,%r11,4), %zmm24                   #161.30 c13
..LN1610:
        vprefetch0 128(%r12,%r11,4)                             #161.30 c13
..LN1611:
	.loc    1  160  is_stmt 1
        vloadunpackhd 64(%r8,%r11,4), %zmm23                    #160.30 c17
..LN1612:
	.loc    1  162  is_stmt 1
        vprefetch1 512(%rdx,%r11,4)                             #162.30 c17
..LN1613:
	.loc    1  161  is_stmt 1
        vsubps    %zmm4, %zmm24, %zmm29                         #161.39 c21
..LN1614:
	.loc    1  162  is_stmt 1
        vprefetch0 128(%rdx,%r11,4)                             #162.30 c21
..LN1615:
	.loc    1  160  is_stmt 1
        vsubps    %zmm5, %zmm23, %zmm28                         #160.39 c25
..LN1616:
	.loc    1  156  is_stmt 1
        addl      $16, %ecx                                     #156.7 c25
..LN1617:
	.loc    1  163  is_stmt 1
        vmulps    %zmm29, %zmm29, %zmm25                        #163.51 c29
..LN1618:
	.loc    1  156  is_stmt 1
        addq      $16, %r11                                     #156.7 c29
..LN1619:
	.loc    1  162  is_stmt 1
        vsubrps   -64(%rdx,%r11,4), %zmm3, %zmm31               #162.39 c33
..LN1620:
	.loc    1  156  is_stmt 1
        cmpq      %rax, %rcx                                    #156.7 c33
..LN1621:
	.loc    1  163  is_stmt 1
        vfmadd231ps %zmm28, %zmm28, %zmm25                      #163.51 c37
..LN1622:
        vfmadd231ps %zmm31, %zmm31, %zmm25                      #163.59 c41
..LN1623:
	.loc    1  164  is_stmt 1
        vrsqrt23ps %zmm25, %zmm26                               #164.56 c45
..LN1624:
        vmulps    %zmm26, %zmm26, %zmm27                        #164.56 c49
..LN1625:
        vmulps    %zmm27, %zmm26, %zmm30                        #164.56 c53
..LN1626:
	.loc    1  167  is_stmt 1
        vfmadd231ps %zmm28, %zmm30, %zmm2                       #167.13 c57
..LN1627:
        vfmadd231ps %zmm29, %zmm30, %zmm1                       #167.35 c61
..LN1628:
        vfmadd231ps %zmm31, %zmm30, %zmm0                       #167.57 c65
..LN1629:
	.loc    1  156  is_stmt 1
        jb        ..B3.75       # Prob 82%                      #156.7 c65
..LN1630:
                                # LOE rax rdx rbx rsi rdi r8 r9 r11 r12 ecx r10d zmm0 zmm1 zmm2 zmm3 zmm4 zmm5 zmm6 zmm7 zmm8 zmm9 zmm10 zmm11 zmm12 zmm13 zmm14 zmm15 zmm16 zmm17 zmm18 zmm19 zmm20 zmm21 zmm22 k1
..B3.77:                        # Preds ..B3.75 ..B3.73 Latency 5
..LN1631:
        lea       1(%rax), %rcx                                 #156.7 c1
..LN1632:
        cmpq      %rcx, %r9                                     #156.7 c5
..LN1633:
        jb        ..B3.83       # Prob 50%                      #156.7 c5
..LN1634:
                                # LOE rax rdx rbx rsi rdi r8 r9 r10d zmm0 zmm1 zmm2 zmm6 zmm7 zmm8 zmm9 zmm10 zmm11 zmm12 zmm13 zmm14 zmm15 zmm16 zmm17 zmm18 zmm19 zmm20 zmm21 zmm22 k1
..B3.78:                        # Preds ..B3.77 Latency 81
..LN1635:
        vmovaps   .L_2il0floatpacket.7(%rip), %zmm29            #156.7 c1
..LN1636:
        vmovdqa32 .L_2il0floatpacket.11(%rip), %zmm28           #156.7 c5
..LN1637:
        vmovapd   .L_2il0floatpacket.8(%rip), %zmm27            #156.7 c9
..LN1638:
        vmovapd   .L_2il0floatpacket.9(%rip), %zmm26            #156.7 c13
..LN1639:
        vmovaps   1152(%rsp), %zmm3                             #156.7 c17
..LN1640:
        vmovaps   %zmm9, 1088(%rsp)                             #156.7 c17
..LN1641:
        vmovaps   1216(%rsp), %zmm4                             #156.7 c21
..LN1642:
        movl      $1285, %esi                                   #156.7 c21
..LN1643:
	.loc    1  162  is_stmt 1
        movq      1480(%rsp), %rcx                              #162.39 c25
..LN1644:
	.loc    1  156  is_stmt 1
        kmov      %esi, %k6                                     #156.7 c25
..LN1645:
	.loc    1  162  is_stmt 1
        vbroadcastss (%rcx,%rdi,4), %zmm23                      #162.39 c29
..LN1646:
	.loc    1  156  is_stmt 1
        movl      $20560, %esi                                  #156.7 c29
..LN1647:
        kmov      %esi, %k5                                     #156.7 c33
..LN1648:
        movl      $2570, %esi                                   #156.7 c33
..LN1649:
        lea       1344(%rsp), %rcx                              #156.7 c37
..LN1650:
        kmov      %esi, %k4                                     #156.7 c37
..LN1651:
        movl      $41120, %esi                                  #156.7 c41
..LN1652:
	.loc    1  160  is_stmt 1
        movq      1496(%rsp), %r13                              #160.39 c41
..LN1653:
        vbroadcastss (%r13,%rdi,4), %zmm25                      #160.39 c45
..LN1654:
	.loc    1  156  is_stmt 1
        subq      %rax, %r9                                     #156.7 c45
..LN1655:
	.loc    1  161  is_stmt 1
        movq      1488(%rsp), %r12                              #161.39 c49
..LN1656:
	.loc    1  160  is_stmt 1
        movslq    %eax, %r11                                    #160.30 c49
..LN1657:
	.loc    1  161  is_stmt 1
        vbroadcastss (%r12,%rdi,4), %zmm24                      #161.39 c53
..LN1658:
	.loc    1  156  is_stmt 1
        kmov      %esi, %k3                                     #156.7 c53
..LN1659:
	.loc    1  161  is_stmt 1
        movq      1512(%rsp), %rax                              #161.30 c57
..LN1660:
	.loc    1  156  is_stmt 1
        xorl      %esi, %esi                                    #156.7 c57
..LN1661:
        incl      %esi                                          #156.7
..LN1662:
        movq      %r9, (%rcx)                                   #156.7 c61
..LN1663:
        kmov      %esi, %k2                                     #156.7 c61
..LN1664:
        vpbroadcastq (%rcx), %zmm5                              #156.7 c65
..LN1665:
        vpackstorelps %zmm6, 16(%rsp){%k2}                      #156.7 c65
..LN1666:
        xorl      %r14d, %r14d                                  #156.7 c69
..LN1667:
	.loc    1  160  is_stmt 1
        lea       (%r8,%r11,4), %r13                            #160.30 c69
..LN1668:
	.loc    1  161  is_stmt 1
        lea       (%rax,%r11,4), %r12                           #161.30 c73
..LN1669:
	.loc    1  162  is_stmt 1
        lea       (%rdx,%r11,4), %r11                           #162.30 c73
..LN1670:
	.loc    1  156  is_stmt 1
        xorl      %ecx, %ecx                                    #156.7 c77
..LN1671:
        xorl      %eax, %eax                                    #156.7 c77
..LN1672:
        movq      %r8, 1520(%rsp)                               #156.7 c81
..LN1673:
        movq      %rbx, 1456(%rsp)                              #156.7 c81
..LN1674:
                                # LOE rax rdx rcx rdi r9 r11 r12 r13 r10d r14d zmm0 zmm1 zmm2 zmm3 zmm4 zmm5 zmm7 zmm8 zmm10 zmm11 zmm12 zmm13 zmm14 zmm15 zmm16 zmm17 zmm18 zmm20 zmm21 zmm22 zmm23 zmm24 zmm25 zmm26 zmm27 zmm28 zmm29 k1 k3 k4 k5 k6
..B3.79:                        # Preds ..B3.81 ..B3.78 Latency 181
..L257:         # optimization report
                # LOOP WAS VECTORIZED
                # REMAINDER LOOP FOR VECTORIZATION
                # SIMD LOOP
                # MASKED VECTORIZATION
                # VECTORIZATION HAS UNALIGNED MEMORY REFERENCES
                # VECTORIZATION SPEEDUP COEFFECIENT 6.527344
                # VECTOR TRIP COUNT IS ESTIMATED CONSTANT
                # VECTOR LENGTH 16
                # NORMALIZED VECTORIZATION OVERHEAD 1.125000
..LN1675:
        vpshufd   $216, %zmm28, %zmm19                          #156.7 c5
..LN1676:
        vpshufd   $114, %zmm28, %zmm9                           #156.7 c9
..LN1677:
        vpermf32x4 $80, %zmm19, %zmm3{%k6}                      #156.7 c13
..LN1678:
        vpermf32x4 $80, %zmm9, %zmm3{%k5}                       #156.7 c17
..LN1679:
        vpermf32x4 $80, %zmm9, %zmm3{%k4}                       #156.7 c21
..LN1680:
        vmovaps   %zmm3, %zmm30                                 #156.7 c25
..LN1681:
        vpermf32x4 $80, %zmm19, %zmm30{%k3}                     #156.7 c29
..LN1682:
        vpsrad    $31, %zmm30, %zmm31                           #156.7 c33
..LN1683:
        vpermf32x4 $78, %zmm28, %zmm19                          #156.7 c37
..LN1684:
        vpandq    %zmm27, %zmm30, %zmm9                         #156.7 c41
..LN1685:
        vpandq    %zmm26, %zmm31, %zmm6                         #156.7 c45
..LN1686:
        vpshufd   $216, %zmm19, %zmm31                          #156.7 c49
..LN1687:
        vpshufd   $114, %zmm19, %zmm30                          #156.7 c53
..LN1688:
        vporq     %zmm9, %zmm6, %zmm6                           #156.7 c57
..LN1689:
        vpermf32x4 $80, %zmm31, %zmm4{%k6}                      #156.7 c61
..LN1690:
        vpcmpud   $2, %zmm5, %zmm6, %k7                         #156.7 c65
..LN1691:
        vpermf32x4 $80, %zmm30, %zmm4{%k5}                      #156.7 c69
..LN1692:
        vpcmpud   $0, %zmm5, %zmm6, %k2                         #156.7 c73
..LN1693:
        kmov      %k7, %r8d                                     #156.7 c73
..LN1694:
        vpermf32x4 $80, %zmm30, %zmm4{%k4}                      #156.7 c77
..LN1695:
        addl      %r8d, %r8d                                    #156.7 c77
..LN1696:
        vpcmpud   $1, %zmm5, %zmm6, %k0                         #156.7 c81
..LN1697:
        kmov      %k2, %esi                                     #156.7 c81
..LN1698:
        vmovaps   %zmm4, %zmm9                                  #156.7 c85
..LN1699:
        andl      %esi, %r8d                                    #156.7 c85
..LN1700:
        vpermf32x4 $80, %zmm31, %zmm9{%k3}                      #156.7 c89
..LN1701:
        kmov      %k0, %ebx                                     #156.7 c89
..LN1702:
        vpsrad    $31, %zmm9, %zmm19                            #156.7 c93
..LN1703:
        orl       %ebx, %r8d                                    #156.7 c93
..LN1704:
        vmovaps   %zmm17, %zmm6                                 #156.7 c97
..LN1705:
        andl      $-21846, %r8d                                 #156.7 c97
..LN1706:
        vpandq    %zmm27, %zmm9, %zmm31                         #156.7 c101
..LN1707:
        kmov      %r8d, %k2                                     #156.7 c101
..LN1708:
        vbroadcastss .L_2il0floatpacket.12(%rip), %zmm6{%k2}    #156.7 c105
..LN1709:
        vpandq    %zmm26, %zmm19, %zmm30                        #156.7 c109
..LN1710:
        vcmpneqpd %zmm6, %zmm17, %k0                            #156.7 c113
..LN1711:
        vporq     %zmm31, %zmm30, %zmm9                         #156.7 c117
..LN1712:
        vpcmpud   $2, %zmm5, %zmm9, %k2                         #156.7 c121
..LN1713:
        kmov      %k0, %esi                                     #156.7 c121
..LN1714:
        vpcmpud   $0, %zmm5, %zmm9, %k0                         #156.7 c125
..LN1715:
        vpcmpud   $1, %zmm5, %zmm9, %k7                         #156.7 c129
..LN1716:
        kmov      %k2, %r8d                                     #156.7 c129
..LN1717:
        vmovaps   %zmm17, %zmm19                                #156.7 c133
..LN1718:
        kmov      %k0, %r15d                                    #156.7 c133
..LN1719:
        addl      %r8d, %r8d                                    #156.7 c137
..LN1720:
        kmov      %k7, %ebx                                     #156.7 c137
..LN1721:
        andl      %r15d, %r8d                                   #156.7 c141
..LN1722:
        movl      %esi, %r15d                                   #156.7 c141
..LN1723:
        orl       %ebx, %r8d                                    #156.7 c145
..LN1724:
        andl      $-21846, %r8d                                 #156.7 c149
..LN1725:
        kmov      %r8d, %k7                                     #156.7 c153
..LN1726:
        vbroadcastss .L_2il0floatpacket.12(%rip), %zmm19{%k7}   #156.7 c157
..LN1727:
        vcmpneqpd %zmm19, %zmm17, %k0                           #156.7 c161
..LN1728:
        nop                                                     #156.7 c165
..LN1729:
        kmov      %k0, %ebx                                     #156.7 c169
..LN1730:
        andl      %ebx, %r15d                                   #156.7 c173
..LN1731:
        xorl      $-1, %r15d                                    #156.7 c177
..LN1732:
        testb     %r15b, %r15b                                  #156.7 c181
..LN1733:
        jne       ..B3.120      # Prob 9%                       #156.7 c181
..LN1734:
                                # LOE rax rdx rcx rdi r9 r11 r12 r13 ebx esi r10d r14d zmm0 zmm1 zmm2 zmm3 zmm4 zmm5 zmm7 zmm8 zmm10 zmm11 zmm12 zmm13 zmm14 zmm15 zmm16 zmm17 zmm18 zmm20 zmm21 zmm22 zmm23 zmm24 zmm25 zmm26 zmm27 zmm28 zmm29 k1 k3 k4 k5 k6
..B3.80:                        # Preds ..B3.79 Latency 61
..LN1735:
	.loc    1  161  is_stmt 1
        vloadunpackld (%r12,%rcx,4), %zmm31                     #161.30 c1
..LN1736:
	.loc    1  160  is_stmt 1
        vloadunpackld (%r13,%rcx,4), %zmm30                     #160.30 c5
..LN1737:
	.loc    1  161  is_stmt 1
        vloadunpackhd 64(%r12,%rcx,4), %zmm31                   #161.30 c9
..LN1738:
	.loc    1  160  is_stmt 1
        vloadunpackhd 64(%r13,%rcx,4), %zmm30                   #160.30 c13
..LN1739:
	.loc    1  161  is_stmt 1
        vsubps    %zmm24, %zmm31, %zmm6                         #161.39 c17
..LN1740:
	.loc    1  160  is_stmt 1
        vsubps    %zmm25, %zmm30, %zmm19                        #160.39 c21
..LN1741:
	.loc    1  163  is_stmt 1
        vmulps    %zmm6, %zmm6, %zmm30                          #163.51 c25
..LN1742:
	.loc    1  162  is_stmt 1
        vsubrps   (%r11,%rcx,4), %zmm23, %zmm9                  #162.39 c29
..LN1743:
	.loc    1  163  is_stmt 1
        vfmadd231ps %zmm19, %zmm19, %zmm30                      #163.51 c33
..LN1744:
        vfmadd231ps %zmm9, %zmm9, %zmm30                        #163.59 c37
..LN1745:
	.loc    1  164  is_stmt 1
        vrsqrt23ps %zmm30, %zmm31                               #164.56 c41
..LN1746:
        vmulps    %zmm31, %zmm31, %zmm30                        #164.56 c45
..LN1747:
        vmulps    %zmm30, %zmm31, %zmm31                        #164.56 c49
..LN1748:
	.loc    1  167  is_stmt 1
        vfmadd231ps %zmm19, %zmm31, %zmm2                       #167.13 c53
..LN1749:
        vfmadd231ps %zmm6, %zmm31, %zmm1                        #167.35 c57
..LN1750:
        vfmadd231ps %zmm9, %zmm31, %zmm0                        #167.57 c61
..LN1751:
                                # LOE rax rdx rcx rdi r9 r11 r12 r13 r10d r14d zmm0 zmm1 zmm2 zmm3 zmm4 zmm5 zmm7 zmm8 zmm10 zmm11 zmm12 zmm13 zmm14 zmm15 zmm16 zmm17 zmm18 zmm20 zmm21 zmm22 zmm23 zmm24 zmm25 zmm26 zmm27 zmm28 zmm29 k1 k3 k4 k5 k6
..B3.81:                        # Preds ..B3.80 ..B3.120 Latency 9
..LN1752:
	.loc    1  156  is_stmt 1
        vpaddd    %zmm29, %zmm28, %zmm28                        #156.7 c1
..LN1753:
        addl      $16, %r14d                                    #156.7 c1
..LN1754:
        addq      $64, %rax                                     #156.7 c5
..LN1755:
        addq      $16, %rcx                                     #156.7 c5
..LN1756:
        cmpq      %r9, %r14                                     #156.7 c9
..LN1757:
        jb        ..B3.79       # Prob 82%                      #156.7 c9
..LN1758:
                                # LOE rax rdx rcx rdi r9 r11 r12 r13 r10d r14d zmm0 zmm1 zmm2 zmm3 zmm4 zmm5 zmm7 zmm8 zmm10 zmm11 zmm12 zmm13 zmm14 zmm15 zmm16 zmm17 zmm18 zmm20 zmm21 zmm22 zmm23 zmm24 zmm25 zmm26 zmm27 zmm28 zmm29 k1 k3 k4 k5 k6
..B3.82:                        # Preds ..B3.81 Latency 17
..LN1759:
        vbroadcastss 16(%rsp), %zmm6                            # c1
..LN1760:
        vmovaps   %zmm3, 1152(%rsp)                             # c1
..LN1761:
        vbroadcastss 24(%rsp), %zmm19                           # c5
..LN1762:
        vmovaps   %zmm4, 1216(%rsp)                             # c5
..LN1763:
        vmovaps   1088(%rsp), %zmm9                             # c9
..LN1764:
        movb      %al, %al                                      # c9
..LN1765:
        movq      1520(%rsp), %r8                               # c13
..LN1766:
        movq      1456(%rsp), %rbx                              # c13
..LN1767:
        movq      1464(%rsp), %rsi                              # c17
..LN1768:
                                # LOE rdx rbx rsi rdi r8 r10d zmm0 zmm1 zmm2 zmm6 zmm7 zmm8 zmm9 zmm10 zmm11 zmm12 zmm13 zmm14 zmm15 zmm16 zmm17 zmm18 zmm19 zmm20 zmm21 zmm22 k1
..B3.83:                        # Preds ..B3.82 ..B3.72 ..B3.77 Latency 69
..LN1769:
	.loc    1  153  is_stmt 1
        vpermf32x4 $238, %zmm0, %zmm5                           #153.18 c1
..LN1770:
	.loc    1  152  is_stmt 1
        vpermf32x4 $238, %zmm1, %zmm24                          #152.18 c5
..LN1771:
	.loc    1  151  is_stmt 1
        vpermf32x4 $238, %zmm2, %zmm28                          #151.18 c9
..LN1772:
	.loc    1  153  is_stmt 1
        vaddps    %zmm0, %zmm5, %zmm0                           #153.18 c13
..LN1773:
	.loc    1  152  is_stmt 1
        vaddps    %zmm1, %zmm24, %zmm25                         #152.18 c17
..LN1774:
	.loc    1  151  is_stmt 1
        vaddps    %zmm2, %zmm28, %zmm29                         #151.18 c21
..LN1775:
	.loc    1  153  is_stmt 1
        vpermf32x4 $85, %zmm0, %zmm4                            #153.18 c25
..LN1776:
	.loc    1  152  is_stmt 1
        vpermf32x4 $85, %zmm25, %zmm1                           #152.18 c29
..LN1777:
	.loc    1  151  is_stmt 1
        vpermf32x4 $85, %zmm29, %zmm2                           #151.18 c33
..LN1778:
	.loc    1  153  is_stmt 1
        vaddps    %zmm0, %zmm4, %zmm3                           #153.18 c37
..LN1779:
	.loc    1  152  is_stmt 1
        vaddps    %zmm25, %zmm1, %zmm26                         #152.18 c41
..LN1780:
	.loc    1  151  is_stmt 1
        vaddps    %zmm29, %zmm2, %zmm30                         #151.18 c45
..LN1781:
	.loc    1  153  is_stmt 1
        vaddps    %zmm3{badc}, %zmm3, %zmm23                    #153.18 c49
..LN1782:
	.loc    1  152  is_stmt 1
        vaddps    %zmm26{badc}, %zmm26, %zmm27                  #152.18 c53
..LN1783:
	.loc    1  151  is_stmt 1
        vaddps    %zmm30{badc}, %zmm30, %zmm31                  #151.18 c57
..LN1784:
	.loc    1  153  is_stmt 1
        vaddps    %zmm23{cdab}, %zmm23, %zmm5                   #153.18 c61
..LN1785:
	.loc    1  152  is_stmt 1
        vaddps    %zmm27{cdab}, %zmm27, %zmm4                   #152.18 c65
..LN1786:
	.loc    1  151  is_stmt 1
        vaddps    %zmm31{cdab}, %zmm31, %zmm0                   #151.18 c69
..LN1787:
                                # LOE rdx rbx rsi rdi r8 r10d zmm0 zmm4 zmm5 zmm6 zmm7 zmm8 zmm9 zmm10 zmm11 zmm12 zmm13 zmm14 zmm15 zmm16 zmm17 zmm18 zmm19 zmm20 zmm21 zmm22 k1
..B3.84:                        # Preds ..B3.83 ..B3.52 Latency 17
..LN1788:
	.loc    1  156  is_stmt 1
        testl     %r10d, %r10d                                  #156.7 c1
..LN1789:
        jg        ..L258        # Prob 50%                      #156.7 c5
..LN1790:
        movl      $0, %r10d                                     #156.7
..L258:                                                         #
..LN1791:
        movslq    %r10d, %rax                                   #156.7 c9
..LN1792:
        lea       1(%rax), %rcx                                 #156.7 c13
..LN1793:
        cmpq      %rcx, %rsi                                    #156.7 c17
..LN1794:
        jb        ..B3.116      # Prob 50%                      #156.7 c17
..LN1795:
                                # LOE rax rdx rbx rsi rdi r8 r10d zmm0 zmm4 zmm5 zmm6 zmm7 zmm8 zmm9 zmm10 zmm11 zmm12 zmm13 zmm14 zmm15 zmm16 zmm17 zmm18 zmm19 zmm20 zmm21 zmm22 k1
..B3.85:                        # Preds ..B3.84 Latency 21
..LN1796:
        negl      %r10d                                         #156.7 c1
..LN1797:
	.loc    1  151  is_stmt 1
        vmovaps   %zmm17, %zmm1                                 #151.18 c5
..LN1798:
	.loc    1  162  is_stmt 1
        lea       (%rdx,%rax,4), %r12                           #162.30 c5
..LN1799:
	.loc    1  152  is_stmt 1
        vmovaps   %zmm17, %zmm2                                 #152.18 c9
..LN1800:
	.loc    1  156  is_stmt 1
        movslq    %r10d, %r10                                   #156.7 c9
..LN1801:
	.loc    1  153  is_stmt 1
        vmovaps   %zmm17, %zmm3                                 #153.18 c13
..LN1802:
	.loc    1  156  is_stmt 1
        movq      %r12, %r13                                    #156.7 c13
..LN1803:
        addq      %rsi, %r10                                    #156.7 c17
..LN1804:
        andq      $63, %r13                                     #156.7 c21
..LN1805:
        je        ..B3.87       # Prob 50%                      #156.7 c21
..LN1806:
                                # LOE rax rdx rbx rsi rdi r8 r10 r12 r13 zmm0 zmm1 zmm2 zmm3 zmm4 zmm5 zmm6 zmm7 zmm8 zmm9 zmm10 zmm11 zmm12 zmm13 zmm14 zmm15 zmm16 zmm17 zmm18 zmm19 zmm20 zmm21 zmm22 k1
..B3.86:                        # Preds ..B3.85 Latency 17
..LN1807:
        negq      %r13                                          #156.7 c1
..LN1808:
        addq      $64, %r13                                     #156.7 c5
..LN1809:
        shrq      $2, %r13                                      #156.7 c9
..LN1810:
        cmpq      %r13, %r10                                    #156.7 c13
..LN1811:
        jge       ..L259        # Prob 50%                      #156.7 c17
..LN1812:
        movq      %r10, %r13                                    #156.7
..L259:                                                         #
..LN1813:
                                # LOE rax rdx rbx rsi rdi r8 r10 r12 r13 zmm0 zmm1 zmm2 zmm3 zmm4 zmm5 zmm6 zmm7 zmm8 zmm9 zmm10 zmm11 zmm12 zmm13 zmm14 zmm15 zmm16 zmm17 zmm18 zmm19 zmm20 zmm21 zmm22 k1
..B3.87:                        # Preds ..B3.86 ..B3.85 Latency 21
..LN1814:
        movq      %r10, %r9                                     #156.7 c1
..LN1815:
        subq      %r13, %r9                                     #156.7 c5
..LN1816:
        andq      $15, %r9                                      #156.7 c9
..LN1817:
        negq      %r9                                           #156.7 c13
..LN1818:
        addq      %r10, %r9                                     #156.7 c17
..LN1819:
        cmpq      $1, %r13                                      #156.7 c21
..LN1820:
        jb        ..B3.105      # Prob 50%                      #156.7 c21
..LN1821:
                                # LOE rax rdx rbx rsi rdi r8 r9 r10 r12 r13 zmm0 zmm1 zmm2 zmm3 zmm4 zmm5 zmm6 zmm7 zmm8 zmm9 zmm10 zmm11 zmm12 zmm13 zmm14 zmm15 zmm16 zmm17 zmm18 zmm19 zmm20 zmm21 zmm22 k1
..B3.88:                        # Preds ..B3.87 Latency 113
..LN1822:
        vmovaps   .L_2il0floatpacket.7(%rip), %zmm31            #156.7 c1
..LN1823:
        vmovdqa32 .L_2il0floatpacket.11(%rip), %zmm30           #156.7 c5
..LN1824:
        vmovapd   .L_2il0floatpacket.8(%rip), %zmm29            #156.7 c9
..LN1825:
        vmovapd   .L_2il0floatpacket.9(%rip), %zmm28            #156.7 c13
..LN1826:
        vmovaps   .L_2il0floatpacket.10(%rip), %zmm23           #156.7 c17
..LN1827:
        vmovaps   %zmm16, 384(%rsp)                             #156.7 c21
..LN1828:
	.loc    1  160  is_stmt 1
        movq      1496(%rsp), %r15                              #160.39 c21
..LN1829:
        vbroadcastss (%r15,%rdi,4), %zmm27                      #160.39 c25
..LN1830:
	.loc    1  156  is_stmt 1
        vmovaps   %zmm9, 1088(%rsp)                             #156.7 c25
..LN1831:
        vmovaps   64(%rsp), %zmm16                              #156.7 c29
..LN1832:
        movl      $1285, %esi                                   #156.7 c29
..LN1833:
        vmovaps   128(%rsp), %zmm9                              #156.7 c33
..LN1834:
        kmov      %esi, %k6                                     #156.7 c33
..LN1835:
	.loc    1  161  is_stmt 1
        movq      1488(%rsp), %r15                              #161.39 c37
..LN1836:
	.loc    1  156  is_stmt 1
        movl      $20560, %esi                                  #156.7 c37
..LN1837:
	.loc    1  161  is_stmt 1
        vbroadcastss (%r15,%rdi,4), %zmm26                      #161.39 c41
..LN1838:
	.loc    1  156  is_stmt 1
        kmov      %esi, %k5                                     #156.7 c41
..LN1839:
	.loc    1  162  is_stmt 1
        movq      1480(%rsp), %r15                              #162.39 c45
..LN1840:
	.loc    1  156  is_stmt 1
        movl      $2570, %esi                                   #156.7 c45
..LN1841:
	.loc    1  162  is_stmt 1
        vbroadcastss (%r15,%rdi,4), %zmm25                      #162.39 c49
..LN1842:
	.loc    1  156  is_stmt 1
        lea       1344(%rsp), %r15                              #156.7 c49
..LN1843:
        kmov      %esi, %k4                                     #156.7 c53
..LN1844:
        movl      $41120, %esi                                  #156.7 c53
..LN1845:
	.loc    1  169  is_stmt 1
        xorl      %r14d, %r14d                                  #169.9 c57
..LN1846:
	.loc    1  156  is_stmt 1
        kmov      %esi, %k3                                     #156.7 c57
..LN1847:
        xorl      %esi, %esi                                    #156.7 c61
..LN1848:
        incl      %esi                                          #156.7
..LN1849:
	.loc    1  169  is_stmt 1
        movl      %r14d, 1536(%rsp)                             #169.9 c61
..LN1850:
        movl      %r14d, 1552(%rsp)                             #169.9 c65
..LN1851:
	.loc    1  156  is_stmt 1
        xorl      %ecx, %ecx                                    #156.7 c65
..LN1852:
	.loc    1  169  is_stmt 1
        movl      %r14d, 1568(%rsp)                             #169.9 c69
..LN1853:
	.loc    1  156  is_stmt 1
        kmov      %esi, %k2                                     #156.7 c69
..LN1854:
        vpackstorelps %zmm5, (%rsp){%k2}                        #156.7 c73
..LN1855:
	.loc    1  169  is_stmt 1
        xorl      %r11d, %r11d                                  #169.9 c73
..LN1856:
	.loc    1  156  is_stmt 1
        vpackstorelps %zmm4, 32(%rsp){%k2}                      #156.7 c77
..LN1857:
        movl      1552(%rsp), %esi                              #156.7 c77
..LN1858:
        vpackstorelps %zmm0, 40(%rsp){%k2}                      #156.7 c81
..LN1859:
        vpackstorelps %zmm7, 8(%rsp){%k2}                       #156.7 c85
..LN1860:
        vpackstorelps %zmm6, 16(%rsp){%k2}                      #156.7 c89
..LN1861:
        movb      %al, %al                                      #156.7 c89
..LN1862:
        movq      %r13, (%r15)                                  #156.7 c93
..LN1863:
        movq      %rdi, 1448(%rsp)                              #156.7 c93
..LN1864:
        vpbroadcastq (%r15), %zmm24                             #156.7 c97
..LN1865:
	.loc    1  169  is_stmt 1
        movl      %r14d, 1584(%rsp)                             #169.9 c97
..LN1866:
	.loc    1  156  is_stmt 1
        movq      %r10, 1368(%rsp)                              #156.7 c101
..LN1867:
        movl      1536(%rsp), %edi                              #156.7 c101
..LN1868:
        movq      %r9, 1376(%rsp)                               #156.7 c105
..LN1869:
        movq      %rdx, 1528(%rsp)                              #156.7 c105
..LN1870:
        movq      %rbx, 1456(%rsp)                              #156.7 c109
..LN1871:
        movl      %ecx, %edx                                    #156.7 c109
..LN1872:
        movl      1568(%rsp), %ebx                              #156.7 c113
..LN1873:
                                # LOE rax r8 r12 r13 edx ecx ebx esi edi r11d r14d zmm1 zmm2 zmm3 zmm8 zmm9 zmm10 zmm11 zmm12 zmm13 zmm14 zmm15 zmm16 zmm17 zmm18 zmm20 zmm21 zmm22 zmm23 zmm24 zmm25 zmm26 zmm27 zmm28 zmm29 zmm30 zmm31 k1 k3 k4 k5 k6
..B3.89:                        # Preds ..B3.91 ..B3.88 Latency 281
..L260:         # optimization report
                # LOOP WAS VECTORIZED
                # PEELED LOOP FOR VECTORIZATION
                # SIMD LOOP
                # MASKED VECTORIZATION
                # VECTORIZATION HAS UNALIGNED MEMORY REFERENCES
                # VECTORIZATION SPEEDUP COEFFECIENT 2.337891
                # VECTOR TRIP COUNT IS ESTIMATED CONSTANT
                # VECTOR LENGTH 16
                # NORMALIZED VECTORIZATION OVERHEAD 0.500000
..LN1874:
        movl      %r11d, 1384(%rsp)                             # c1
..LN1875:
        vpshufd   $216, %zmm30, %zmm0                           #156.7 c5
..LN1876:
	.loc    1  160  is_stmt 1
        movslq    %ecx, %rcx                                    #160.30 c5
..LN1877:
	.loc    1  156  is_stmt 1
        vpshufd   $114, %zmm30, %zmm6                           #156.7 c9
..LN1878:
        vpermf32x4 $80, %zmm0, %zmm16{%k6}                      #156.7 c13
..LN1879:
        vpermf32x4 $80, %zmm6, %zmm16{%k5}                      #156.7 c17
..LN1880:
        vpermf32x4 $80, %zmm6, %zmm16{%k4}                      #156.7 c21
..LN1881:
        vmovaps   %zmm16, %zmm4                                 #156.7 c25
..LN1882:
        vpermf32x4 $80, %zmm0, %zmm4{%k3}                       #156.7 c29
..LN1883:
        vpermf32x4 $78, %zmm30, %zmm6                           #156.7 c33
..LN1884:
        vpsrad    $31, %zmm4, %zmm5                             #156.7 c37
..LN1885:
        vpandq    %zmm29, %zmm4, %zmm7                          #156.7 c41
..LN1886:
        vpandq    %zmm28, %zmm5, %zmm19                         #156.7 c45
..LN1887:
        vpshufd   $216, %zmm6, %zmm4                            #156.7 c49
..LN1888:
        vpshufd   $114, %zmm6, %zmm0                            #156.7 c53
..LN1889:
        vporq     %zmm7, %zmm19, %zmm7                          #156.7 c57
..LN1890:
        vpermf32x4 $80, %zmm4, %zmm9{%k6}                       #156.7 c61
..LN1891:
        vpermf32x4 $80, %zmm0, %zmm9{%k5}                       #156.7 c65
..LN1892:
        vpcmpud   $2, %zmm24, %zmm7, %k2                        #156.7 c69
..LN1893:
        vpermf32x4 $80, %zmm0, %zmm9{%k4}                       #156.7 c73
..LN1894:
        vpcmpud   $0, %zmm24, %zmm7, %k7                        #156.7 c77
..LN1895:
        kmov      %k2, %r9d                                     #156.7 c77
..LN1896:
        vpcmpltd  %zmm24, %zmm7, %k0                            #156.7 c81
..LN1897:
        addl      %r9d, %r9d                                    #156.7 c81
..LN1898:
        vmovaps   %zmm9, %zmm5                                  #156.7 c85
..LN1899:
        kmov      %k7, %r11d                                    #156.7 c85
..LN1900:
        vpermf32x4 $80, %zmm4, %zmm5{%k3}                       #156.7 c89
..LN1901:
        kmov      %k0, %r15d                                    #156.7 c89
..LN1902:
        vpsrad    $31, %zmm5, %zmm19                            #156.7 c93
..LN1903:
        andl      %r11d, %r9d                                   #156.7 c93
..LN1904:
        vmovaps   %zmm17, %zmm7                                 #156.7 c97
..LN1905:
        orl       %r15d, %r9d                                   #156.7 c97
..LN1906:
        vpandq    %zmm29, %zmm5, %zmm0                          #156.7 c101
..LN1907:
        andl      $-21846, %r9d                                 #156.7 c101
..LN1908:
        vpandq    %zmm28, %zmm19, %zmm6                         #156.7 c105
..LN1909:
        kmov      %r9d, %k7                                     #156.7 c105
..LN1910:
        vbroadcastss .L_2il0floatpacket.12(%rip), %zmm7{%k7}    #156.7 c109
..LN1911:
        vcmpneqpd %zmm7, %zmm17, %k0                            #156.7 c113
..LN1912:
        vporq     %zmm0, %zmm6, %zmm4                           #156.7 c117
..LN1913:
        vpcmpud   $2, %zmm24, %zmm4, %k7                        #156.7 c121
..LN1914:
        kmov      %k0, %r9d                                     #156.7 c121
..LN1915:
        vpcmpud   $0, %zmm24, %zmm4, %k2                        #156.7 c125
..LN1916:
        movzbl    %r9b, %r9d                                    #156.7 c125
..LN1917:
        vpcmpltd  %zmm24, %zmm4, %k0                            #156.7 c129
..LN1918:
        kmov      %k7, %r15d                                    #156.7 c129
..LN1919:
        vmovaps   %zmm17, %zmm7                                 #156.7 c133
..LN1920:
        kmov      %k2, %r10d                                    #156.7 c133
..LN1921:
	.loc    1  160  is_stmt 1
        vmovaps   %zmm17, %zmm6                                 #160.30 c137
..LN1922:
	.loc    1  156  is_stmt 1
        addl      %r15d, %r15d                                  #156.7 c137
..LN1923:
	.loc    1  161  is_stmt 1
        vmovaps   %zmm17, %zmm0                                 #161.30 c141
..LN1924:
	.loc    1  156  is_stmt 1
        kmov      %k0, %r11d                                    #156.7 c141
..LN1925:
	.loc    1  162  is_stmt 1
        vmovaps   %zmm17, %zmm5                                 #162.30 c145
..LN1926:
	.loc    1  156  is_stmt 1
        andl      %r10d, %r15d                                  #156.7 c145
..LN1927:
        vpaddd    %zmm31, %zmm30, %zmm30                        #156.7 c149
..LN1928:
        orl       %r11d, %r15d                                  #156.7 c149
..LN1929:
        andl      $-21846, %r15d                                #156.7 c153
..LN1930:
        kmov      %r15d, %k2                                    #156.7 c157
..LN1931:
	.loc    1  161  is_stmt 1
        movq      1512(%rsp), %r15                              #161.30 c157
..LN1932:
	.loc    1  156  is_stmt 1
        vbroadcastss .L_2il0floatpacket.12(%rip), %zmm7{%k2}    #156.7 c161
..LN1933:
        vcmpneqpd %zmm7, %zmm17, %k0                            #156.7 c165
..LN1934:
        nop                                                     #156.7 c169
..LN1935:
        kmov      %k0, %r10d                                    #156.7 c173
..LN1936:
        shll      $8, %r10d                                     #156.7 c177
..LN1937:
        orl       %r10d, %r9d                                   #156.7 c181
..LN1938:
	.loc    1  160  is_stmt 1
        lea       (%rax,%rcx), %r10                             #160.30 c181
..LN1939:
        lea       (%r8,%r10,4), %r11                            #160.30 c185
..LN1940:
        kmov      %r9d, %k2                                     #160.30 c185
..LN1941:
	.loc    1  162  is_stmt 1
        vloadunpacklps (%r12,%rcx,4), %zmm5{%k2}                #162.30 c189
..LN1942:
	.loc    1  161  is_stmt 1
        lea       (%r15,%r10,4), %r10                           #161.30 c189
..LN1943:
	.loc    1  162  is_stmt 1
        vsubps    %zmm25, %zmm5, %zmm5                          #162.39 c193
..LN1944:
	.loc    1  160  is_stmt 1
        kmov      %k2, %k7                                      #160.30 c193
..LN1945:
        vgatherpf0hintdps (%r11,%zmm23,4){%k7}                  #160.30 c197
..LN1946:
        vgatherpf0hintdps (%r11,%zmm23,4){%k7}                  #160.30
..LN1947:
        nop                                                     #160.30
..L262:                                                         #
..LN1948:
        vgatherdps (%r11,%zmm23,4), %zmm6{%k7}                  #160.30
..LN1949:
        jkzd      ..L261, %k7   # Prob 50%                      #160.30
..LN1950:
        vgatherdps (%r11,%zmm23,4), %zmm6{%k7}                  #160.30
..LN1951:
        vgatherdps (%r11,%zmm23,4), %zmm6{%k7}                  #160.30
..LN1952:
        vgatherdps (%r11,%zmm23,4), %zmm6{%k7}                  #160.30
..LN1953:
        vgatherdps (%r11,%zmm23,4), %zmm6{%k7}                  #160.30
..LN1954:
        vgatherdps (%r11,%zmm23,4), %zmm6{%k7}                  #160.30
..LN1955:
        vgatherdps (%r11,%zmm23,4), %zmm6{%k7}                  #160.30
..LN1956:
        vgatherdps (%r11,%zmm23,4), %zmm6{%k7}                  #160.30
..LN1957:
        vgatherdps (%r11,%zmm23,4), %zmm6{%k7}                  #160.30
..LN1958:
        jknzd     ..L262, %k7   # Prob 50%                      #160.30
..L261:                                                         #
..LN1959:
        vsubps    %zmm27, %zmm6, %zmm7                          #160.39 c217
..LN1960:
	.loc    1  156  is_stmt 1
        movzwl    %r9w, %r9d                                    #156.7 c217
..LN1961:
	.loc    1  161  is_stmt 1
        kmov      %k2, %k7                                      #161.30 c221
..LN1962:
	.loc    1  169  is_stmt 1
        movl      1384(%rsp), %r11d                             #169.9 c221
..LN1963:
	.loc    1  161  is_stmt 1
        vgatherpf0hintdps (%r10,%zmm23,4){%k7}                  #161.30 c225
..LN1964:
        vgatherpf0hintdps (%r10,%zmm23,4){%k7}                  #161.30
..LN1965:
        nop                                                     #161.30
..L264:                                                         #
..LN1966:
        vgatherdps (%r10,%zmm23,4), %zmm0{%k7}                  #161.30
..LN1967:
        jkzd      ..L263, %k7   # Prob 50%                      #161.30
..LN1968:
        vgatherdps (%r10,%zmm23,4), %zmm0{%k7}                  #161.30
..LN1969:
        vgatherdps (%r10,%zmm23,4), %zmm0{%k7}                  #161.30
..LN1970:
        vgatherdps (%r10,%zmm23,4), %zmm0{%k7}                  #161.30
..LN1971:
        vgatherdps (%r10,%zmm23,4), %zmm0{%k7}                  #161.30
..LN1972:
        vgatherdps (%r10,%zmm23,4), %zmm0{%k7}                  #161.30
..LN1973:
        vgatherdps (%r10,%zmm23,4), %zmm0{%k7}                  #161.30
..LN1974:
        vgatherdps (%r10,%zmm23,4), %zmm0{%k7}                  #161.30
..LN1975:
        vgatherdps (%r10,%zmm23,4), %zmm0{%k7}                  #161.30
..LN1976:
        jknzd     ..L264, %k7   # Prob 50%                      #161.30
..L263:                                                         #
..LN1977:
        vsubps    %zmm26, %zmm0, %zmm6                          #161.39 c245
..LN1978:
	.loc    1  169  is_stmt 1
        testl     %r9d, %r9d                                    #169.9 c245
..LN1979:
	.loc    1  163  is_stmt 1
        vmulps    %zmm6, %zmm6, %zmm4                           #163.51 c249
..LN1980:
        vfmadd231ps %zmm7, %zmm7, %zmm4                         #163.51 c253
..LN1981:
        vfmadd231ps %zmm5, %zmm5, %zmm4                         #163.59 c257
..LN1982:
	.loc    1  164  is_stmt 1
        vrsqrt23ps %zmm4, %zmm0                                 #164.56 c261
..LN1983:
        vmulps    %zmm0, %zmm0, %zmm19                          #164.56 c265
..LN1984:
        vmulps    %zmm19, %zmm0, %zmm19                         #164.56 c269
..LN1985:
	.loc    1  167  is_stmt 1
        vfmadd231ps %zmm7, %zmm19, %zmm1{%k2}                   #167.13 c273
..LN1986:
        vfmadd231ps %zmm6, %zmm19, %zmm2{%k2}                   #167.35 c277
..LN1987:
        vfmadd231ps %zmm5, %zmm19, %zmm3{%k2}                   #167.57 c281
..LN1988:
	.loc    1  169  is_stmt 1
        je        ..B3.91       # Prob 40%                      #169.9 c281
..LN1989:
                                # LOE rax r8 r12 r13 edx ecx ebx esi edi r9d r11d r14d zmm0 zmm1 zmm2 zmm3 zmm4 zmm5 zmm6 zmm7 zmm8 zmm9 zmm10 zmm11 zmm12 zmm13 zmm14 zmm15 zmm16 zmm17 zmm18 zmm19 zmm20 zmm21 zmm22 zmm23 zmm24 zmm25 zmm26 zmm27 zmm28 zmm29 zmm30 zmm31 k1 k3 k4 k5 k6
..B3.90:                        # Preds ..B3.89 Latency 21
..LN1990:
        vmovaps   %zmm7, %zmm11                                 #169.9 c1
..LN1991:
        movl      %r9d, %edi                                    #169.9 c1
..LN1992:
        vmovaps   %zmm6, %zmm21                                 #169.9 c5
..LN1993:
        movl      %r9d, %esi                                    #169.9 c5
..LN1994:
        vmovaps   %zmm5, %zmm8                                  #169.9 c9
..LN1995:
        movl      %r9d, %ebx                                    #169.9 c9
..LN1996:
        vmovaps   %zmm4, %zmm10                                 #169.9 c13
..LN1997:
        movl      %r9d, %edx                                    #169.9 c13
..LN1998:
	.loc    1  164  is_stmt 1
        vmovaps   %zmm0, %zmm20                                 #164.56 c17
..LN1999:
        movl      %r9d, %r14d                                   #164.56 c17
..LN2000:
	.loc    1  169  is_stmt 1
        vmovaps   %zmm19, %zmm18                                #169.9 c21
..LN2001:
        movl      %r9d, %r11d                                   #169.9 c21
..LN2002:
                                # LOE rax r8 r12 r13 edx ecx ebx esi edi r11d r14d zmm1 zmm2 zmm3 zmm8 zmm9 zmm10 zmm11 zmm12 zmm13 zmm14 zmm15 zmm16 zmm17 zmm18 zmm20 zmm21 zmm22 zmm23 zmm24 zmm25 zmm26 zmm27 zmm28 zmm29 zmm30 zmm31 k1 k3 k4 k5 k6
..B3.91:                        # Preds ..B3.89 ..B3.90 Latency 5
..LN2003:
	.loc    1  156  is_stmt 1
        addl      $16, %ecx                                     #156.7 c1
..LN2004:
        cmpq      %r13, %rcx                                    #156.7 c5
..LN2005:
        jb        ..B3.89       # Prob 82%                      #156.7 c5
..LN2006:
                                # LOE rax r8 r12 r13 edx ecx ebx esi edi r11d r14d zmm1 zmm2 zmm3 zmm8 zmm9 zmm10 zmm11 zmm12 zmm13 zmm14 zmm15 zmm16 zmm17 zmm18 zmm20 zmm21 zmm22 zmm23 zmm24 zmm25 zmm26 zmm27 zmm28 zmm29 zmm30 zmm31 k1 k3 k4 k5 k6
..B3.92:                        # Preds ..B3.91 Latency 49
..LN2007:
        vmovaps   %zmm16, 64(%rsp)                              # c1
..LN2008:
        movq      1368(%rsp), %r10                              # c1
..LN2009:
        vmovaps   %zmm9, 128(%rsp)                              # c5
..LN2010:
        movq      1376(%rsp), %r9                               # c5
..LN2011:
        vmovaps   384(%rsp), %zmm16                             # c9
..LN2012:
        movl      %edx, 1584(%rsp)                              # c9
..LN2013:
        vbroadcastss (%rsp), %zmm5                              # c13
..LN2014:
        movl      %ebx, 1568(%rsp)                              # c13
..LN2015:
        vbroadcastss 32(%rsp), %zmm4                            # c17
..LN2016:
        movl      %esi, 1552(%rsp)                              # c17
..LN2017:
        vbroadcastss 40(%rsp), %zmm0                            # c21
..LN2018:
        movl      %edi, 1536(%rsp)                              # c21
..LN2019:
        vbroadcastss 8(%rsp), %zmm7                             # c25
..LN2020:
        vbroadcastss 16(%rsp), %zmm6                            # c29
..LN2021:
        vbroadcastss 24(%rsp), %zmm19                           # c33
..LN2022:
        vmovaps   1088(%rsp), %zmm9                             # c37
..LN2023:
        movb      %al, %al                                      # c37
..LN2024:
        movq      1448(%rsp), %rdi                              # c41
..LN2025:
        movq      1528(%rsp), %rdx                              # c41
..LN2026:
        movq      1456(%rsp), %rbx                              # c45
..LN2027:
        movq      1464(%rsp), %rsi                              # c45
..LN2028:
                                # LOE rax rdx rbx rsi rdi r8 r9 r10 r12 r13 edx ebx esi edi r9d r10d r11d r14d dl bl dh bh sil dil r9b r10b xmm0 xmm4 xmm5 xmm6 xmm7  ymm0 ymm4 ymm5 ymm6 ymm7  zmm0 zmm1 zmm2 zmm3 zmm4 zmm5 zmm6 zmm7 zmm8 zmm9 zmm10 zmm11 zmm12 zmm13 zmm14 zmm15 zmm16 zmm17 zmm18 zmm19 zmm20 zmm21 zmm22 k1
..B3.104:                       # Preds ..B3.92 Latency 1
..LN2029:
        cmpq      %r13, %r10                                    #156.7 c1
..LN2030:
        je        ..B3.115      # Prob 10%                      #156.7 c1
..LN2031:
                                # LOE rax rdx rbx rsi rdi r8 r9 r10 r12 r13 zmm0 zmm1 zmm2 zmm3 zmm4 zmm5 zmm6 zmm7 zmm8 zmm9 zmm10 zmm11 zmm12 zmm13 zmm14 zmm15 zmm16 zmm17 zmm18 zmm19 zmm20 zmm21 zmm22 k1
..B3.105:                       # Preds ..B3.104 ..B3.87 Latency 5
..LN2032:
        lea       16(%r13), %rcx                                #156.7 c1
..LN2033:
        cmpq      %rcx, %r9                                     #156.7 c5
..LN2034:
        jl        ..B3.109      # Prob 50%                      #156.7 c5
..LN2035:
                                # LOE rax rdx rbx rsi rdi r8 r9 r10 r12 r13 zmm0 zmm1 zmm2 zmm3 zmm4 zmm5 zmm6 zmm7 zmm8 zmm9 zmm10 zmm11 zmm12 zmm13 zmm14 zmm15 zmm16 zmm17 zmm18 zmm19 zmm20 zmm21 zmm22 k1
..B3.106:                       # Preds ..B3.105 Latency 45
..LN2036:
        movl      %r13d, %r14d                                  #156.7 c1
..LN2037:
	.loc    1  160  is_stmt 1
        vprefetch0 (%r8,%rax,4)                                 #160.30 c5
..LN2038:
	.loc    1  156  is_stmt 1
        movslq    %r13d, %r13                                   #156.7 c5
..LN2039:
	.loc    1  160  is_stmt 1
        vprefetch0 64(%r8,%rax,4)                               #160.30 c9
..LN2040:
	.loc    1  162  is_stmt 1
        movb      %cl, %cl                                      #162.30 c9
..LN2041:
        vprefetch0 (%rdx,%rax,4)                                #162.30 c13
..LN2042:
        movb      %cl, %cl                                      #162.30 c13
..LN2043:
        vprefetch0 64(%rdx,%rax,4)                              #162.30 c17
..LN2044:
	.loc    1  160  is_stmt 1
        movb      %cl, %cl                                      #160.39 c17
..LN2045:
        movq      1496(%rsp), %r15                              #160.39 c21
..LN2046:
	.loc    1  161  is_stmt 1
        movq      1512(%rsp), %rcx                              #161.30 c21
..LN2047:
	.loc    1  160  is_stmt 1
        vbroadcastss (%r15,%rdi,4), %zmm26                      #160.39 c25
..LN2048:
	.loc    1  161  is_stmt 1
        vprefetch0 (%rcx,%rax,4)                                #161.30 c25
..LN2049:
        vprefetch0 64(%rcx,%rax,4)                              #161.30 c29
..LN2050:
        movb      %dl, %dl                                      #161.39 c29
..LN2051:
        movq      1488(%rsp), %r15                              #161.39 c33
..LN2052:
        lea       (%rcx,%rax,4), %r11                           #161.30 c33
..LN2053:
        vbroadcastss (%r15,%rdi,4), %zmm27                      #161.39 c37
..LN2054:
	.loc    1  160  is_stmt 1
        lea       (%r8,%rax,4), %rcx                            #160.30 c37
..LN2055:
	.loc    1  162  is_stmt 1
        movq      1480(%rsp), %r15                              #162.39 c41
..LN2056:
        vbroadcastss (%r15,%rdi,4), %zmm28                      #162.39 c45
..LN2057:
                                # LOE rax rdx rcx rbx rsi rdi r8 r9 r10 r11 r12 r13 r14d zmm0 zmm1 zmm2 zmm3 zmm4 zmm5 zmm6 zmm7 zmm8 zmm9 zmm10 zmm11 zmm12 zmm13 zmm14 zmm15 zmm16 zmm17 zmm18 zmm19 zmm20 zmm21 zmm22 zmm26 zmm27 zmm28 k1
..B3.107:                       # Preds ..B3.107 ..B3.106 Latency 65
..L265:         # optimization report
                # LOOP WAS UNROLLED BY 1
                # LOOP WAS PREFETCHED, LINES = 6
                # LOOP WAS VECTORIZED
                # SIMD LOOP
                # VECTORIZATION HAS UNALIGNED MEMORY REFERENCES
                # VECTORIZATION SPEEDUP COEFFECIENT 13.468750
                # VECTOR TRIP COUNT IS ESTIMATED CONSTANT
                # VECTOR LENGTH 16
                # NORMALIZED VECTORIZATION OVERHEAD 1.125000
..LN2058:
	.loc    1  160  is_stmt 1
        vprefetch1 512(%rcx,%r13,4)                             #160.30 c1
..LN2059:
	.loc    1  161  is_stmt 1
        vloadunpackld (%r11,%r13,4), %zmm30                     #161.30 c5
..LN2060:
	.loc    1  160  is_stmt 1
        vprefetch0 128(%rcx,%r13,4)                             #160.30 c5
..LN2061:
        vloadunpackld (%rcx,%r13,4), %zmm29                     #160.30 c9
..LN2062:
	.loc    1  161  is_stmt 1
        vprefetch1 512(%r11,%r13,4)                             #161.30 c9
..LN2063:
        vloadunpackhd 64(%r11,%r13,4), %zmm30                   #161.30 c13
..LN2064:
        vprefetch0 128(%r11,%r13,4)                             #161.30 c13
..LN2065:
	.loc    1  160  is_stmt 1
        vloadunpackhd 64(%rcx,%r13,4), %zmm29                   #160.30 c17
..LN2066:
	.loc    1  162  is_stmt 1
        vprefetch1 512(%r12,%r13,4)                             #162.30 c17
..LN2067:
	.loc    1  161  is_stmt 1
        vsubps    %zmm27, %zmm30, %zmm23                        #161.39 c21
..LN2068:
	.loc    1  162  is_stmt 1
        vprefetch0 128(%r12,%r13,4)                             #162.30 c21
..LN2069:
	.loc    1  160  is_stmt 1
        vsubps    %zmm26, %zmm29, %zmm25                        #160.39 c25
..LN2070:
	.loc    1  156  is_stmt 1
        addl      $16, %r14d                                    #156.7 c25
..LN2071:
	.loc    1  163  is_stmt 1
        vmulps    %zmm23, %zmm23, %zmm31                        #163.51 c29
..LN2072:
	.loc    1  156  is_stmt 1
        addq      $16, %r13                                     #156.7 c29
..LN2073:
	.loc    1  162  is_stmt 1
        vsubrps   -64(%r12,%r13,4), %zmm28, %zmm24              #162.39 c33
..LN2074:
	.loc    1  156  is_stmt 1
        cmpq      %r9, %r14                                     #156.7 c33
..LN2075:
	.loc    1  163  is_stmt 1
        vfmadd231ps %zmm25, %zmm25, %zmm31                      #163.51 c37
..LN2076:
        vfmadd231ps %zmm24, %zmm24, %zmm31                      #163.59 c41
..LN2077:
	.loc    1  164  is_stmt 1
        vrsqrt23ps %zmm31, %zmm29                               #164.56 c45
..LN2078:
        vmulps    %zmm29, %zmm29, %zmm30                        #164.56 c49
..LN2079:
        vmulps    %zmm30, %zmm29, %zmm31                        #164.56 c53
..LN2080:
	.loc    1  167  is_stmt 1
        vfmadd231ps %zmm25, %zmm31, %zmm1                       #167.13 c57
..LN2081:
        vfmadd231ps %zmm23, %zmm31, %zmm2                       #167.35 c61
..LN2082:
        vfmadd231ps %zmm24, %zmm31, %zmm3                       #167.57 c65
..LN2083:
	.loc    1  156  is_stmt 1
        jb        ..B3.107      # Prob 82%                      #156.7 c65
..LN2084:
                                # LOE rax rdx rcx rbx rsi rdi r8 r9 r10 r11 r12 r13 r14d zmm0 zmm1 zmm2 zmm3 zmm4 zmm5 zmm6 zmm7 zmm8 zmm9 zmm10 zmm11 zmm12 zmm13 zmm14 zmm15 zmm16 zmm17 zmm18 zmm19 zmm20 zmm21 zmm22 zmm26 zmm27 zmm28 k1
..B3.109:                       # Preds ..B3.107 ..B3.105 Latency 5
..LN2085:
        lea       1(%r9), %rcx                                  #156.7 c1
..LN2086:
        cmpq      %rcx, %r10                                    #156.7 c5
..LN2087:
        jb        ..B3.115      # Prob 50%                      #156.7 c5
..LN2088:
                                # LOE rax rdx rbx rsi rdi r8 r9 r10 zmm0 zmm1 zmm2 zmm3 zmm4 zmm5 zmm6 zmm7 zmm8 zmm9 zmm10 zmm11 zmm12 zmm13 zmm14 zmm15 zmm16 zmm17 zmm18 zmm19 zmm20 zmm21 zmm22 k1
..B3.110:                       # Preds ..B3.109 Latency 93
..LN2089:
        vmovaps   .L_2il0floatpacket.7(%rip), %zmm29            #156.7 c1
..LN2090:
        vmovdqa32 .L_2il0floatpacket.11(%rip), %zmm28           #156.7 c5
..LN2091:
        vmovapd   .L_2il0floatpacket.8(%rip), %zmm27            #156.7 c9
..LN2092:
        vmovapd   .L_2il0floatpacket.9(%rip), %zmm26            #156.7 c13
..LN2093:
	.loc    1  161  is_stmt 1
        movq      1488(%rsp), %rcx                              #161.39 c17
..LN2094:
	.loc    1  156  is_stmt 1
        subq      %r9, %r10                                     #156.7 c17
..LN2095:
	.loc    1  161  is_stmt 1
        vbroadcastss (%rcx,%rdi,4), %zmm24                      #161.39 c21
..LN2096:
	.loc    1  160  is_stmt 1
        movslq    %r9d, %r9                                     #160.30 c21
..LN2097:
	.loc    1  162  is_stmt 1
        movq      1480(%rsp), %r12                              #162.39 c25
..LN2098:
	.loc    1  156  is_stmt 1
        movl      $1285, %esi                                   #156.7 c25
..LN2099:
	.loc    1  162  is_stmt 1
        vbroadcastss (%r12,%rdi,4), %zmm30                      #162.39 c29
..LN2100:
	.loc    1  156  is_stmt 1
        kmov      %esi, %k6                                     #156.7 c29
..LN2101:
        movl      $20560, %esi                                  #156.7 c33
..LN2102:
        lea       1344(%rsp), %r12                              #156.7 c33
..LN2103:
        kmov      %esi, %k5                                     #156.7 c37
..LN2104:
        movl      $2570, %esi                                   #156.7 c37
..LN2105:
	.loc    1  160  is_stmt 1
        lea       (%rax,%r9), %rcx                              #160.30 c41
..LN2106:
	.loc    1  161  is_stmt 1
        movq      1512(%rsp), %r13                              #161.30 c41
..LN2107:
	.loc    1  156  is_stmt 1
        kmov      %esi, %k4                                     #156.7 c45
..LN2108:
        movl      $41120, %esi                                  #156.7 c45
..LN2109:
	.loc    1  160  is_stmt 1
        movq      1496(%rsp), %r11                              #160.39 c49
..LN2110:
	.loc    1  156  is_stmt 1
        kmov      %esi, %k3                                     #156.7 c49
..LN2111:
	.loc    1  160  is_stmt 1
        vbroadcastss (%r11,%rdi,4), %zmm25                      #160.39 c53
..LN2112:
	.loc    1  156  is_stmt 1
        xorl      %esi, %esi                                    #156.7 c53
..LN2113:
        incl      %esi                                          #156.7
..LN2114:
        movq      %r10, (%r12)                                  #156.7 c57
..LN2115:
	.loc    1  161  is_stmt 1
        lea       (%r13,%rcx,4), %r15                           #161.30 c57
..LN2116:
	.loc    1  156  is_stmt 1
        vpbroadcastq (%r12), %zmm23                             #156.7 c61
..LN2117:
        kmov      %esi, %k2                                     #156.7 c61
..LN2118:
        vpackstorelps %zmm0, 40(%rsp){%k2}                      #156.7 c65
..LN2119:
        xorl      %r14d, %r14d                                  #156.7 c65
..LN2120:
        vmovaps   1280(%rsp), %zmm0                             #156.7 c69
..LN2121:
        vpackstorelps %zmm4, 32(%rsp){%k2}                      #156.7 c69
..LN2122:
        vpackstorelps %zmm7, 8(%rsp){%k2}                       #156.7 c73
..LN2123:
	.loc    1  160  is_stmt 1
        lea       (%r8,%rcx,4), %r11                            #160.30 c73
..LN2124:
	.loc    1  156  is_stmt 1
        vpackstorelps %zmm6, 16(%rsp){%k2}                      #156.7 c77
..LN2125:
	.loc    1  162  is_stmt 1
        lea       (%rdx,%rcx,4), %r12                           #162.30 c77
..LN2126:
	.loc    1  156  is_stmt 1
        xorl      %r13d, %r13d                                  #156.7 c81
..LN2127:
        xorl      %ecx, %ecx                                    #156.7 c81
..LN2128:
        movq      %rdi, 1448(%rsp)                              #156.7 c85
..LN2129:
        movq      %r15, %rsi                                    #156.7 c85
..LN2130:
        movq      %rdx, 1528(%rsp)                              #156.7 c89
..LN2131:
        movq      1512(%rsp), %rdi                              #156.7 c89
..LN2132:
        movq      %rbx, 1456(%rsp)                              #156.7 c93
..LN2133:
                                # LOE rax rcx rsi rdi r8 r9 r10 r11 r12 r13 r14d zmm0 zmm1 zmm2 zmm3 zmm5 zmm8 zmm9 zmm10 zmm11 zmm12 zmm13 zmm14 zmm15 zmm16 zmm17 zmm18 zmm20 zmm21 zmm22 zmm23 zmm24 zmm25 zmm26 zmm27 zmm28 zmm29 zmm30 k1 k3 k4 k5 k6
..B3.111:                       # Preds ..B3.113 ..B3.110 Latency 181
..L266:         # optimization report
                # LOOP WAS VECTORIZED
                # REMAINDER LOOP FOR VECTORIZATION
                # SIMD LOOP
                # MASKED VECTORIZATION
                # VECTORIZATION HAS UNALIGNED MEMORY REFERENCES
                # VECTORIZATION SPEEDUP COEFFECIENT 6.527344
                # VECTOR TRIP COUNT IS ESTIMATED CONSTANT
                # VECTOR LENGTH 16
                # NORMALIZED VECTORIZATION OVERHEAD 1.125000
..LN2134:
        movq      %rcx, 1392(%rsp)                              # c1
..LN2135:
        vpshufd   $216, %zmm28, %zmm7                           #156.7 c5
..LN2136:
        vpshufd   $114, %zmm28, %zmm6                           #156.7 c9
..LN2137:
        vpermf32x4 $80, %zmm7, %zmm9{%k6}                       #156.7 c13
..LN2138:
        vpermf32x4 $80, %zmm6, %zmm9{%k5}                       #156.7 c17
..LN2139:
        vpermf32x4 $80, %zmm6, %zmm9{%k4}                       #156.7 c21
..LN2140:
        vmovaps   %zmm9, %zmm19                                 #156.7 c25
..LN2141:
        vpermf32x4 $80, %zmm7, %zmm19{%k3}                      #156.7 c29
..LN2142:
        vpsrad    $31, %zmm19, %zmm31                           #156.7 c33
..LN2143:
        vpermf32x4 $78, %zmm28, %zmm7                           #156.7 c37
..LN2144:
        vpandq    %zmm27, %zmm19, %zmm6                         #156.7 c41
..LN2145:
        vpandq    %zmm26, %zmm31, %zmm4                         #156.7 c45
..LN2146:
        vpshufd   $216, %zmm7, %zmm31                           #156.7 c49
..LN2147:
        vpshufd   $114, %zmm7, %zmm19                           #156.7 c53
..LN2148:
        vporq     %zmm6, %zmm4, %zmm4                           #156.7 c57
..LN2149:
        vpermf32x4 $80, %zmm31, %zmm0{%k6}                      #156.7 c61
..LN2150:
        vpcmpud   $2, %zmm23, %zmm4, %k7                        #156.7 c65
..LN2151:
        vpermf32x4 $80, %zmm19, %zmm0{%k5}                      #156.7 c69
..LN2152:
        vpcmpud   $0, %zmm23, %zmm4, %k2                        #156.7 c73
..LN2153:
        kmov      %k7, %ecx                                     #156.7 c73
..LN2154:
        vpermf32x4 $80, %zmm19, %zmm0{%k4}                      #156.7 c77
..LN2155:
        addl      %ecx, %ecx                                    #156.7 c77
..LN2156:
        vpcmpltd  %zmm23, %zmm4, %k0                            #156.7 c81
..LN2157:
        kmov      %k2, %ebx                                     #156.7 c81
..LN2158:
        vmovaps   %zmm0, %zmm6                                  #156.7 c85
..LN2159:
        andl      %ebx, %ecx                                    #156.7 c85
..LN2160:
        vpermf32x4 $80, %zmm31, %zmm6{%k3}                      #156.7 c89
..LN2161:
        kmov      %k0, %edx                                     #156.7 c89
..LN2162:
        vpsrad    $31, %zmm6, %zmm7                             #156.7 c93
..LN2163:
        orl       %edx, %ecx                                    #156.7 c93
..LN2164:
        vmovaps   %zmm17, %zmm4                                 #156.7 c97
..LN2165:
        andl      $-21846, %ecx                                 #156.7 c97
..LN2166:
        vpandq    %zmm27, %zmm6, %zmm31                         #156.7 c101
..LN2167:
        kmov      %ecx, %k2                                     #156.7 c101
..LN2168:
        vbroadcastss .L_2il0floatpacket.12(%rip), %zmm4{%k2}    #156.7 c105
..LN2169:
        vpandq    %zmm26, %zmm7, %zmm19                         #156.7 c109
..LN2170:
        vcmpneqpd %zmm4, %zmm17, %k0                            #156.7 c113
..LN2171:
        vporq     %zmm31, %zmm19, %zmm6                         #156.7 c117
..LN2172:
        vpcmpud   $2, %zmm23, %zmm6, %k2                        #156.7 c121
..LN2173:
        kmov      %k0, %ebx                                     #156.7 c121
..LN2174:
        vpcmpud   $0, %zmm23, %zmm6, %k0                        #156.7 c125
..LN2175:
        vpcmpltd  %zmm23, %zmm6, %k7                            #156.7 c129
..LN2176:
        kmov      %k2, %ecx                                     #156.7 c129
..LN2177:
        vmovaps   %zmm17, %zmm7                                 #156.7 c133
..LN2178:
        kmov      %k0, %r15d                                    #156.7 c133
..LN2179:
        addl      %ecx, %ecx                                    #156.7 c137
..LN2180:
        kmov      %k7, %edx                                     #156.7 c137
..LN2181:
        andl      %r15d, %ecx                                   #156.7 c141
..LN2182:
        movl      %ebx, %r15d                                   #156.7 c141
..LN2183:
        orl       %edx, %ecx                                    #156.7 c145
..LN2184:
        andl      $-21846, %ecx                                 #156.7 c149
..LN2185:
        kmov      %ecx, %k7                                     #156.7 c153
..LN2186:
        movq      1392(%rsp), %rcx                              #156.7 c153
..LN2187:
        vbroadcastss .L_2il0floatpacket.12(%rip), %zmm7{%k7}    #156.7 c157
..LN2188:
        vcmpneqpd %zmm7, %zmm17, %k0                            #156.7 c161
..LN2189:
        nop                                                     #156.7 c165
..LN2190:
        kmov      %k0, %edx                                     #156.7 c169
..LN2191:
        andl      %edx, %r15d                                   #156.7 c173
..LN2192:
        xorl      $-1, %r15d                                    #156.7 c177
..LN2193:
        testb     %r15b, %r15b                                  #156.7 c181
..LN2194:
        jne       ..B3.119      # Prob 9%                       #156.7 c181
..LN2195:
                                # LOE rax rcx rsi rdi r8 r9 r10 r11 r12 r13 edx ecx ebx r14d cl ch zmm0 zmm1 zmm2 zmm3 zmm5 zmm8 zmm9 zmm10 zmm11 zmm12 zmm13 zmm14 zmm15 zmm16 zmm17 zmm18 zmm20 zmm21 zmm22 zmm23 zmm24 zmm25 zmm26 zmm27 zmm28 zmm29 zmm30 k1 k3 k4 k5 k6
..B3.112:                       # Preds ..B3.111 Latency 61
..LN2196:
	.loc    1  161  is_stmt 1
        vloadunpackld (%rsi,%r13,4), %zmm31                     #161.30 c1
..LN2197:
	.loc    1  160  is_stmt 1
        vloadunpackld (%r11,%r13,4), %zmm19                     #160.30 c5
..LN2198:
	.loc    1  161  is_stmt 1
        vloadunpackhd 64(%rsi,%r13,4), %zmm31                   #161.30 c9
..LN2199:
	.loc    1  160  is_stmt 1
        vloadunpackhd 64(%r11,%r13,4), %zmm19                   #160.30 c13
..LN2200:
	.loc    1  161  is_stmt 1
        vsubps    %zmm24, %zmm31, %zmm4                         #161.39 c17
..LN2201:
	.loc    1  160  is_stmt 1
        vsubps    %zmm25, %zmm19, %zmm7                         #160.39 c21
..LN2202:
	.loc    1  163  is_stmt 1
        vmulps    %zmm4, %zmm4, %zmm19                          #163.51 c25
..LN2203:
	.loc    1  162  is_stmt 1
        vsubrps   (%r12,%r13,4), %zmm30, %zmm6                  #162.39 c29
..LN2204:
	.loc    1  163  is_stmt 1
        vfmadd231ps %zmm7, %zmm7, %zmm19                        #163.51 c33
..LN2205:
        vfmadd231ps %zmm6, %zmm6, %zmm19                        #163.59 c37
..LN2206:
	.loc    1  164  is_stmt 1
        vrsqrt23ps %zmm19, %zmm31                               #164.56 c41
..LN2207:
        vmulps    %zmm31, %zmm31, %zmm19                        #164.56 c45
..LN2208:
        vmulps    %zmm19, %zmm31, %zmm31                        #164.56 c49
..LN2209:
	.loc    1  167  is_stmt 1
        vfmadd231ps %zmm7, %zmm31, %zmm1                        #167.13 c53
..LN2210:
        vfmadd231ps %zmm4, %zmm31, %zmm2                        #167.35 c57
..LN2211:
        vfmadd231ps %zmm6, %zmm31, %zmm3                        #167.57 c61
..LN2212:
                                # LOE rax rcx rsi rdi r8 r9 r10 r11 r12 r13 ecx r14d cl ch zmm0 zmm1 zmm2 zmm3 zmm5 zmm8 zmm9 zmm10 zmm11 zmm12 zmm13 zmm14 zmm15 zmm16 zmm17 zmm18 zmm20 zmm21 zmm22 zmm23 zmm24 zmm25 zmm26 zmm27 zmm28 zmm29 zmm30 k1 k3 k4 k5 k6
..B3.113:                       # Preds ..B3.112 ..B3.119 Latency 9
..LN2213:
	.loc    1  156  is_stmt 1
        vpaddd    %zmm29, %zmm28, %zmm28                        #156.7 c1
..LN2214:
        addl      $16, %r14d                                    #156.7 c1
..LN2215:
        addq      $64, %rcx                                     #156.7 c5
..LN2216:
        addq      $16, %r13                                     #156.7 c5
..LN2217:
        cmpq      %r10, %r14                                    #156.7 c9
..LN2218:
        jb        ..B3.111      # Prob 82%                      #156.7 c9
..LN2219:
                                # LOE rax rcx rsi rdi r8 r9 r10 r11 r12 r13 r14d zmm0 zmm1 zmm2 zmm3 zmm5 zmm8 zmm9 zmm10 zmm11 zmm12 zmm13 zmm14 zmm15 zmm16 zmm17 zmm18 zmm20 zmm21 zmm22 zmm23 zmm24 zmm25 zmm26 zmm27 zmm28 zmm29 zmm30 k1 k3 k4 k5 k6
..B3.114:                       # Preds ..B3.113 Latency 25
..LN2220:
        vmovaps   %zmm0, 1280(%rsp)                             # c1
..LN2221:
        movq      1528(%rsp), %rdx                              # c1
..LN2222:
        vbroadcastss 32(%rsp), %zmm4                            # c5
..LN2223:
        movq      %rdi, 1512(%rsp)                              # c5
..LN2224:
        vbroadcastss 40(%rsp), %zmm0                            # c9
..LN2225:
        vbroadcastss 8(%rsp), %zmm7                             # c13
..LN2226:
        vbroadcastss 16(%rsp), %zmm6                            # c17
..LN2227:
        vbroadcastss 24(%rsp), %zmm19                           # c21
..LN2228:
        movq      1448(%rsp), %rdi                              # c21
..LN2229:
        movq      1456(%rsp), %rbx                              # c25
..LN2230:
        movq      1464(%rsp), %rsi                              # c25
..LN2231:
                                # LOE rdx rbx rsi rdi r8 zmm0 zmm1 zmm2 zmm3 zmm4 zmm5 zmm6 zmm7 zmm8 zmm9 zmm10 zmm11 zmm12 zmm13 zmm14 zmm15 zmm16 zmm17 zmm18 zmm19 zmm20 zmm21 zmm22 k1
..B3.115:                       # Preds ..B3.114 ..B3.104 ..B3.109 Latency 81
..LN2232:
	.loc    1  152  is_stmt 1
        vpermf32x4 $238, %zmm2, %zmm28                          #152.18 c1
..LN2233:
        vaddps    %zmm2, %zmm28, %zmm29                         #152.18 c5
..LN2234:
	.loc    1  153  is_stmt 1
        vpermf32x4 $238, %zmm3, %zmm23                          #153.18 c9
..LN2235:
	.loc    1  152  is_stmt 1
        vpermf32x4 $85, %zmm29, %zmm2                           #152.18 c13
..LN2236:
        vaddps    %zmm29, %zmm2, %zmm30                         #152.18 c17
..LN2237:
	.loc    1  153  is_stmt 1
        vaddps    %zmm3, %zmm23, %zmm24                         #153.18 c21
..LN2238:
	.loc    1  152  is_stmt 1
        vaddps    %zmm30{badc}, %zmm30, %zmm31                  #152.18 c25
..LN2239:
	.loc    1  153  is_stmt 1
        vpermf32x4 $85, %zmm24, %zmm3                           #153.18 c29
..LN2240:
        vaddps    %zmm24, %zmm3, %zmm25                         #153.18 c33
..LN2241:
	.loc    1  152  is_stmt 1
        vaddps    %zmm31{cdab}, %zmm31, %zmm2                   #152.18 c37
..LN2242:
	.loc    1  151  is_stmt 1
        vpermf32x4 $238, %zmm1, %zmm3                           #151.18 c41
..LN2243:
	.loc    1  152  is_stmt 1
        vaddps    %zmm4, %zmm2, %zmm4{%k1}                      #152.18 c45
..LN2244:
	.loc    1  151  is_stmt 1
        vaddps    %zmm1, %zmm3, %zmm2                           #151.18 c49
..LN2245:
	.loc    1  153  is_stmt 1
        vaddps    %zmm25{badc}, %zmm25, %zmm26                  #153.18 c53
..LN2246:
	.loc    1  151  is_stmt 1
        vpermf32x4 $85, %zmm2, %zmm1                            #151.18 c57
..LN2247:
        vaddps    %zmm2, %zmm1, %zmm1                           #151.18 c61
..LN2248:
	.loc    1  153  is_stmt 1
        vaddps    %zmm26{cdab}, %zmm26, %zmm27                  #153.18 c65
..LN2249:
	.loc    1  151  is_stmt 1
        vaddps    %zmm1{badc}, %zmm1, %zmm3                     #151.18 c69
..LN2250:
	.loc    1  153  is_stmt 1
        vaddps    %zmm5, %zmm27, %zmm5{%k1}                     #153.18 c73
..LN2251:
	.loc    1  151  is_stmt 1
        vaddps    %zmm3{cdab}, %zmm3, %zmm23                    #151.18 c77
..LN2252:
        vaddps    %zmm0, %zmm23, %zmm0{%k1}                     #151.18 c81
..LN2253:
                                # LOE rdx rbx rsi rdi r8 zmm0 zmm4 zmm5 zmm6 zmm7 zmm8 zmm9 zmm10 zmm11 zmm12 zmm13 zmm14 zmm15 zmm16 zmm17 zmm18 zmm19 zmm20 zmm21 zmm22 k1
..B3.116:                       # Preds ..B3.115 ..B3.84 Latency 37
..LN2254:
	.loc    1  172  is_stmt 1
        movq      1616(%rsp), %rax                              #172.9 c1
..LN2255:
	.loc    1  149  is_stmt 1
        incq      %rdi                                          #149.5 c1
..LN2256:
	.loc    1  172  is_stmt 1
        vfmadd213ps (%rax,%rbx,4){1to16}, %zmm19, %zmm0{%k1}    #172.9 c5
..LN2257:
	.loc    1  149  is_stmt 1
        incq      %rbx                                          #149.37 c5
..LN2258:
	.loc    1  172  is_stmt 1
        movq      1608(%rsp), %rcx                              #172.39 c9
..LN2259:
        movq      1600(%rsp), %r9                               #172.60 c9
..LN2260:
        vpackstorelps %zmm0, -4(%rax,%rbx,4){%k1}               #172.9 c13
..LN2261:
	.loc    1  149  is_stmt 1
        movq      1592(%rsp), %r10                              #149.5 c13
..LN2262:
	.loc    1  172  is_stmt 1
        vfmadd213ps -4(%rcx,%rbx,4){1to16}, %zmm19, %zmm4{%k1}  #172.39 c17
..LN2263:
	.loc    1  149  is_stmt 1
        cmpq      %r10, %rdi                                    #149.5 c17
..LN2264:
	.loc    1  172  is_stmt 1
        nop                                                     #172.39 c21
..LN2265:
        vpackstorelps %zmm4, -4(%rcx,%rbx,4){%k1}               #172.39 c25
..LN2266:
        vfmadd213ps -4(%r9,%rbx,4){1to16}, %zmm19, %zmm5{%k1}   #172.60 c29
..LN2267:
        nop                                                     #172.60 c33
..LN2268:
        vpackstorelps %zmm5, -4(%r9,%rbx,4){%k1}                #172.60 c37
..LN2269:
	.loc    1  149  is_stmt 1
        jb        ..B3.52       # Prob 82%                      #149.5 c37
..LN2270:
        jmp       ..B3.117      # Prob 100%                     #149.5 c37
..LN2271:
                                # LOE rdx rbx rsi rdi r8 zmm6 zmm7 zmm8 zmm9 zmm10 zmm11 zmm12 zmm13 zmm14 zmm15 zmm16 zmm17 zmm18 zmm19 zmm20 zmm21 zmm22 k1
..B3.118:                       # Preds ..B3.36                 # Infreq Latency 210
..LN2272:
	.loc    1  176  is_stmt 1
        shll      $8, %ecx                                      #176.5 c1
..LN2273:
        movzbl    %bl, %ebx                                     #176.5 c1
..LN2274:
	.loc    1  178  is_stmt 1
        vmovaps   .L_2il0floatpacket.10(%rip), %zmm13           #178.9 c5
..LN2275:
        vmovaps   %zmm3, %zmm10                                 #178.9 c9
..LN2276:
	.loc    1  176  is_stmt 1
        orl       %ecx, %ebx                                    #176.5 c9
..LN2277:
	.loc    1  178  is_stmt 1
        vmovaps   %zmm3, %zmm9                                  #178.20 c13
..LN2278:
        lea       (%rdx,%rdi), %r14                             #178.9 c13
..LN2279:
        vmovaps   %zmm3, %zmm12                                 #178.33 c17
..LN2280:
        lea       (%r10,%rdi), %rcx                             #178.20 c17
..LN2281:
        vmovaps   %zmm3, %zmm11                                 #178.44 c21
..LN2282:
        kmov      %ebx, %k1                                     #178.9 c21
..LN2283:
        vmovaps   %zmm3, %zmm14                                 #178.67 c25
..LN2284:
        kmov      %k1, %k6                                      #178.9 c25
..LN2285:
        vgatherpf0hintdps (%r14,%zmm13,4){%k6}                  #178.9 c29
..LN2286:
        vgatherpf0hintdps (%r14,%zmm13,4){%k6}                  #178.9
..LN2287:
        nop                                                     #178.9
..L268:                                                         #
..LN2288:
        vgatherdps (%r14,%zmm13,4), %zmm10{%k6}                 #178.9
..LN2289:
        jkzd      ..L267, %k6   # Prob 50%                      #178.9
..LN2290:
        vgatherdps (%r14,%zmm13,4), %zmm10{%k6}                 #178.9
..LN2291:
        vgatherdps (%r14,%zmm13,4), %zmm10{%k6}                 #178.9
..LN2292:
        vgatherdps (%r14,%zmm13,4), %zmm10{%k6}                 #178.9
..LN2293:
        vgatherdps (%r14,%zmm13,4), %zmm10{%k6}                 #178.9
..LN2294:
        vgatherdps (%r14,%zmm13,4), %zmm10{%k6}                 #178.9
..LN2295:
        vgatherdps (%r14,%zmm13,4), %zmm10{%k6}                 #178.9
..LN2296:
        vgatherdps (%r14,%zmm13,4), %zmm10{%k6}                 #178.9
..LN2297:
        vgatherdps (%r14,%zmm13,4), %zmm10{%k6}                 #178.9
..LN2298:
        jknzd     ..L268, %k6   # Prob 50%                      #178.9
..L267:                                                         #
..LN2299:
        vmovaps   %zmm3, %zmm15                                 #178.56 c49
..LN2300:
        kmov      %k1, %k7                                      #178.20 c49
..LN2301:
        vgatherpf0hintdps (%rcx,%zmm13,4){%k7}                  #178.20 c53
..LN2302:
        vgatherpf0hintdps (%rcx,%zmm13,4){%k7}                  #178.20
..LN2303:
        nop                                                     #178.20
..L270:                                                         #
..LN2304:
        vgatherdps (%rcx,%zmm13,4), %zmm9{%k7}                  #178.20
..LN2305:
        jkzd      ..L269, %k7   # Prob 50%                      #178.20
..LN2306:
        vgatherdps (%rcx,%zmm13,4), %zmm9{%k7}                  #178.20
..LN2307:
        vgatherdps (%rcx,%zmm13,4), %zmm9{%k7}                  #178.20
..LN2308:
        vgatherdps (%rcx,%zmm13,4), %zmm9{%k7}                  #178.20
..LN2309:
        vgatherdps (%rcx,%zmm13,4), %zmm9{%k7}                  #178.20
..LN2310:
        vgatherdps (%rcx,%zmm13,4), %zmm9{%k7}                  #178.20
..LN2311:
        vgatherdps (%rcx,%zmm13,4), %zmm9{%k7}                  #178.20
..LN2312:
        vgatherdps (%rcx,%zmm13,4), %zmm9{%k7}                  #178.20
..LN2313:
        vgatherdps (%rcx,%zmm13,4), %zmm9{%k7}                  #178.20
..LN2314:
        jknzd     ..L270, %k7   # Prob 50%                      #178.20
..L269:                                                         #
..LN2315:
        vfmadd231ps %zmm2, %zmm9, %zmm10                        #178.9 c73
..LN2316:
        lea       (%rax,%rdi), %r15                             #178.44 c73
..LN2317:
        lea       (%r13,%rdi), %rcx                             #178.33 c77
..LN2318:
        kmov      %k1, %k6                                      #178.9 c77
..LN2319:
        vscatterpf0hintdps (%r14,%zmm13,4){%k6}                 #178.9 c81
..LN2320:
        vscatterpf0hintdps (%r14,%zmm13,4){%k6}                 #178.9
..LN2321:
        nop                                                     #178.9
..L272:                                                         #
..LN2322:
        vscatterdps %zmm10, (%r14,%zmm13,4){%k6}                #178.9
..LN2323:
        jkzd      ..L271, %k6   # Prob 50%                      #178.9
..LN2324:
        vscatterdps %zmm10, (%r14,%zmm13,4){%k6}                #178.9
..LN2325:
        vscatterdps %zmm10, (%r14,%zmm13,4){%k6}                #178.9
..LN2326:
        vscatterdps %zmm10, (%r14,%zmm13,4){%k6}                #178.9
..LN2327:
        vscatterdps %zmm10, (%r14,%zmm13,4){%k6}                #178.9
..LN2328:
        vscatterdps %zmm10, (%r14,%zmm13,4){%k6}                #178.9
..LN2329:
        vscatterdps %zmm10, (%r14,%zmm13,4){%k6}                #178.9
..LN2330:
        vscatterdps %zmm10, (%r14,%zmm13,4){%k6}                #178.9
..LN2331:
        vscatterdps %zmm10, (%r14,%zmm13,4){%k6}                #178.9
..LN2332:
        jknzd     ..L272, %k6   # Prob 50%                      #178.9
..L271:                                                         #
..LN2333:
        kmov      %k1, %k7                                      #178.33 c101
..LN2334:
        lea       (%r12,%rdi), %rbx                             #178.67 c101
..LN2335:
        vgatherpf0hintdps (%rcx,%zmm13,4){%k7}                  #178.33 c105
..LN2336:
        vgatherpf0hintdps (%rcx,%zmm13,4){%k7}                  #178.33
..LN2337:
        nop                                                     #178.33
..L274:                                                         #
..LN2338:
        vgatherdps (%rcx,%zmm13,4), %zmm12{%k7}                 #178.33
..LN2339:
        jkzd      ..L273, %k7   # Prob 50%                      #178.33
..LN2340:
        vgatherdps (%rcx,%zmm13,4), %zmm12{%k7}                 #178.33
..LN2341:
        vgatherdps (%rcx,%zmm13,4), %zmm12{%k7}                 #178.33
..LN2342:
        vgatherdps (%rcx,%zmm13,4), %zmm12{%k7}                 #178.33
..LN2343:
        vgatherdps (%rcx,%zmm13,4), %zmm12{%k7}                 #178.33
..LN2344:
        vgatherdps (%rcx,%zmm13,4), %zmm12{%k7}                 #178.33
..LN2345:
        vgatherdps (%rcx,%zmm13,4), %zmm12{%k7}                 #178.33
..LN2346:
        vgatherdps (%rcx,%zmm13,4), %zmm12{%k7}                 #178.33
..LN2347:
        vgatherdps (%rcx,%zmm13,4), %zmm12{%k7}                 #178.33
..LN2348:
        jknzd     ..L274, %k7   # Prob 50%                      #178.33
..L273:                                                         #
..LN2349:
        kmov      %k1, %k6                                      #178.44 c125
..LN2350:
        vgatherpf0hintdps (%r15,%zmm13,4){%k6}                  #178.44 c129
..LN2351:
        vgatherpf0hintdps (%r15,%zmm13,4){%k6}                  #178.44
..LN2352:
        nop                                                     #178.44
..L276:                                                         #
..LN2353:
        vgatherdps (%r15,%zmm13,4), %zmm11{%k6}                 #178.44
..LN2354:
        jkzd      ..L275, %k6   # Prob 50%                      #178.44
..LN2355:
        vgatherdps (%r15,%zmm13,4), %zmm11{%k6}                 #178.44
..LN2356:
        vgatherdps (%r15,%zmm13,4), %zmm11{%k6}                 #178.44
..LN2357:
        vgatherdps (%r15,%zmm13,4), %zmm11{%k6}                 #178.44
..LN2358:
        vgatherdps (%r15,%zmm13,4), %zmm11{%k6}                 #178.44
..LN2359:
        vgatherdps (%r15,%zmm13,4), %zmm11{%k6}                 #178.44
..LN2360:
        vgatherdps (%r15,%zmm13,4), %zmm11{%k6}                 #178.44
..LN2361:
        vgatherdps (%r15,%zmm13,4), %zmm11{%k6}                 #178.44
..LN2362:
        vgatherdps (%r15,%zmm13,4), %zmm11{%k6}                 #178.44
..LN2363:
        jknzd     ..L276, %k6   # Prob 50%                      #178.44
..L275:                                                         #
..LN2364:
        vfmadd231ps %zmm2, %zmm11, %zmm12                       #178.33 c149
..LN2365:
        kmov      %k1, %k7                                      #178.33 c149
..LN2366:
        kmov      %k1, %k6                                      #178.67 c153
..LN2367:
        vscatterpf0hintdps (%rcx,%zmm13,4){%k7}                 #178.33 c157
..LN2368:
        vscatterpf0hintdps (%rcx,%zmm13,4){%k7}                 #178.33
..LN2369:
        nop                                                     #178.33
..L278:                                                         #
..LN2370:
        vscatterdps %zmm12, (%rcx,%zmm13,4){%k7}                #178.33
..LN2371:
        jkzd      ..L277, %k7   # Prob 50%                      #178.33
..LN2372:
        vscatterdps %zmm12, (%rcx,%zmm13,4){%k7}                #178.33
..LN2373:
        vscatterdps %zmm12, (%rcx,%zmm13,4){%k7}                #178.33
..LN2374:
        vscatterdps %zmm12, (%rcx,%zmm13,4){%k7}                #178.33
..LN2375:
        vscatterdps %zmm12, (%rcx,%zmm13,4){%k7}                #178.33
..LN2376:
        vscatterdps %zmm12, (%rcx,%zmm13,4){%k7}                #178.33
..LN2377:
