	.section .text
.LNDBG_TX:
# mark_description "Intel(R) C Intel(R) 64 Compiler for applications running on Intel(R) 64, Version 16.0.0.109 Build 20150815";
# mark_description "-I.. -S -g -O3 -fopenmp -fma -march=core-avx2 -qopt-report=5 -qopt-report-phase=vec -qopt-report-file=stdout";
# mark_description " -opt-report-routine=simd";
	.file "intrin.cpp"
	.text
..TXTST0:
.L_2__routine_start__Z9intrinsicPfll_0:
# -- Begin  _Z9intrinsicPfll, L__Z9intrinsicPfll_34__par_loop0_2.0
	.text
# mark_begin;
       .align    16,0x90
	.globl _Z9intrinsicPfll
# --- intrinsic(float *, long, long)
_Z9intrinsicPfll:
# parameter 1(A): %rdi
# parameter 2(N): %rsi
# parameter 3(M): %rdx
..B1.1:                         # Preds ..B1.0
	.cfi_startproc
	.cfi_personality 0x3,__gxx_personality_v0
..___tag_value__Z9intrinsicPfll.2:
..L3:
                                                          #14.1
..LN0:
	.file   1 "intrin.cpp"
	.loc    1  14  is_stmt 1
        pushq     %rbp                                          #14.1
	.cfi_def_cfa_offset 16
..LN1:
        movq      %rsp, %rbp                                    #14.1
	.cfi_def_cfa 6, 16
	.cfi_offset 6, -16
..LN2:
        andq      $-32, %rsp                                    #14.1
..LN3:
        subq      $416, %rsp                                    #14.1
..LN4:
	.loc    1  22  prologue_end  is_stmt 1
        lea       7(%rsi), %rax                                 #22.23
..LN5:
        andq      $-8, %rax                                     #22.28
..LN6:
	.loc    1  19  is_stmt 1
        vxorps    %xmm0, %xmm0, %xmm0                           #19.34
..LN7:
	.loc    1  14  is_stmt 1
        movq      %rbx, 280(%rsp)                               #14.1
..LN8:
        movq      %r15, 248(%rsp)                               #14.1
..LN9:
        movq      %r14, 256(%rsp)                               #14.1
..LN10:
        movq      %r13, 264(%rsp)                               #14.1
..LN11:
        movq      %r12, 272(%rsp)                               #14.1
..LN12:
        movq      %rsi, 288(%rsp)                               #14.1
..LN13:
        movq      %rdx, 296(%rsp)                               #14.1
..LN14:
	.loc    1  16  is_stmt 1
        movq      %rdi, 304(%rsp)                               #16.30
..LN15:
	.loc    1  22  is_stmt 1
        movl      %eax, 312(%rsp)                               #22.18
..LN16:
	.loc    1  23  is_stmt 1
        vmovups   constants.323.0.0.1(%rip), %xmm1              #23.23
..LN17:
	.loc    1  19  is_stmt 1
        vcvtsi2ssq %rdx, %xmm0, %xmm0                           #19.34
..LN18:
	.loc    1  23  is_stmt 1
        vmovups   %xmm1, 224(%rsp)                              #23.23
..LN19:
	.loc    1  19  is_stmt 1
        vmovss    .L_2il0floatpacket.1(%rip), %xmm2             #19.22
..LN20:
	.loc    1  23  is_stmt 1
        movq      16+constants.323.0.0.1(%rip), %rcx            #23.23
..LN21:
	.loc    1  19  is_stmt 1
        vdivss    %xmm0, %xmm2, %xmm3                           #19.34
..LN22:
	.loc    1  23  is_stmt 1
        movq      %rcx, 240(%rsp)                               #23.23
	.cfi_escape 0x10, 0x03, 0x0e, 0x38, 0x1c, 0x0d, 0xe0, 0xff, 0xff, 0xff, 0x1a, 0x0d, 0x78, 0xff, 0xff, 0xff, 0x22
	.cfi_escape 0x10, 0x0c, 0x0e, 0x38, 0x1c, 0x0d, 0xe0, 0xff, 0xff, 0xff, 0x1a, 0x0d, 0x70, 0xff, 0xff, 0xff, 0x22
	.cfi_escape 0x10, 0x0d, 0x0e, 0x38, 0x1c, 0x0d, 0xe0, 0xff, 0xff, 0xff, 0x1a, 0x0d, 0x68, 0xff, 0xff, 0xff, 0x22
	.cfi_escape 0x10, 0x0e, 0x0e, 0x38, 0x1c, 0x0d, 0xe0, 0xff, 0xff, 0xff, 0x1a, 0x0d, 0x60, 0xff, 0xff, 0xff, 0x22
	.cfi_escape 0x10, 0x0f, 0x0e, 0x38, 0x1c, 0x0d, 0xe0, 0xff, 0xff, 0xff, 0x1a, 0x0d, 0x58, 0xff, 0xff, 0xff, 0x22
..LN23:
                                # LOE rsi xmm2 xmm3
..B1.2:                         # Preds ..B1.1
..LN24:
	.loc    1  18  is_stmt 1
        vxorps    %xmm0, %xmm0, %xmm0                           #18.34
..LN25:
        vcvtsi2ssq %rsi, %xmm0, %xmm0                           #18.34
..LN26:
	.loc    1  26  is_stmt 1
        vbroadcastss 232(%rsp), %ymm4                           #26.19
..LN27:
	.loc    1  27  is_stmt 1
        vbroadcastss 236(%rsp), %ymm5                           #27.19
..LN28:
	.loc    1  28  is_stmt 1
        vbroadcastss 240(%rsp), %ymm6                           #28.19
..LN29:
	.loc    1  23  is_stmt 1
        vmovss    %xmm3, 228(%rsp)                              #23.30
..LN30:
	.loc    1  18  is_stmt 1
        vdivss    %xmm0, %xmm2, %xmm1                           #18.34
..LN31:
	.loc    1  23  is_stmt 1
        vmovss    %xmm1, 224(%rsp)                              #23.26
..LN32:
	.loc    1  24  is_stmt 1
        vbroadcastss 224(%rsp), %ymm2                           #24.19
..LN33:
	.loc    1  25  is_stmt 1
        vbroadcastss 228(%rsp), %ymm3                           #25.19
..LN34:
	.loc    1  29  is_stmt 1
        vbroadcastss 244(%rsp), %ymm7                           #29.19
..LN35:
	.loc    1  26  is_stmt 1
        vmovups   %ymm4, 64(%rsp)                               #26.17
..LN36:
	.loc    1  24  is_stmt 1
        vmovups   %ymm2, (%rsp)                                 #24.17
..LN37:
	.loc    1  25  is_stmt 1
        vmovups   %ymm3, 32(%rsp)                               #25.17
..LN38:
	.loc    1  27  is_stmt 1
        vmovups   %ymm5, 96(%rsp)                               #27.17
..LN39:
	.loc    1  28  is_stmt 1
        vmovups   %ymm6, 128(%rsp)                              #28.17
..LN40:
	.loc    1  29  is_stmt 1
        vmovups   %ymm7, 160(%rsp)                              #29.17
..LN41:
	.loc    1  30  is_stmt 1
        vmovups   incr.323.0.0.1(%rip), %ymm8                   #30.18
..LN42:
        vmovups   %ymm8, 192(%rsp)                              #30.18
..LN43:
                                # LOE
..B1.3:                         # Preds ..B1.2
..LN44:
	.loc    1  34  is_stmt 1
        movl      $.2.3_2_kmpc_loc_struct_pack.12, %edi         #34.5
..LN45:
        vzeroupper                                              #34.5
..LN46:
        call      __kmpc_global_thread_num                      #34.5
..LN47:
                                # LOE eax
..B1.42:                        # Preds ..B1.3
..LN48:
        movl      %eax, 224(%rsp)                               #34.5
..LN49:
        movl      $.2.3_2_kmpc_loc_struct_pack.20, %edi         #34.5
..LN50:
        xorl      %eax, %eax                                    #34.5
..___tag_value__Z9intrinsicPfll.13:
..LN51:
        call      __kmpc_ok_to_fork                             #34.5
..___tag_value__Z9intrinsicPfll.14:
..LN52:
                                # LOE eax
..B1.4:                         # Preds ..B1.42
..LN53:
        testl     %eax, %eax                                    #34.5
..LN54:
        je        ..B1.6        # Prob 50%                      #34.5
..LN55:
                                # LOE
..B1.5:                         # Preds ..B1.4
..LN56:
        movl      $L__Z9intrinsicPfll_34__par_loop0_2.0, %edx   #34.5
..LN57:
        lea       304(%rsp), %rax                               #34.5
..LN58:
        movl      $.2.3_2_kmpc_loc_struct_pack.20, %edi         #34.5
..LN59:
        lea       -16(%rax), %rbx                               #34.5
..LN60:
        movl      $11, %esi                                     #34.5
..LN61:
        lea       -176(%rax), %r10                              #34.5
..LN62:
        lea       -144(%rax), %r11                              #34.5
..LN63:
        lea       -32(%r10), %r12                               #34.5
..LN64:
        lea       -96(%r10), %r13                               #34.5
..LN65:
        lea       -8(%rax), %rcx                                #34.5
..LN66:
        lea       -112(%rax), %r8                               #34.5
..LN67:
        lea       8(%rax), %r9                                  #34.5
..LN68:
        lea       (%rsp), %r15                                  #34.5
..LN69:
        lea       -128(%r8), %r14                               #34.5
..LN70:
        pushq     %rax                                          #34.5
..LN71:
        pushq     %rbx                                          #34.5
..LN72:
        pushq     %r10                                          #34.5
..LN73:
        pushq     %r11                                          #34.5
..LN74:
        pushq     %r12                                          #34.5
..LN75:
        pushq     %r13                                          #34.5
..LN76:
        pushq     %r14                                          #34.5
..LN77:
        xorl      %eax, %eax                                    #34.5
..LN78:
        pushq     %r15                                          #34.5
..___tag_value__Z9intrinsicPfll.15:
..LN79:
        call      __kmpc_fork_call                              #34.5
..___tag_value__Z9intrinsicPfll.16:
..LN80:
                                # LOE
..B1.43:                        # Preds ..B1.5
..LN81:
        addq      $64, %rsp                                     #34.5
..LN82:
        jmp       ..B1.9        # Prob 100%                     #34.5
..LN83:
                                # LOE
..B1.6:                         # Preds ..B1.4
..LN84:
        movl      $.2.3_2_kmpc_loc_struct_pack.20, %edi         #34.5
..LN85:
        xorl      %eax, %eax                                    #34.5
..LN86:
        movl      224(%rsp), %esi                               #34.5
..___tag_value__Z9intrinsicPfll.17:
..LN87:
        call      __kmpc_serialized_parallel                    #34.5
..___tag_value__Z9intrinsicPfll.18:
..LN88:
                                # LOE
..B1.7:                         # Preds ..B1.6
..LN89:
        addq      $-64, %rsp                                    #34.5
..LN90:
        movl      $___kmpv_zero_Z9intrinsicPfll_0, %esi         #34.5
..LN91:
        lea       128(%rsp), %rax                               #34.5
..LN92:
        lea       -32(%rax), %rbx                               #34.5
..LN93:
        lea       160(%rax), %rdi                               #34.5
..LN94:
        movq      %rax, (%rsp)                                  #34.5
..LN95:
        lea       232(%rax), %rdx                               #34.5
..LN96:
        movq      %rbx, 8(%rsp)                                 #34.5
..LN97:
        lea       128(%rax), %rcx                               #34.5
..LN98:
        lea       248(%rax), %r8                                #34.5
..LN99:
        lea       64(%rsp), %r9                                 #34.5
..LN100:
        lea       32(%rax), %r10                                #34.5
..LN101:
        movq      %r10, 16(%rsp)                                #34.5
..LN102:
        lea       96(%rax), %r11                                #34.5
..LN103:
        movq      %r11, 24(%rsp)                                #34.5
..LN104:
        lea       64(%rax), %r12                                #34.5
..LN105:
        movq      %r12, 32(%rsp)                                #34.5
..LN106:
        lea       224(%rax), %r13                               #34.5
..LN107:
        movq      %r13, 40(%rsp)                                #34.5
..LN108:
        lea       240(%rax), %r14                               #34.5
..LN109:
        movq      %r14, 48(%rsp)                                #34.5
..___tag_value__Z9intrinsicPfll.19:
..LN110:
        call      L__Z9intrinsicPfll_34__par_loop0_2.0          #34.5
..___tag_value__Z9intrinsicPfll.20:
..LN111:
                                # LOE
..B1.44:                        # Preds ..B1.7
..LN112:
        addq      $64, %rsp                                     #34.5
..LN113:
                                # LOE
..B1.8:                         # Preds ..B1.44
..LN114:
        movl      $.2.3_2_kmpc_loc_struct_pack.20, %edi         #34.5
..LN115:
        xorl      %eax, %eax                                    #34.5
..LN116:
        movl      224(%rsp), %esi                               #34.5
..___tag_value__Z9intrinsicPfll.21:
..LN117:
        call      __kmpc_end_serialized_parallel                #34.5
..___tag_value__Z9intrinsicPfll.22:
..LN118:
                                # LOE
..B1.9:                         # Preds ..B1.43 ..B1.8
..LN119:
	.loc    1  88  is_stmt 1
        movq      248(%rsp), %r15                               #88.1
	.cfi_restore 15
..LN120:
        movq      256(%rsp), %r14                               #88.1
	.cfi_restore 14
..LN121:
        movq      264(%rsp), %r13                               #88.1
	.cfi_restore 13
..LN122:
        movq      272(%rsp), %r12                               #88.1
	.cfi_restore 12
..LN123:
        movq      280(%rsp), %rbx                               #88.1
	.cfi_restore 3
..LN124:
	.loc    1  88  epilogue_begin  is_stmt 1
        movq      %rbp, %rsp                                    #88.1
..LN125:
        popq      %rbp                                          #88.1
	.cfi_def_cfa 7, 8
	.cfi_restore 6
..LN126:
        ret                                                     #88.1
	.cfi_def_cfa 6, 16
..LN127:
                                # LOE
L__Z9intrinsicPfll_34__par_loop0_2.0:
# parameter 1: %rdi
# parameter 2: %rsi
# parameter 3: %rdx
# parameter 4: %rcx
# parameter 5: %r8
# parameter 6: %r9
# parameter 7: 16 + %rbp
# parameter 8: 24 + %rbp
# parameter 9: 32 + %rbp
# parameter 10: 40 + %rbp
# parameter 11: 48 + %rbp
# parameter 12: 56 + %rbp
# parameter 13: 64 + %rbp
..B1.10:                        # Preds ..B1.0
..LN128:
	.loc    1  34  is_stmt 1
        pushq     %rbp                                          #34.5
	.cfi_def_cfa 7, 16
..LN129:
        movq      %rsp, %rbp                                    #34.5
	.cfi_def_cfa 6, 16
	.cfi_offset 6, -16
..LN130:
        andq      $-32, %rsp                                    #34.5
..LN131:
        subq      $416, %rsp                                    #34.5
..LN132:
        movq      24(%rbp), %rax                                #34.5
..LN133:
        movq      %rbx, 280(%rsp)                               #34.5
..LN134:
        movq      %rax, 312(%rsp)                               #34.5
	.cfi_escape 0x10, 0x03, 0x0e, 0x38, 0x1c, 0x0d, 0xe0, 0xff, 0xff, 0xff, 0x1a, 0x0d, 0x78, 0xff, 0xff, 0xff, 0x22
..LN135:
        movq      48(%rbp), %rbx                                #34.5
..LN136:
        movq      32(%rbp), %r10                                #34.5
..LN137:
        movq      40(%rbp), %r11                                #34.5
..LN138:
        movq      64(%rbp), %rax                                #34.5
..LN139:
        movq      %r13, 264(%rsp)                               #34.5
	.cfi_escape 0x10, 0x0d, 0x0e, 0x38, 0x1c, 0x0d, 0xe0, 0xff, 0xff, 0xff, 0x1a, 0x0d, 0x68, 0xff, 0xff, 0xff, 0x22
..LN140:
        movq      %rcx, %r13                                    #34.5
..LN141:
        movq      %r8, 240(%rsp)                                #34.5
..LN142:
	.loc    1  35  prologue_end  is_stmt 1
        movq      (%rdx), %r8                                   #35.16
..LN143:
	.loc    1  34  is_stmt 1
        movq      %r14, 256(%rsp)                               #34.5
..LN144:
        movq      %r12, 272(%rsp)                               #34.5
..LN145:
        movq      %rbx, 296(%rsp)                               #34.5
..LN146:
        movq      %r15, 248(%rsp)                               #34.5
..LN147:
        movq      %r9, 288(%rsp)                                #34.5
	.cfi_escape 0x10, 0x0c, 0x0e, 0x38, 0x1c, 0x0d, 0xe0, 0xff, 0xff, 0xff, 0x1a, 0x0d, 0x70, 0xff, 0xff, 0xff, 0x22
	.cfi_escape 0x10, 0x0e, 0x0e, 0x38, 0x1c, 0x0d, 0xe0, 0xff, 0xff, 0xff, 0x1a, 0x0d, 0x60, 0xff, 0xff, 0xff, 0x22
	.cfi_escape 0x10, 0x0f, 0x0e, 0x38, 0x1c, 0x0d, 0xe0, 0xff, 0xff, 0xff, 0x1a, 0x0d, 0x58, 0xff, 0xff, 0xff, 0x22
..LN148:
        movq      16(%rbp), %r12                                #34.5
..LN149:
        movq      56(%rbp), %rbx                                #34.5
..LN150:
        movq      %r10, 320(%rsp)                               #34.5
..LN151:
        movq      %r11, 328(%rsp)                               #34.5
..LN152:
        movq      %rax, 304(%rsp)                               #34.5
..LN153:
        movl      (%rdi), %r14d                                 #34.5
..LN154:
	.loc    1  35  is_stmt 1
        testq     %r8, %r8                                      #35.33
..LN155:
        jle       ..B1.16       # Prob 10%                      #35.33
..LN156:
                                # LOE rbx r8 r12 r13 r14d
..B1.11:                        # Preds ..B1.10
..LN157:
	.loc    1  34  is_stmt 1
        decq      %r8                                           #34.5
..LN158:
        xorl      %r15d, %r15d                                  #34.5
..LN159:
        movl      $1, %r10d                                     #34.5
..LN160:
        movl      $.2.3_2_kmpc_loc_struct_pack.20, %edi         #34.5
..LN161:
        movl      %r15d, 344(%rsp)                              #34.5
..LN162:
        movl      %r14d, %esi                                   #34.5
..LN163:
        movl      %r8d, 348(%rsp)                               #34.5
..LN164:
        movl      $35, %edx                                     #34.5
..LN165:
        movl      %r15d, 352(%rsp)                              #34.5
..LN166:
        xorl      %ecx, %ecx                                    #34.5
..LN167:
        movl      %r10d, 356(%rsp)                              #34.5
..LN168:
        addq      $-16, %rsp                                    #34.5
..LN169:
        movl      %r10d, %r9d                                   #34.5
..LN170:
        xorl      %eax, %eax                                    #34.5
..LN171:
        movl      %r10d, (%rsp)                                 #34.5
..___tag_value__Z9intrinsicPfll.42:
..LN172:
        call      __kmpc_dispatch_init_4                        #34.5
..___tag_value__Z9intrinsicPfll.43:
..LN173:
                                # LOE rbx r12 r13 r14d r15d
..B1.45:                        # Preds ..B1.11
..LN174:
        addq      $16, %rsp                                     #34.5
..LN175:
                                # LOE rbx r12 r13 r14d r15d
..B1.12:                        # Preds ..B1.45
..LN176:
	.loc    1  43  is_stmt 1
        movq      240(%rsp), %rdi                               #43.29
..LN177:
	.loc    1  34  is_stmt 1
        lea       344(%rsp), %rsi                               #34.5
..LN178:
	.loc    1  44  is_stmt 1
        movq      -56(%rsi), %rcx                               #44.47
..LN179:
	.loc    1  46  is_stmt 1
        movq      -32(%rsi), %rax                               #46.47
..LN180:
	.loc    1  43  is_stmt 1
        movl      (%rdi), %edi                                  #43.29
..LN181:
	.loc    1  47  is_stmt 1
        movq      -24(%rsi), %rdx                               #47.40
..LN182:
	.loc    1  58  is_stmt 1
        movq      -16(%rsi), %r8                                #58.45
..LN183:
	.loc    1  62  is_stmt 1
        movq      -48(%rsi), %r9                                #62.45
..LN184:
	.loc    1  43  is_stmt 1
        lea       7(%rdi), %r10d                                #43.29
..LN185:
        sarl      $2, %r10d                                     #43.29
..LN186:
        shrl      $29, %r10d                                    #43.29
..LN187:
	.loc    1  44  is_stmt 1
        vmovups   (%rcx), %ymm6                                 #44.47
..LN188:
	.loc    1  45  is_stmt 1
        vmovups   (%r12), %ymm5                                 #45.40
..LN189:
	.loc    1  46  is_stmt 1
        vmovups   (%rax), %ymm4                                 #46.47
..LN190:
	.loc    1  47  is_stmt 1
        vmovups   (%rdx), %ymm3                                 #47.40
..LN191:
	.loc    1  58  is_stmt 1
        vmovups   (%r8), %ymm2                                  #58.45
..LN192:
	.loc    1  62  is_stmt 1
        vmovups   (%r9), %ymm1                                  #62.45
..LN193:
	.loc    1  34  is_stmt 1
        vmovups   %ymm5, -184(%rsi)                             #34.5
..LN194:
        vmovups   %ymm4, -216(%rsi)                             #34.5
..LN195:
        vmovups   %ymm3, 96(%rsp)                               #34.5
..LN196:
        vmovups   %ymm2, 64(%rsp)                               #34.5
..LN197:
        vmovups   %ymm1, 32(%rsp)                               #34.5
..LN198:
        vmovups   %ymm6, -152(%rsi)                             #34.5
..LN199:
	.loc    1  78  is_stmt 1
        movq      (%rbx), %rcx                                  #78.31
..LN200:
	.loc    1  43  is_stmt 1
        lea       7(%r10,%rdi), %r11d                           #43.29
..LN201:
	.loc    1  80  is_stmt 1
        movq      -40(%rsi), %rbx                               #80.43
..LN202:
	.loc    1  78  is_stmt 1
        movq      %rcx, %rax                                    #78.40
..LN203:
	.loc    1  43  is_stmt 1
        sarl      $3, %r11d                                     #43.29
..LN204:
	.loc    1  78  is_stmt 1
        andq      $7, %rax                                      #78.40
..LN205:
	.loc    1  80  is_stmt 1
        lea       (,%rcx,4), %r10                               #80.43
..LN206:
        movq      (%rbx), %rdx                                  #80.43
..LN207:
	.loc    1  34  is_stmt 1
        lea       8(%rsi), %r8                                  #34.5
..LN208:
	.loc    1  43  is_stmt 1
        movslq    %r11d, %r11                                   #43.9
..LN209:
	.loc    1  34  is_stmt 1
        lea       4(%rsi), %r12                                 #34.5
..LN210:
	.loc    1  48  is_stmt 1
        vxorps    %ymm0, %ymm0, %ymm0                           #48.28
..LN211:
	.loc    1  34  is_stmt 1
        lea       12(%rsi), %rbx                                #34.5
..LN212:
        movq      %r10, -124(%rbx)                              #34.5
..LN213:
        movq      %r13, %r15                                    #34.5
..LN214:
        movq      %r11, 8(%rsp)                                 #34.5
..LN215:
        movq      %rsi, %r13                                    #34.5
..LN216:
        movq      %rax, 16(%rsp)                                #34.5
..LN217:
        movq      %rdx, -132(%rbx)                              #34.5
..LN218:
        movq      %rcx, 24(%rsp)                                #34.5
..LN219:
        movl      %edi, -20(%rbx)                               #34.5
..LN220:
        movl      %r14d, (%rsp)                                 #34.5
..LN221:
        movq      %r8, %r14                                     #34.5
..LN222:
        jmp       ..B1.13       # Prob 100%                     #34.5
..LN223:
                                # LOE rbx r12 r13 r14 r15
..B1.36:                        # Preds ..B1.35
..LN224:
        movq      240(%rsp), %r15                               #
..LN225:
        lea       356(%rsp), %rbx                               #
..LN226:
        lea       348(%rsp), %r12                               #
..LN227:
        lea       344(%rsp), %r13                               #
..LN228:
        lea       352(%rsp), %r14                               #
..LN229:
                                # LOE rbx r12 r13 r14 r15
..B1.13:                        # Preds ..B1.36 ..B1.12
..L44:          # optimization report
                # %s was not vectorized: inner loop was already vectorized
..LN230:
        movl      $.2.3_2_kmpc_loc_struct_pack.20, %edi         #34.5
..LN231:
        movq      %r14, %rdx                                    #34.5
..LN232:
        movq      %r13, %rcx                                    #34.5
..LN233:
        movq      %r12, %r8                                     #34.5
..LN234:
        movq      %rbx, %r9                                     #34.5
..LN235:
        xorl      %eax, %eax                                    #34.5
..LN236:
        movl      (%rsp), %esi                                  #34.5
..LN237:
        vzeroupper                                              #34.5
..___tag_value__Z9intrinsicPfll.45:
..LN238:
        call      __kmpc_dispatch_next_4                        #34.5
..___tag_value__Z9intrinsicPfll.46:
..LN239:
                                # LOE rbx r12 r13 r14 r15 eax
..B1.14:                        # Preds ..B1.13
..LN240:
        movslq    344(%rsp), %rdi                               #34.5
..LN241:
        movslq    348(%rsp), %r10                               #34.5
..LN242:
        testl     %eax, %eax                                    #34.5
..LN243:
        jne       ..B1.17       # Prob 50%                      #34.5
..LN244:
                                # LOE rbx rdi r10 r12 r13 r14 r15
..B1.16:                        # Preds ..B1.14 ..B1.10
..LN245:
        movq      248(%rsp), %r15                               #34.5
	.cfi_restore 15
..LN246:
        movq      256(%rsp), %r14                               #34.5
	.cfi_restore 14
..LN247:
        movq      264(%rsp), %r13                               #34.5
	.cfi_restore 13
..LN248:
        movq      272(%rsp), %r12                               #34.5
	.cfi_restore 12
..LN249:
        movq      280(%rsp), %rbx                               #34.5
	.cfi_restore 3
..LN250:
	.loc    1  34  epilogue_begin  is_stmt 1
        movq      %rbp, %rsp                                    #34.5
..LN251:
        popq      %rbp                                          #34.5
	.cfi_def_cfa 7, 8
	.cfi_restore 6
..LN252:
        ret                                                     #34.5
	.cfi_def_cfa 6, 16
	.cfi_escape 0x10, 0x03, 0x0e, 0x38, 0x1c, 0x0d, 0xe0, 0xff, 0xff, 0xff, 0x1a, 0x0d, 0x78, 0xff, 0xff, 0xff, 0x22
	.cfi_offset 6, -16
	.cfi_escape 0x10, 0x0c, 0x0e, 0x38, 0x1c, 0x0d, 0xe0, 0xff, 0xff, 0xff, 0x1a, 0x0d, 0x70, 0xff, 0xff, 0xff, 0x22
	.cfi_escape 0x10, 0x0d, 0x0e, 0x38, 0x1c, 0x0d, 0xe0, 0xff, 0xff, 0xff, 0x1a, 0x0d, 0x68, 0xff, 0xff, 0xff, 0x22
	.cfi_escape 0x10, 0x0e, 0x0e, 0x38, 0x1c, 0x0d, 0xe0, 0xff, 0xff, 0xff, 0x1a, 0x0d, 0x60, 0xff, 0xff, 0xff, 0x22
	.cfi_escape 0x10, 0x0f, 0x0e, 0x38, 0x1c, 0x0d, 0xe0, 0xff, 0xff, 0xff, 0x1a, 0x0d, 0x58, 0xff, 0xff, 0xff, 0x22
..LN253:
                                # LOE
..B1.17:                        # Preds ..B1.14
..LN254:
        subq      %rdi, %r10                                    #34.5
..LN255:
        movl      %edi, %eax                                    #34.5
..LN256:
	.loc    1  80  is_stmt 1
        imulq     232(%rsp), %rdi                               #80.51
..LN257:
	.loc    1  35  is_stmt 1
        vmovups   32(%rsp), %ymm12                              #35.5
..LN258:
        vmovups   64(%rsp), %ymm11                              #35.5
..LN259:
        vmovups   96(%rsp), %ymm10                              #35.5
..LN260:
        vmovups   128(%rsp), %ymm14                             #35.5
..LN261:
        vmovups   160(%rsp), %ymm13                             #35.5
..LN262:
        vmovups   192(%rsp), %ymm9                              #35.5
..LN263:
	.loc    1  41  is_stmt 1
        vmovups   (%r15), %ymm7                                 #41.24
..LN264:
	.loc    1  35  is_stmt 1
        xorl      %r11d, %r11d                                  #35.5
..LN265:
	.loc    1  34  is_stmt 1
        incq      %r10                                          #34.5
..LN266:
	.loc    1  80  is_stmt 1
        addq      224(%rsp), %rdi                               #80.43
..LN267:
	.loc    1  35  is_stmt 1
        xorl      %esi, %esi                                    #35.5
..LN268:
        movq      8(%rsp), %r9                                  #35.5
..LN269:
        xorl      %r13d, %r13d                                  #35.5
..LN270:
        movq      16(%rsp), %r14                                #35.5
..LN271:
        movq      24(%rsp), %rcx                                #35.5
..LN272:
        movl      336(%rsp), %edx                               #35.5
..LN273:
        movq      %r15, 240(%rsp)                               #35.5
..LN274:
        vxorps    %ymm8, %ymm8, %ymm8                           #35.5
..LN275:
                                # LOE rcx rsi rdi r9 r10 r11 r14 eax edx r13d ymm7 ymm8 ymm9 ymm10 ymm11 ymm12 ymm13 ymm14
..B1.18:                        # Preds ..B1.35 ..B1.17
..L62:          # optimization report
                # OPENMP LOOP
                # %s was not vectorized: inner loop was already vectorized
..LN276:
	.loc    1  38  is_stmt 1
        vxorps    %xmm0, %xmm0, %xmm0                           #38.24
..LN277:
        vcvtsi2ss %eax, %xmm0, %xmm0                            #38.24
..LN278:
        vmovss    %xmm0, 296(%rsp)                              #38.22
..LN279:
	.loc    1  43  is_stmt 1
        xorl      %ebx, %ebx                                    #43.9
..LN280:
	.loc    1  39  is_stmt 1
        vbroadcastss 296(%rsp), %ymm6                           #39.23
..LN281:
	.loc    1  43  is_stmt 1
        movl      $7, %r8d                                      #43.9
..LN282:
	.loc    1  41  is_stmt 1
        vmovdqa   %ymm7, %ymm5                                  #41.24
..LN283:
	.loc    1  43  is_stmt 1
        testl     %edx, %edx                                    #43.29
..LN284:
        jle       ..B1.35       # Prob 10%                      #43.29
..LN285:
                                # LOE rcx rbx rsi rdi r8 r9 r10 r11 r14 eax edx r13d ymm5 ymm6 ymm7 ymm8 ymm9 ymm10 ymm11 ymm12 ymm13 ymm14
..B1.19:                        # Preds ..B1.18
..LN286:
	.loc    1  47  is_stmt 1
        vfmadd213ps %ymm10, %ymm14, %ymm6                       #47.20
..LN287:
	.loc    1  80  is_stmt 1
        lea       (%rdi,%rsi), %r12                             #80.51
..LN288:
        movl      %eax, 288(%rsp)                               #80.51
..LN289:
                                # LOE rcx rbx rsi rdi r8 r9 r10 r11 r12 r14 r13d ymm5 ymm6 ymm7 ymm8 ymm9 ymm10 ymm11 ymm12 ymm13 ymm14
..B1.20:                        # Preds ..B1.33 ..B1.19
..L63:          # optimization report
                # %s was not vectorized: inner loop was already vectorized
..LN290:
	.loc    1  51  is_stmt 1
        movl      %r13d, %eax                                   #51.22
..LN291:
	.loc    1  45  is_stmt 1
        vmovdqa   %ymm5, %ymm1                                  #45.20
..LN292:
        vfmadd213ps %ymm13, %ymm9, %ymm1                        #45.20
..LN293:
	.loc    1  48  is_stmt 1
        vxorps    %ymm2, %ymm2, %ymm2                           #48.28
..LN294:
	.loc    1  49  is_stmt 1
        vmovdqa   %ymm8, %ymm3                                  #49.28
..LN295:
        vmovaps   %ymm8, %ymm4                                  #49.43
..LN296:
                                # LOE rcx rbx rsi rdi r8 r9 r10 r11 r12 r14 eax r13d ymm1 ymm2 ymm3 ymm4 ymm5 ymm6 ymm7 ymm8 ymm9 ymm10 ymm11 ymm12 ymm13 ymm14
..B1.21:                        # Preds ..B1.22 ..B1.20
..L64:          # optimization report
                # %s was not vectorized: loop with multiple exits cannot be vectorized unless it meets search loop idiom criteria
                # VECTOR TRIP COUNT IS KNOWN CONSTANT
..LN297:
	.loc    1  54  is_stmt 1
        vmulps    %ymm4, %ymm4, %ymm15                          #54.32
..LN298:
	.loc    1  55  is_stmt 1
        vfmadd231ps %ymm3, %ymm3, %ymm15                        #55.32
..LN299:
	.loc    1  58  is_stmt 1
        vcmplt_oqps %ymm11, %ymm15, %ymm0                       #58.25
..LN300:
	.loc    1  62  is_stmt 1
        vandps    %ymm12, %ymm0, %ymm15                         #62.25
..LN301:
	.loc    1  65  is_stmt 1
        vaddps    %ymm2, %ymm15, %ymm2                          #65.25
..LN302:
	.loc    1  66  is_stmt 1
        vmulps    %ymm4, %ymm3, %ymm15                          #66.25
..LN303:
	.loc    1  68  is_stmt 1
        vfmadd213ps %ymm1, %ymm3, %ymm3                         #68.25
..LN304:
	.loc    1  61  is_stmt 1
        vmovmskps %ymm0, %edx                                   #61.24
..LN305:
	.loc    1  68  is_stmt 1
        vfnmadd231ps %ymm4, %ymm4, %ymm3                        #68.25
..LN306:
	.loc    1  70  is_stmt 1
        vmovaps   %ymm6, %ymm4                                  #70.25
..LN307:
        vfmadd231ps .L_2il0floatpacket.2(%rip), %ymm15, %ymm4   #70.25
..LN308:
	.loc    1  73  is_stmt 1
        testl     %edx, %edx                                    #73.31
..LN309:
        je        ..B1.24       # Prob 20%                      #73.31
..LN310:
                                # LOE rcx rbx rsi rdi r8 r9 r10 r11 r12 r14 eax r13d ymm1 ymm2 ymm3 ymm4 ymm5 ymm6 ymm7 ymm8 ymm9 ymm10 ymm11 ymm12 ymm13 ymm14
..B1.22:                        # Preds ..B1.21
..LN311:
	.loc    1  51  is_stmt 1
        incl      %eax                                          #51.22
..LN312:
        cmpl      $512, %eax                                    #51.22
..LN313:
        jb        ..B1.21       # Prob 99%                      #51.22
..LN314:
                                # LOE rcx rbx rsi rdi r8 r9 r10 r11 r12 r14 eax r13d ymm1 ymm2 ymm3 ymm4 ymm5 ymm6 ymm7 ymm8 ymm9 ymm10 ymm11 ymm12 ymm13 ymm14
..B1.24:                        # Preds ..B1.21 ..B1.22
..LN315:
	.loc    1  78  is_stmt 1
        movl      $8, %edx                                      #78.31
..LN316:
        cmpq      %r8, %rcx                                     #78.31
..LN317:
	.loc    1  76  is_stmt 1
        vcvtps2dq %ymm2, %ymm0                                  #76.30
..LN318:
	.loc    1  78  is_stmt 1
        cmovle    %r14, %rdx                                    #78.31
..LN319:
        movl      %edx, %eax                                    #78.31
..LN320:
	.loc    1  80  is_stmt 1
        testl     %eax, %eax                                    #80.33
..LN321:
        jle       ..B1.33       # Prob 50%                      #80.33
..LN322:
                                # LOE rdx rcx rbx rsi rdi r8 r9 r10 r11 r12 r14 eax r13d ymm0 ymm5 ymm6 ymm7 ymm8 ymm9 ymm10 ymm11 ymm12 ymm13 ymm14
..B1.25:                        # Preds ..B1.24
..LN323:
	.loc    1  76  is_stmt 1
        vmovdqu   %ymm0, 384(%rsp)                              #76.28
..LN324:
	.loc    1  80  is_stmt 1
        cmpq      $8, %rdx                                      #80.13
..LN325:
        jl        ..B1.37       # Prob 10%                      #80.13
..LN326:
                                # LOE rdx rcx rbx rsi rdi r8 r9 r10 r11 r12 r14 eax r13d ymm5 ymm6 ymm7 ymm8 ymm9 ymm10 ymm11 ymm12 ymm13 ymm14
..B1.26:                        # Preds ..B1.25
..LN327:
        andl      $-8, %eax                                     #80.13
..LN328:
        xorl      %r15d, %r15d                                  #80.13
..LN329:
                                # LOE rax rdx rcx rbx rsi rdi r8 r9 r10 r11 r12 r14 r15 r13d ymm5 ymm6 ymm7 ymm8 ymm9 ymm10 ymm11 ymm12 ymm13 ymm14
..B1.27:                        # Preds ..B1.27 ..B1.26
..L65:          # optimization report
                # LOOP WAS UNROLLED BY 1
                # LOOP WAS VECTORIZED
                # VECTORIZATION HAS UNALIGNED MEMORY REFERENCES
                # VECTORIZATION SPEEDUP COEFFECIENT 16.250000
                # VECTOR TRIP COUNT IS ESTIMATED CONSTANT
                # VECTOR LENGTH 8
                # NORMALIZED VECTORIZATION OVERHEAD 0.625000
..LN330:
        vmovdqu   384(%rsp,%r15,4), %ymm0                       #80.60
..LN331:
        vmovdqu   %ymm0, (%r12,%r15,4)                          #80.43
..LN332:
        addq      $8, %r15                                      #80.13
..LN333:
        cmpq      %rax, %r15                                    #80.13
..LN334:
        jb        ..B1.27       # Prob 82%                      #80.13
..LN335:
                                # LOE rax rdx rcx rbx rsi rdi r8 r9 r10 r11 r12 r14 r15 r13d ymm5 ymm6 ymm7 ymm8 ymm9 ymm10 ymm11 ymm12 ymm13 ymm14
..B1.29:                        # Preds ..B1.27 ..B1.37
..LN336:
        cmpq      %rdx, %rax                                    #80.13
..LN337:
        jae       ..B1.33       # Prob 10%                      #80.13
..LN338:
                                # LOE rax rdx rcx rbx rsi rdi r8 r9 r10 r11 r12 r14 r13d ymm5 ymm6 ymm7 ymm8 ymm9 ymm10 ymm11 ymm12 ymm13 ymm14
..B1.31:                        # Preds ..B1.29 ..B1.31
..L66:          # optimization report
                # REMAINDER LOOP FOR VECTORIZATION
..LN339:
        movl      384(%rsp,%rax,4), %r15d                       #80.60
..LN340:
        movl      %r15d, (%r12,%rax,4)                          #80.43
..LN341:
        incq      %rax                                          #80.13
..LN342:
        cmpq      %rdx, %rax                                    #80.13
..LN343:
        jb        ..B1.31       # Prob 82%                      #80.13
..LN344:
                                # LOE rax rdx rcx rbx rsi rdi r8 r9 r10 r11 r12 r14 r13d ymm5 ymm6 ymm7 ymm8 ymm9 ymm10 ymm11 ymm12 ymm13 ymm14
..B1.33:                        # Preds ..B1.31 ..B1.24 ..B1.29
..LN345:
	.loc    1  43  is_stmt 1
        incq      %rbx                                          #43.9
..LN346:
        addq      $32, %r12                                     #43.9
..LN347:
        addq      $8, %r8                                       #43.9
..LN348:
	.loc    1  84  is_stmt 1
        vfmadd231ps .L_2il0floatpacket.2(%rip), %ymm11, %ymm5   #84.20
..LN349:
	.loc    1  43  is_stmt 1
        cmpq      %r9, %rbx                                     #43.9
..LN350:
        jb        ..B1.20       # Prob 82%                      #43.9
..LN351:
                                # LOE rcx rbx rsi rdi r8 r9 r10 r11 r12 r14 r13d ymm5 ymm6 ymm7 ymm8 ymm9 ymm10 ymm11 ymm12 ymm13 ymm14
..B1.34:                        # Preds ..B1.33
..LN352:
        movl      288(%rsp), %eax                               #
..LN353:
        movl      336(%rsp), %edx                               #
..LN354:
                                # LOE rcx rsi rdi r9 r10 r11 r14 eax edx r13d ymm7 ymm8 ymm9 ymm10 ymm11 ymm12 ymm13 ymm14
..B1.35:                        # Preds ..B1.34 ..B1.18
..LN355:
	.loc    1  35  is_stmt 1
        incq      %r11                                          #35.5
..LN356:
        incl      %eax                                          #35.28
..LN357:
        lea       (%rsi,%rcx,4), %rsi                           #35.5
..LN358:
        cmpq      %r10, %r11                                    #35.5
..LN359:
        jb        ..B1.18       # Prob 82%                      #35.5
..LN360:
        jmp       ..B1.36       # Prob 100%                     #35.5
..LN361:
                                # LOE rcx rsi rdi r9 r10 r11 r14 eax edx r13d ymm7 ymm8 ymm9 ymm10 ymm11 ymm12 ymm13 ymm14
..B1.37:                        # Preds ..B1.25                 # Infreq
..LN362:
	.loc    1  80  is_stmt 1
        xorl      %eax, %eax                                    #80.13
..LN363:
        jmp       ..B1.29       # Prob 100%                     #80.13
        .align    16,0x90
	.cfi_endproc
..LN364:
                                # LOE rax rdx rcx rbx rsi rdi r8 r9 r10 r11 r12 r14 r13d ymm5 ymm6 ymm7 ymm8 ymm9 ymm10 ymm11 ymm12 ymm13 ymm14
..LN365:
# mark_end;
	.type	_Z9intrinsicPfll,@function
	.size	_Z9intrinsicPfll,.-_Z9intrinsicPfll
..LN_Z9intrinsicPfll.366:
.LN_Z9intrinsicPfll:
	.data
	.align 4
	.align 4
.2.3_2_kmpc_loc_struct_pack.12:
	.long	0
	.long	2
	.long	0
	.long	0
	.quad	.2.3_2__kmpc_loc_pack.11
	.align 4
.2.3_2__kmpc_loc_pack.11:
	.byte	59
	.byte	117
	.byte	110
	.byte	107
	.byte	110
	.byte	111
	.byte	119
	.byte	110
	.byte	59
	.byte	105
	.byte	110
	.byte	116
	.byte	114
	.byte	105
	.byte	110
	.byte	115
	.byte	105
	.byte	99
	.byte	59
	.byte	51
	.byte	52
	.byte	59
	.byte	51
	.byte	52
	.byte	59
	.byte	59
	.space 2, 0x00 	# pad
	.align 4
.2.3_2_kmpc_loc_struct_pack.20:
	.long	0
	.long	2
	.long	0
	.long	0
	.quad	.2.3_2__kmpc_loc_pack.19
	.align 4
.2.3_2__kmpc_loc_pack.19:
	.byte	59
	.byte	117
	.byte	110
	.byte	107
	.byte	110
	.byte	111
	.byte	119
	.byte	110
	.byte	59
	.byte	105
	.byte	110
	.byte	116
	.byte	114
	.byte	105
	.byte	110
	.byte	115
	.byte	105
	.byte	99
	.byte	59
	.byte	51
	.byte	52
	.byte	59
	.byte	56
	.byte	55
	.byte	59
	.byte	59
	.section .rodata, "a"
	.align 32
	.align 32
incr.323.0.0.1:
	.long	0x00000000
	.long	0x3f800000
	.long	0x40000000
	.long	0x40400000
	.long	0x40800000
	.long	0x40a00000
	.long	0x40c00000
	.long	0x40e00000
	.align 4
constants.323.0.0.1:
	.long	0x00000000
	.long	0x00000000
	.long	0xbdcccccd
	.long	0xbdcccccd
	.long	0x3f800000
	.long	0x40800000
	.data
	.file   2 "/zdata/groups/nfsopt/intel/2016/compilers_and_libraries_2016.0.109/linux/compiler/include/immintrin.h"
# -- End  _Z9intrinsicPfll, L__Z9intrinsicPfll_34__par_loop0_2.0
	.bss
	.align 4
	.align 4
___kmpv_zero_Z9intrinsicPfll_0:
	.type	___kmpv_zero_Z9intrinsicPfll_0,@object
	.size	___kmpv_zero_Z9intrinsicPfll_0,4
	.space 4	# pad
	.section .rodata, "a"
	.space 8, 0x00 	# pad
	.align 32
.L_2il0floatpacket.2:
	.long	0x40000000,0x40000000,0x40000000,0x40000000,0x40000000,0x40000000,0x40000000,0x40000000
	.type	.L_2il0floatpacket.2,@object
	.size	.L_2il0floatpacket.2,32
	.align 4
.L_2il0floatpacket.1:
	.long	0x3e4ccccd
	.type	.L_2il0floatpacket.1,@object
	.size	.L_2il0floatpacket.1,4
	.data
	.section .debug_opt_report, ""
..L70:
	.ascii ".itt_notify_tab\0"
	.word	258
	.word	48
	.long	7
	.long	..L71 - ..L70
	.long	48
	.long	..L72 - ..L70
	.long	93
	.long	0x00000008,0x00000000
	.long	0
	.long	0
	.long	0
	.long	0
	.quad	..L44
	.long	28
	.long	4
	.quad	..L62
	.long	28
	.long	18
	.quad	..L63
	.long	28
	.long	32
	.quad	..L64
	.long	28
	.long	46
	.quad	..L65
	.long	28
	.long	63
	.quad	..L66
	.long	28
	.long	81
..L71:
	.long	1769238639
	.long	1635412333
	.long	1852795252
	.long	1885696607
	.long	1601466991
	.long	1936876918
	.long	7237481
	.long	1769238639
	.long	1635412333
	.long	1852795252
	.long	1885696607
	.long	7631471
..L72:
	.long	42012675
	.long	-2139090931
	.long	-2139062144
	.long	-2139062144
	.long	269289416
	.long	-2139053952
	.long	-2139062144
	.long	130580608
	.long	-2139090931
	.long	-2139062144
	.long	-2139062144
	.long	269486024
	.long	-2139062144
	.long	-2139062144
	.long	-2031058816
	.long	285311104
	.long	-2139062256
	.long	-2138865536
	.long	-2105376640
	.long	-959856256
	.long	-2146432228
	.long	-2139062144
	.long	-2139062144
	.byte	8
	.section .note.GNU-stack, ""
// -- Begin DWARF2 SEGMENT .debug_info
	.section .debug_frame
.debug_frame_seg:
	.align 1
// -- Begin DWARF2 SEGMENT .debug_str
	.section .eh_frame,"a",@progbits
.eh_frame_seg:
	.align 8
	.section .text
.LNDBG_TXe:
# End
